---
triple:          'arm64-apple-darwin'
binary-path:     '/Users/kholo/Documents/Programming/university/C/WHAT/hw1/etu_Holopov/test'
relocations:
  - { offsetInCU: 0x1D3, offset: 0x1D3, size: 0x8, addend: 0x0, symName: __ZN5Catch12_GLOBAL__N_142catch_internal_RegistrarForCompactReporterE, symObjAddr: 0x6DED60, symBinAddr: 0x1001182C0, symSize: 0x0 }
  - { offsetInCU: 0x1ED, offset: 0x1ED, size: 0x8, addend: 0x0, symName: __ZN5Catch12_GLOBAL__N_142catch_internal_RegistrarForConsoleReporterE, symObjAddr: 0x6DED61, symBinAddr: 0x1001182C1, symSize: 0x0 }
  - { offsetInCU: 0x26E, offset: 0x26E, size: 0x8, addend: 0x0, symName: __ZN5Catch12_GLOBAL__N_140catch_internal_RegistrarForJunitReporterE, symObjAddr: 0x6DED62, symBinAddr: 0x1001182C2, symSize: 0x0 }
  - { offsetInCU: 0x288, offset: 0x288, size: 0x8, addend: 0x0, symName: __ZN5Catch12_GLOBAL__N_138catch_internal_RegistrarForXmlReporterE, symObjAddr: 0x6DED63, symBinAddr: 0x1001182C3, symSize: 0x0 }
  - { offsetInCU: 0x35E, offset: 0x35E, size: 0x8, addend: 0x0, symName: __ZN5Catch12_GLOBAL__N_113getSingletonsEv, symObjAddr: 0x17D38, symBinAddr: 0x10001933C, symSize: 0x58 }
  - { offsetInCU: 0x389, offset: 0x389, size: 0x8, addend: 0x0, symName: __ZZN5Catch12_GLOBAL__N_113getSingletonsEvE12g_singletons, symObjAddr: 0x6DED98, symBinAddr: 0x1001182F8, symSize: 0x0 }
  - { offsetInCU: 0x393, offset: 0x393, size: 0x8, addend: 0x0, symName: __ZN5Catch12_GLOBAL__N_123estimateClockResolutionEv, symObjAddr: 0x2056C, symBinAddr: 0x100021B70, symSize: 0x104 }
  - { offsetInCU: 0x3BE, offset: 0x3BE, size: 0x8, addend: 0x0, symName: __ZZN5Catch12_GLOBAL__N_123estimateClockResolutionEvE10iterations, symObjAddr: 0xFF3E0, symBinAddr: 0x1001025A8, symSize: 0x0 }
  - { offsetInCU: 0x657, offset: 0x657, size: 0x8, addend: 0x0, symName: __ZN5Catch12_GLOBAL__N_1lsERNSt3__113basic_ostreamIcNS1_11char_traitsIcEEEERKNS_20ITransientExpressionE, symObjAddr: 0xC30, symBinAddr: 0x100002234, symSize: 0x38 }
  - { offsetInCU: 0x694, offset: 0x694, size: 0x8, addend: 0x0, symName: __ZN5Catch12_GLOBAL__N_122platformColourInstanceEv, symObjAddr: 0x6BFC, symBinAddr: 0x100008200, symSize: 0x178 }
  - { offsetInCU: 0x6E0, offset: 0x6E0, size: 0x8, addend: 0x0, symName: __ZN5Catch12_GLOBAL__N_115almostEqualUlpsIfEEbT_S2_y, symObjAddr: 0xDD94, symBinAddr: 0x10000F398, symSize: 0x104 }
  - { offsetInCU: 0x762, offset: 0x762, size: 0x8, addend: 0x0, symName: __ZN5Catch12_GLOBAL__N_115almostEqualUlpsIdEEbT_S2_y, symObjAddr: 0xDE98, symBinAddr: 0x10000F49C, symSize: 0x104 }
  - { offsetInCU: 0x7E4, offset: 0x7E4, size: 0x8, addend: 0x0, symName: __ZN5Catch12_GLOBAL__N_15writeIfEEvRNSt3__113basic_ostreamIcNS2_11char_traitsIcEEEET_, symObjAddr: 0xE3E4, symBinAddr: 0x10000F9E8, symSize: 0x58 }
  - { offsetInCU: 0x826, offset: 0x826, size: 0x8, addend: 0x0, symName: __ZN5Catch12_GLOBAL__N_15writeIdEEvRNSt3__113basic_ostreamIcNS2_11char_traitsIcEEEET_, symObjAddr: 0xE43C, symBinAddr: 0x10000FA40, symSize: 0x58 }
  - { offsetInCU: 0x868, offset: 0x868, size: 0x8, addend: 0x0, symName: __ZN5Catch12_GLOBAL__N_14stepIdEET_S2_S2_y, symObjAddr: 0xE494, symBinAddr: 0x10000FA98, symSize: 0x6C }
  - { offsetInCU: 0x8DA, offset: 0x8DA, size: 0x8, addend: 0x0, symName: __ZN5Catch12_GLOBAL__N_14stepIfEET_S2_S2_y, symObjAddr: 0xE500, symBinAddr: 0x10000FB04, symSize: 0x6C }
  - { offsetInCU: 0x94C, offset: 0x94C, size: 0x8, addend: 0x0, symName: __ZN5Catch12_GLOBAL__N_116marginComparisonEddd, symObjAddr: 0xE908, symBinAddr: 0x10000FF0C, symSize: 0x68 }
  - { offsetInCU: 0x998, offset: 0x998, size: 0x8, addend: 0x0, symName: __ZN5Catch12_GLOBAL__N_112rotate_rightEjj, symObjAddr: 0x1185C, symBinAddr: 0x100012E60, symSize: 0x50 }
  - { offsetInCU: 0x9E4, offset: 0x9E4, size: 0x8, addend: 0x0, symName: __ZN5Catch12_GLOBAL__N_120applyFilenamesAsTagsERKNS_7IConfigE, symObjAddr: 0x176B0, symBinAddr: 0x100018CB4, symSize: 0x1FC }
  - { offsetInCU: 0xB25, offset: 0xB25, size: 0x8, addend: 0x0, symName: __ZN5Catch12_GLOBAL__N_19toLowerChEc, symObjAddr: 0x18A8C, symBinAddr: 0x10001A090, symSize: 0x28 }
  - { offsetInCU: 0xB53, offset: 0xB53, size: 0x8, addend: 0x0, symName: __ZN5Catch12_GLOBAL__N_115parseSpecialTagERKNSt3__112basic_stringIcNS1_11char_traitsIcEENS1_9allocatorIcEEEE, symObjAddr: 0x1A294, symBinAddr: 0x10001B898, symSize: 0x114 }
  - { offsetInCU: 0xB81, offset: 0xB81, size: 0x8, addend: 0x0, symName: __ZN5Catch12_GLOBAL__N_121enforceNotReservedTagERKNSt3__112basic_stringIcNS1_11char_traitsIcEENS1_9allocatorIcEEEERKNS_14SourceLineInfoE, symObjAddr: 0x1A3A8, symBinAddr: 0x10001B9AC, symSize: 0x110 }
  - { offsetInCU: 0xC0D, offset: 0xC0D, size: 0x8, addend: 0x0, symName: __ZN5Catch12_GLOBAL__N_113hexEscapeCharERNSt3__113basic_ostreamIcNS1_11char_traitsIcEEEEh, symObjAddr: 0x22A00, symBinAddr: 0x100024004, symSize: 0xC0 }
  - { offsetInCU: 0xC55, offset: 0xC55, size: 0x8, addend: 0x0, symName: __ZN5Catch12_GLOBAL__N_113trailingBytesEh, symObjAddr: 0x22AC0, symBinAddr: 0x1000240C4, symSize: 0x150 }
  - { offsetInCU: 0xC83, offset: 0xC83, size: 0x8, addend: 0x0, symName: __ZN5Catch12_GLOBAL__N_111headerValueEh, symObjAddr: 0x22C10, symBinAddr: 0x100024214, symSize: 0x15C }
  - { offsetInCU: 0xCB1, offset: 0xCB1, size: 0x8, addend: 0x0, symName: __ZN5Catch12_GLOBAL__N_112shouldIndentENS_13XmlFormattingE, symObjAddr: 0x23508, symBinAddr: 0x100024B0C, symSize: 0x34 }
  - { offsetInCU: 0xCDF, offset: 0xCDF, size: 0x8, addend: 0x0, symName: __ZN5Catch12_GLOBAL__N_113shouldNewlineENS_13XmlFormattingE, symObjAddr: 0x2393C, symBinAddr: 0x100024F40, symSize: 0x34 }
  - { offsetInCU: 0xE6A, offset: 0xE6A, size: 0x8, addend: 0x0, symName: __ZN5Catch12_GLOBAL__N_111printTotalsERNSt3__113basic_ostreamIcNS1_11char_traitsIcEEEERKNS_6TotalsE, symObjAddr: 0x24A48, symBinAddr: 0x10002604C, symSize: 0x7A8 }
  - { offsetInCU: 0x103A, offset: 0x103A, size: 0x8, addend: 0x0, symName: __ZN5Catch12_GLOBAL__N_19makeRatioEmm, symObjAddr: 0x2851C, symBinAddr: 0x100029B20, symSize: 0x9C }
  - { offsetInCU: 0x1086, offset: 0x1086, size: 0x8, addend: 0x0, symName: __ZN5Catch12_GLOBAL__N_17findMaxERmS1_S1_, symObjAddr: 0x285B8, symBinAddr: 0x100029BBC, symSize: 0xA0 }
  - { offsetInCU: 0x10D2, offset: 0x10D2, size: 0x8, addend: 0x0, symName: __ZN5Catch12_GLOBAL__N_114formatDurationEd, symObjAddr: 0x29EEC, symBinAddr: 0x10002B4F0, symSize: 0xBC }
  - { offsetInCU: 0x110F, offset: 0x110F, size: 0x8, addend: 0x0, symName: __ZN5Catch12_GLOBAL__N_119getCurrentTimestampEv, symObjAddr: 0x29FA8, symBinAddr: 0x10002B5AC, symSize: 0xAC }
  - { offsetInCU: 0x1179, offset: 0x1179, size: 0x8, addend: 0x0, symName: __ZN5Catch12_GLOBAL__N_111fileNameTagERKNSt3__16vectorINS1_12basic_stringIcNS1_11char_traitsIcEENS1_9allocatorIcEEEENS6_IS8_EEEE, symObjAddr: 0x2A528, symBinAddr: 0x10002BB2C, symSize: 0xA0 }
  - { offsetInCU: 0x11D5, offset: 0x11D5, size: 0x8, addend: 0x0, symName: __ZN5Catch12_GLOBAL__N_119useColourOnPlatformEv, symObjAddr: 0x3FE74, symBinAddr: 0x100041478, symSize: 0x4C }
  - { offsetInCU: 0x11F3, offset: 0x11F3, size: 0x8, addend: 0x0, symName: __ZN5Catch12_GLOBAL__N_112makeReporterERKNSt3__110shared_ptrINS_6ConfigEEE, symObjAddr: 0x5825C, symBinAddr: 0x100059860, symSize: 0x330 }
  - { offsetInCU: 0x1294, offset: 0x1294, size: 0x8, addend: 0x0, symName: __ZN5Catch12_GLOBAL__N_114createReporterERKNSt3__112basic_stringIcNS1_11char_traitsIcEENS1_9allocatorIcEEEERKNS1_10shared_ptrIKNS_7IConfigEEE, symObjAddr: 0x588CC, symBinAddr: 0x100059ED0, symSize: 0x16C }
  - { offsetInCU: 0x12E1, offset: 0x12E1, size: 0x8, addend: 0x0, symName: __ZN5Catch12_GLOBAL__N_113isReservedTagERKNSt3__112basic_stringIcNS1_11char_traitsIcEENS1_9allocatorIcEEEE, symObjAddr: 0x5F1DC, symBinAddr: 0x1000607E0, symSize: 0x88 }
  - { offsetInCU: 0x130F, offset: 0x130F, size: 0x8, addend: 0x0, symName: __ZN5Catch12_GLOBAL__N_17convertEf, symObjAddr: 0x891E4, symBinAddr: 0x10008A7E8, symSize: 0x1C }
  - { offsetInCU: 0x134C, offset: 0x134C, size: 0x8, addend: 0x0, symName: __ZN5Catch12_GLOBAL__N_17convertEd, symObjAddr: 0x89218, symBinAddr: 0x10008A81C, symSize: 0x1C }
  - { offsetInCU: 0x1389, offset: 0x1389, size: 0x8, addend: 0x0, symName: __ZN5Catch12_GLOBAL__N_19nextafterEdd, symObjAddr: 0x8935C, symBinAddr: 0x10008A960, symSize: 0x2C }
  - { offsetInCU: 0x13C6, offset: 0x13C6, size: 0x8, addend: 0x0, symName: __ZN5Catch12_GLOBAL__N_19nextafterEff, symObjAddr: 0x89388, symBinAddr: 0x10008A98C, symSize: 0x2C }
  - { offsetInCU: 0x1414, offset: 0x1414, size: 0x8, addend: 0x0, symName: __ZN5Catch15IMutableContext14currentContextE, symObjAddr: 0x6DEDA8, symBinAddr: 0x100118308, symSize: 0x0 }
  - { offsetInCU: 0x1CDC, offset: 0x1CDC, size: 0x8, addend: 0x0, symName: __ZN5Catch10Generators23acquireGeneratorTrackerENS_9StringRefERKNS_14SourceLineInfoE, symObjAddr: 0x93F0, symBinAddr: 0x10000A9F4, symSize: 0x48 }
  - { offsetInCU: 0x37E4, offset: 0x37E4, size: 0x8, addend: 0x0, symName: __ZN5Catch3rngEv, symObjAddr: 0x7010, symBinAddr: 0x100008614, symSize: 0xA0 }
  - { offsetInCU: 0x380F, offset: 0x380F, size: 0x8, addend: 0x0, symName: __ZZN5Catch3rngEvE5s_rng, symObjAddr: 0x6DEC88, symBinAddr: 0x1001181E8, symSize: 0x0 }
  - { offsetInCU: 0x38E5, offset: 0x38E5, size: 0x8, addend: 0x0, symName: __ZN5Catch11MessageInfo11globalCountE, symObjAddr: 0x6DEDB0, symBinAddr: 0x100118310, symSize: 0x0 }
  - { offsetInCU: 0x5CDD, offset: 0x5CDD, size: 0x8, addend: 0x0, symName: __ZN5Catch5clara6detaillsERNSt3__113basic_ostreamIcNS2_11char_traitsIcEEEERKNS1_6ParserE, symObjAddr: 0x167E0, symBinAddr: 0x100017DE4, symSize: 0x30 }
  - { offsetInCU: 0x5D1A, offset: 0x5D1A, size: 0x8, addend: 0x0, symName: __ZN5Catch5clara6detail11convertIntoERKNSt3__112basic_stringIcNS2_11char_traitsIcEENS2_9allocatorIcEEEERS8_, symObjAddr: 0x35F5C, symBinAddr: 0x100037560, symSize: 0x44 }
  - { offsetInCU: 0x5F00, offset: 0x5F00, size: 0x8, addend: 0x0, symName: __ZN5Catch5clara6detail12normaliseOptERKNSt3__112basic_stringIcNS2_11char_traitsIcEENS2_9allocatorIcEEEE, symObjAddr: 0x38AA8, symBinAddr: 0x10003A0AC, symSize: 0x38 }
  - { offsetInCU: 0x5F2E, offset: 0x5F2E, size: 0x8, addend: 0x0, symName: __ZN5Catch5clara6detail11isOptPrefixEc, symObjAddr: 0x39764, symBinAddr: 0x10003AD68, symSize: 0x20 }
  - { offsetInCU: 0x5F5C, offset: 0x5F5C, size: 0x8, addend: 0x0, symName: '__ZN5Catch5clara6detail12invokeLambdaINSt3__112basic_stringIcNS3_11char_traitsIcEENS3_9allocatorIcEEEEZNS_21makeCommandLineParserERNS_10ConfigDataEE3$_1EENS1_11BasicResultINS1_15ParseResultTypeEEERKT0_RKS9_', symObjAddr: 0x6E5A0, symBinAddr: 0x10006FBA4, symSize: 0xD0 }
  - { offsetInCU: 0x6060, offset: 0x6060, size: 0x8, addend: 0x0, symName: '__ZN5Catch5clara6detail12invokeLambdaIiZNS_21makeCommandLineParserERNS_10ConfigDataEE3$_3EENS1_11BasicResultINS1_15ParseResultTypeEEERKT0_RKNSt3__112basic_stringIcNSC_11char_traitsIcEENSC_9allocatorIcEEEE', symObjAddr: 0x7046C, symBinAddr: 0x100071A70, symSize: 0xA4 }
  - { offsetInCU: 0x60CD, offset: 0x60CD, size: 0x8, addend: 0x0, symName: __ZN5Catch5clara6detail11convertIntoIiEENS1_11BasicResultINS1_15ParseResultTypeEEERKNSt3__112basic_stringIcNS6_11char_traitsIcEENS6_9allocatorIcEEEERT_, symObjAddr: 0x70510, symBinAddr: 0x100071B14, symSize: 0x164 }
  - { offsetInCU: 0x6123, offset: 0x6123, size: 0x8, addend: 0x0, symName: '__ZN5Catch5clara6detail12invokeLambdaINSt3__112basic_stringIcNS3_11char_traitsIcEENS3_9allocatorIcEEEEZNS_21makeCommandLineParserERNS_10ConfigDataEE3$_4EENS1_11BasicResultINS1_15ParseResultTypeEEERKT0_RKS9_', symObjAddr: 0x71394, symBinAddr: 0x100072998, symSize: 0xD0 }
  - { offsetInCU: 0x6190, offset: 0x6190, size: 0x8, addend: 0x0, symName: '__ZN5Catch5clara6detail12invokeLambdaIbZNS_21makeCommandLineParserERNS_10ConfigDataEE3$_5EENS1_11BasicResultINS1_15ParseResultTypeEEERKT0_RKNSt3__112basic_stringIcNSC_11char_traitsIcEENSC_9allocatorIcEEEE', symObjAddr: 0x722E0, symBinAddr: 0x1000738E4, symSize: 0xA4 }
  - { offsetInCU: 0x61FD, offset: 0x61FD, size: 0x8, addend: 0x0, symName: __ZN5Catch5clara6detail11convertIntoERKNSt3__112basic_stringIcNS2_11char_traitsIcEENS2_9allocatorIcEEEERb, symObjAddr: 0x72384, symBinAddr: 0x100073988, symSize: 0x270 }
  - { offsetInCU: 0x6268, offset: 0x6268, size: 0x8, addend: 0x0, symName: __ZN5Catch5clara6detail11convertIntoIdEENS1_11BasicResultINS1_15ParseResultTypeEEERKNSt3__112basic_stringIcNS6_11char_traitsIcEENS6_9allocatorIcEEEERT_, symObjAddr: 0x73498, symBinAddr: 0x100074A9C, symSize: 0x164 }
  - { offsetInCU: 0x62BE, offset: 0x62BE, size: 0x8, addend: 0x0, symName: '__ZN5Catch5clara6detail12invokeLambdaINSt3__112basic_stringIcNS3_11char_traitsIcEENS3_9allocatorIcEEEEZNS_21makeCommandLineParserERNS_10ConfigDataEE3$_6EENS1_11BasicResultINS1_15ParseResultTypeEEERKT0_RKS9_', symObjAddr: 0x742B0, symBinAddr: 0x1000758B4, symSize: 0xD0 }
  - { offsetInCU: 0x632B, offset: 0x632B, size: 0x8, addend: 0x0, symName: '__ZN5Catch5clara6detail12invokeLambdaINSt3__112basic_stringIcNS3_11char_traitsIcEENS3_9allocatorIcEEEEZNS_21makeCommandLineParserERNS_10ConfigDataEE3$_7EENS1_11BasicResultINS1_15ParseResultTypeEEERKT0_RKS9_', symObjAddr: 0x75FD0, symBinAddr: 0x1000775D4, symSize: 0xD0 }
  - { offsetInCU: 0x6398, offset: 0x6398, size: 0x8, addend: 0x0, symName: '__ZN5Catch5clara6detail12invokeLambdaINSt3__112basic_stringIcNS3_11char_traitsIcEENS3_9allocatorIcEEEEZNS_21makeCommandLineParserERNS_10ConfigDataEE3$_8EENS1_11BasicResultINS1_15ParseResultTypeEEERKT0_RKS9_', symObjAddr: 0x76F2C, symBinAddr: 0x100078530, symSize: 0xD0 }
  - { offsetInCU: 0x6405, offset: 0x6405, size: 0x8, addend: 0x0, symName: '__ZN5Catch5clara6detail12invokeLambdaINSt3__112basic_stringIcNS3_11char_traitsIcEENS3_9allocatorIcEEEEZNS_21makeCommandLineParserERNS_10ConfigDataEE3$_9EENS1_11BasicResultINS1_15ParseResultTypeEEERKT0_RKS9_', symObjAddr: 0x77F1C, symBinAddr: 0x100079520, symSize: 0xD0 }
  - { offsetInCU: 0x6472, offset: 0x6472, size: 0x8, addend: 0x0, symName: __ZN5Catch5clara6detail11convertIntoIjEENS1_11BasicResultINS1_15ParseResultTypeEEERKNSt3__112basic_stringIcNS6_11char_traitsIcEENS6_9allocatorIcEEEERT_, symObjAddr: 0x780B0, symBinAddr: 0x1000796B4, symSize: 0x164 }
  - { offsetInCU: 0x64C8, offset: 0x64C8, size: 0x8, addend: 0x0, symName: '__ZN5Catch5clara6detail12invokeLambdaINSt3__112basic_stringIcNS3_11char_traitsIcEENS3_9allocatorIcEEEEZNS_21makeCommandLineParserERNS_10ConfigDataEE4$_10EENS1_11BasicResultINS1_15ParseResultTypeEEERKT0_RKS9_', symObjAddr: 0x78EC8, symBinAddr: 0x10007A4CC, symSize: 0xD0 }
  - { offsetInCU: 0x6535, offset: 0x6535, size: 0x8, addend: 0x0, symName: '__ZN5Catch5clara6detail12invokeLambdaINSt3__112basic_stringIcNS3_11char_traitsIcEENS3_9allocatorIcEEEEZNS_21makeCommandLineParserERNS_10ConfigDataEE4$_11EENS1_11BasicResultINS1_15ParseResultTypeEEERKT0_RKS9_', symObjAddr: 0x79E24, symBinAddr: 0x10007B428, symSize: 0xD0 }
  - { offsetInCU: 0x65A2, offset: 0x65A2, size: 0x8, addend: 0x0, symName: __ZN5Catch5clara6detail11convertIntoIxEENS1_11BasicResultINS1_15ParseResultTypeEEERKNSt3__112basic_stringIcNS6_11char_traitsIcEENS6_9allocatorIcEEEERT_, symObjAddr: 0x7BA5C, symBinAddr: 0x10007D060, symSize: 0x164 }
  - { offsetInCU: 0x65FE, offset: 0x65FE, size: 0x8, addend: 0x0, symName: __ZN5Catch5clara8TextFlow17isBreakableBeforeEc, symObjAddr: 0x4189C, symBinAddr: 0x100042EA0, symSize: 0xDC }
  - { offsetInCU: 0x6629, offset: 0x6629, size: 0x8, addend: 0x0, symName: __ZZN5Catch5clara8TextFlow17isBreakableBeforeEcE5chars, symObjAddr: 0x1055D0, symBinAddr: 0x100118080, symSize: 0x0 }
  - { offsetInCU: 0x6642, offset: 0x6642, size: 0x8, addend: 0x0, symName: __ZN5Catch5clara8TextFlow16isBreakableAfterEc, symObjAddr: 0x41978, symBinAddr: 0x100042F7C, symSize: 0xDC }
  - { offsetInCU: 0x666D, offset: 0x666D, size: 0x8, addend: 0x0, symName: __ZZN5Catch5clara8TextFlow16isBreakableAfterEcE5chars, symObjAddr: 0x1055F0, symBinAddr: 0x1001180A0, symSize: 0x0 }
  - { offsetInCU: 0x6686, offset: 0x6686, size: 0x8, addend: 0x0, symName: __ZN5Catch5clara8TextFlow12isWhitespaceEc, symObjAddr: 0x417C0, symBinAddr: 0x100042DC4, symSize: 0xDC }
  - { offsetInCU: 0x66B1, offset: 0x66B1, size: 0x8, addend: 0x0, symName: __ZZN5Catch5clara8TextFlow12isWhitespaceEcE5chars, symObjAddr: 0x105610, symBinAddr: 0x1001180C0, symSize: 0x0 }
  - { offsetInCU: 0x6B7A, offset: 0x6B7A, size: 0x8, addend: 0x0, symName: __ZN5Catch5clara8TextFlowlsERNSt3__113basic_ostreamIcNS2_11char_traitsIcEEEERKNS1_6ColumnE, symObjAddr: 0xAFC0, symBinAddr: 0x10000C5C4, symSize: 0xFC }
  - { offsetInCU: 0x6C06, offset: 0x6C06, size: 0x8, addend: 0x0, symName: __ZN5Catch5clara8TextFlowlsERNSt3__113basic_ostreamIcNS2_11char_traitsIcEEEERKNS1_7ColumnsE, symObjAddr: 0xCA8C, symBinAddr: 0x10000E090, symSize: 0x148 }
  - { offsetInCU: 0x73A1, offset: 0x73A1, size: 0x8, addend: 0x0, symName: __ZN5Catch4trimERKNSt3__112basic_stringIcNS0_11char_traitsIcEENS0_9allocatorIcEEEE, symObjAddr: 0x5F10, symBinAddr: 0x100007514, symSize: 0x9C }
  - { offsetInCU: 0x73CC, offset: 0x73CC, size: 0x8, addend: 0x0, symName: __ZZN5Catch4trimERKNSt3__112basic_stringIcNS0_11char_traitsIcEENS0_9allocatorIcEEEEE15whitespaceChars, symObjAddr: 0x1055B0, symBinAddr: 0x100118060, symSize: 0x0 }
  - { offsetInCU: 0x7403, offset: 0x7403, size: 0x8, addend: 0x0, symName: __ZN5Catch27getEstimatedClockResolutionEv, symObjAddr: 0x204C4, symBinAddr: 0x100021AC8, symSize: 0xA8 }
  - { offsetInCU: 0x742E, offset: 0x742E, size: 0x8, addend: 0x0, symName: __ZZN5Catch27getEstimatedClockResolutionEvE12s_resolution, symObjAddr: 0x6DED28, symBinAddr: 0x100118288, symSize: 0x0 }
  - { offsetInCU: 0x744A, offset: 0x744A, size: 0x8, addend: 0x0, symName: __ZN5Catch6Detail17unprintableStringE, symObjAddr: 0x6DEDB8, symBinAddr: 0x100118318, symSize: 0x0 }
  - { offsetInCU: 0x749B, offset: 0x749B, size: 0x8, addend: 0x0, symName: __ZN5Catch6Detail12_GLOBAL__N_119extractInstanceNameENS_9StringRefE, symObjAddr: 0x7D98, symBinAddr: 0x10000939C, symSize: 0xCC }
  - { offsetInCU: 0x78F1, offset: 0x78F1, size: 0x8, addend: 0x0, symName: __ZN5Catch6Detail9stringifyIdEENSt3__112basic_stringIcNS2_11char_traitsIcEENS2_9allocatorIcEEEERKT_, symObjAddr: 0x2E0, symBinAddr: 0x1000018E4, symSize: 0x30 }
  - { offsetInCU: 0x7928, offset: 0x7928, size: 0x8, addend: 0x0, symName: __ZN5Catch6Detail10parseEnumsENS_9StringRefE, symObjAddr: 0x76A8, symBinAddr: 0x100008CAC, symSize: 0x194 }
  - { offsetInCU: 0x79C8, offset: 0x79C8, size: 0x8, addend: 0x0, symName: __ZN5Catch6Detail12makeEnumInfoENS_9StringRefES1_RKNSt3__16vectorIiNS2_9allocatorIiEEEE, symObjAddr: 0x8104, symBinAddr: 0x100009708, symSize: 0x22C }
  - { offsetInCU: 0x7A96, offset: 0x7A96, size: 0x8, addend: 0x0, symName: __ZN5Catch6Detail9stringifyINS_14SourceLineInfoEEENSt3__112basic_stringIcNS3_11char_traitsIcEENS3_9allocatorIcEEEERKT_, symObjAddr: 0xB15C, symBinAddr: 0x10000C760, symSize: 0x2C }
  - { offsetInCU: 0x7ACD, offset: 0x7ACD, size: 0x8, addend: 0x0, symName: __ZN5Catch6Detail9stringifyINSt3__112basic_stringIcNS2_11char_traitsIcEENS2_9allocatorIcEEEEEES8_RKT_, symObjAddr: 0xFEC4, symBinAddr: 0x1000114C8, symSize: 0x2C }
  - { offsetInCU: 0x7B04, offset: 0x7B04, size: 0x8, addend: 0x0, symName: __ZN5Catch6Detail17rawMemoryToStringEPKvm, symObjAddr: 0x20700, symBinAddr: 0x100021D04, symSize: 0x190 }
  - { offsetInCU: 0x7B8D, offset: 0x7B8D, size: 0x8, addend: 0x0, symName: __ZN5Catch6Detail9stringifyINSt3__112basic_stringIwNS2_11char_traitsIwEENS2_9allocatorIwEEEEEENS3_IcNS4_IcEENS6_IcEEEERKT_, symObjAddr: 0x212C8, symBinAddr: 0x1000228CC, symSize: 0x2C }
  - { offsetInCU: 0x7BC4, offset: 0x7BC4, size: 0x8, addend: 0x0, symName: __ZN5Catch6Detail9stringifyIyEENSt3__112basic_stringIcNS2_11char_traitsIcEENS2_9allocatorIcEEEERKT_, symObjAddr: 0x21400, symBinAddr: 0x100022A04, symSize: 0x30 }
  - { offsetInCU: 0x7BFB, offset: 0x7BFB, size: 0x8, addend: 0x0, symName: __ZN5Catch6Detail9stringifyIxEENSt3__112basic_stringIcNS2_11char_traitsIcEENS2_9allocatorIcEEEERKT_, symObjAddr: 0x2147C, symBinAddr: 0x100022A80, symSize: 0x30 }
  - { offsetInCU: 0x7C32, offset: 0x7C32, size: 0x8, addend: 0x0, symName: __ZN5Catch6Detail9stringifyIjEENSt3__112basic_stringIcNS2_11char_traitsIcEENS2_9allocatorIcEEEERKT_, symObjAddr: 0x21934, symBinAddr: 0x100022F38, symSize: 0x30 }
  - { offsetInCU: 0x7C69, offset: 0x7C69, size: 0x8, addend: 0x0, symName: __ZN5Catch6Detail9stringifyIaEENSt3__112basic_stringIcNS2_11char_traitsIcEENS2_9allocatorIcEEEERKT_, symObjAddr: 0x21998, symBinAddr: 0x100022F9C, symSize: 0x30 }
  - { offsetInCU: 0x7CA0, offset: 0x7CA0, size: 0x8, addend: 0x0, symName: __ZN5Catch6Detail9stringifyIcEENSt3__112basic_stringIcNS2_11char_traitsIcEENS2_9allocatorIcEEEERKT_, symObjAddr: 0x219FC, symBinAddr: 0x100023000, symSize: 0x30 }
  - { offsetInCU: 0x7CD7, offset: 0x7CD7, size: 0x8, addend: 0x0, symName: __ZN5Catch6Detail9stringifyIbEENSt3__112basic_stringIcNS2_11char_traitsIcEENS2_9allocatorIcEEEERKT_, symObjAddr: 0x685F8, symBinAddr: 0x100069BFC, symSize: 0x34 }
  - { offsetInCU: 0x7D0E, offset: 0x7D0E, size: 0x8, addend: 0x0, symName: __ZN5Catch6Detail9stringifyIiEENSt3__112basic_stringIcNS2_11char_traitsIcEENS2_9allocatorIcEEEERKT_, symObjAddr: 0x68ACC, symBinAddr: 0x10006A0D0, symSize: 0x30 }
  - { offsetInCU: 0x7D45, offset: 0x7D45, size: 0x8, addend: 0x0, symName: __ZN5Catch6Detail9stringifyIA5_cEENSt3__112basic_stringIcNS3_11char_traitsIcEENS3_9allocatorIcEEEERKT_, symObjAddr: 0x691B8, symBinAddr: 0x10006A7BC, symSize: 0x2C }
  - { offsetInCU: 0x7D83, offset: 0x7D83, size: 0x8, addend: 0x0, symName: __ZN5Catch11StringMakerIfvE9precisionE, symObjAddr: 0x1055B8, symBinAddr: 0x100118068, symSize: 0x0 }
  - { offsetInCU: 0x7DCD, offset: 0x7DCD, size: 0x8, addend: 0x0, symName: __ZN5Catch11StringMakerIdvE9precisionE, symObjAddr: 0x1055BC, symBinAddr: 0x10011806C, symSize: 0x0 }
  - { offsetInCU: 0x7E11, offset: 0x7E11, size: 0x8, addend: 0x0, symName: __ZN5Catch14libraryVersionEv, symObjAddr: 0x168BC, symBinAddr: 0x100017EC0, symSize: 0x88 }
  - { offsetInCU: 0x7E3C, offset: 0x7E3C, size: 0x8, addend: 0x0, symName: __ZZN5Catch14libraryVersionEvE7version, symObjAddr: 0x6DED38, symBinAddr: 0x100118298, symSize: 0x0 }
  - { offsetInCU: 0xAB4F, offset: 0xAB4F, size: 0x8, addend: 0x0, symName: __ZN5Catch12leakDetectorE, symObjAddr: 0x6DEDD0, symBinAddr: 0x100118330, symSize: 0x0 }
  - { offsetInCU: 0xAC1A, offset: 0xAC1A, size: 0x8, addend: 0x0, symName: __ZN5CatchL11altStackMemE, symObjAddr: 0x6DEC98, symBinAddr: 0x1001181F8, symSize: 0x0 }
  - { offsetInCU: 0xAC34, offset: 0xAC34, size: 0x8, addend: 0x0, symName: __ZN5CatchL12altStackSizeE, symObjAddr: 0x6DECA0, symBinAddr: 0x100118200, symSize: 0x0 }
  - { offsetInCU: 0xAC4E, offset: 0xAC4E, size: 0x8, addend: 0x0, symName: __ZN5CatchL11oldSigStackE, symObjAddr: 0x6DECA8, symBinAddr: 0x100118208, symSize: 0x0 }
  - { offsetInCU: 0xAC68, offset: 0xAC68, size: 0x8, addend: 0x0, symName: __ZN5CatchL10signalDefsE, symObjAddr: 0x105550, symBinAddr: 0x100118000, symSize: 0x0 }
  - { offsetInCU: 0xACA7, offset: 0xACA7, size: 0x8, addend: 0x0, symName: __ZN5CatchL13oldSigActionsE, symObjAddr: 0x6DECC0, symBinAddr: 0x100118220, symSize: 0x0 }
  - { offsetInCU: 0xB7AA, offset: 0xB7AA, size: 0x8, addend: 0x0, symName: __ZN5Catch14getLineOfCharsILc45EEEPKcv, symObjAddr: 0x27C9C, symBinAddr: 0x1000292A0, symSize: 0x58 }
  - { offsetInCU: 0xB7D5, offset: 0xB7D5, size: 0x8, addend: 0x0, symName: __ZZN5Catch14getLineOfCharsILc45EEEPKcvE4line, symObjAddr: 0x105638, symBinAddr: 0x1001180E8, symSize: 0x0 }
  - { offsetInCU: 0xB7E9, offset: 0xB7E9, size: 0x8, addend: 0x0, symName: __ZN5Catch14getLineOfCharsILc126EEEPKcv, symObjAddr: 0x278B4, symBinAddr: 0x100028EB8, symSize: 0x58 }
  - { offsetInCU: 0xB814, offset: 0xB814, size: 0x8, addend: 0x0, symName: __ZZN5Catch14getLineOfCharsILc126EEEPKcvE4line, symObjAddr: 0x105688, symBinAddr: 0x100118138, symSize: 0x0 }
  - { offsetInCU: 0xB829, offset: 0xB829, size: 0x8, addend: 0x0, symName: __ZN5Catch14getLineOfCharsILc46EEEPKcv, symObjAddr: 0x27CF4, symBinAddr: 0x1000292F8, symSize: 0x58 }
  - { offsetInCU: 0xB854, offset: 0xB854, size: 0x8, addend: 0x0, symName: __ZZN5Catch14getLineOfCharsILc46EEEPKcvE4line, symObjAddr: 0x1056D8, symBinAddr: 0x100118188, symSize: 0x0 }
  - { offsetInCU: 0xBFAC, offset: 0xBFAC, size: 0x8, addend: 0x0, symName: __ZN5Catch16TestCaseTrackingeqERKNS0_15NameAndLocationES3_, symObjAddr: 0x4A454, symBinAddr: 0x10004BA58, symSize: 0x60 }
  - { offsetInCU: 0xCBAA, offset: 0xCBAA, size: 0x8, addend: 0x0, symName: __ZN5Catch8Matchers6EqualsERKNSt3__112basic_stringIcNS1_11char_traitsIcEENS1_9allocatorIcEEEENS_13CaseSensitive6ChoiceE, symObjAddr: 0x12EC, symBinAddr: 0x1000028F0, symSize: 0x74 }
  - { offsetInCU: 0xCBE7, offset: 0xCBE7, size: 0x8, addend: 0x0, symName: __ZN5Catch8Matchers7MessageERKNSt3__112basic_stringIcNS1_11char_traitsIcEENS1_9allocatorIcEEEE, symObjAddr: 0xD4C8, symBinAddr: 0x10000EACC, symSize: 0x38 }
  - { offsetInCU: 0xCC15, offset: 0xCC15, size: 0x8, addend: 0x0, symName: __ZN5Catch8Matchers9WithinULPEdy, symObjAddr: 0xEB30, symBinAddr: 0x100010134, symSize: 0x44 }
  - { offsetInCU: 0xCC52, offset: 0xCC52, size: 0x8, addend: 0x0, symName: __ZN5Catch8Matchers9WithinULPEfy, symObjAddr: 0xEB74, symBinAddr: 0x100010178, symSize: 0x48 }
  - { offsetInCU: 0xCC8F, offset: 0xCC8F, size: 0x8, addend: 0x0, symName: __ZN5Catch8Matchers9WithinAbsEdd, symObjAddr: 0xEBBC, symBinAddr: 0x1000101C0, symSize: 0x38 }
  - { offsetInCU: 0xCCCC, offset: 0xCCCC, size: 0x8, addend: 0x0, symName: __ZN5Catch8Matchers9WithinRelEdd, symObjAddr: 0xEBF4, symBinAddr: 0x1000101F8, symSize: 0x38 }
  - { offsetInCU: 0xCD09, offset: 0xCD09, size: 0x8, addend: 0x0, symName: __ZN5Catch8Matchers9WithinRelEd, symObjAddr: 0xEC2C, symBinAddr: 0x100010230, symSize: 0x4C }
  - { offsetInCU: 0xCD37, offset: 0xCD37, size: 0x8, addend: 0x0, symName: __ZN5Catch8Matchers9WithinRelEff, symObjAddr: 0xEC8C, symBinAddr: 0x100010290, symSize: 0x40 }
  - { offsetInCU: 0xCD74, offset: 0xCD74, size: 0x8, addend: 0x0, symName: __ZN5Catch8Matchers9WithinRelEf, symObjAddr: 0xECCC, symBinAddr: 0x1000102D0, symSize: 0x54 }
  - { offsetInCU: 0xCDAC, offset: 0xCDAC, size: 0x8, addend: 0x0, symName: __ZN5Catch8Matchers7Generic6Detail19finalizeDescriptionERKNSt3__112basic_stringIcNS3_11char_traitsIcEENS3_9allocatorIcEEEE, symObjAddr: 0xED20, symBinAddr: 0x100010324, symSize: 0xA0 }
  - { offsetInCU: 0xCDDC, offset: 0xCDDC, size: 0x8, addend: 0x0, symName: __ZN5Catch8Matchers8ContainsERKNSt3__112basic_stringIcNS1_11char_traitsIcEENS1_9allocatorIcEEEENS_13CaseSensitive6ChoiceE, symObjAddr: 0xFEF0, symBinAddr: 0x1000114F4, symSize: 0x74 }
  - { offsetInCU: 0xCE19, offset: 0xCE19, size: 0x8, addend: 0x0, symName: __ZN5Catch8Matchers8EndsWithERKNSt3__112basic_stringIcNS1_11char_traitsIcEENS1_9allocatorIcEEEENS_13CaseSensitive6ChoiceE, symObjAddr: 0xFF64, symBinAddr: 0x100011568, symSize: 0x74 }
  - { offsetInCU: 0xCE56, offset: 0xCE56, size: 0x8, addend: 0x0, symName: __ZN5Catch8Matchers10StartsWithERKNSt3__112basic_stringIcNS1_11char_traitsIcEENS1_9allocatorIcEEEENS_13CaseSensitive6ChoiceE, symObjAddr: 0xFFD8, symBinAddr: 0x1000115DC, symSize: 0x74 }
  - { offsetInCU: 0xCE93, offset: 0xCE93, size: 0x8, addend: 0x0, symName: __ZN5Catch8Matchers7MatchesERKNSt3__112basic_stringIcNS1_11char_traitsIcEENS1_9allocatorIcEEEENS_13CaseSensitive6ChoiceE, symObjAddr: 0x1004C, symBinAddr: 0x100011650, symSize: 0x50 }
  - { offsetInCU: 0xD047, offset: 0xD047, size: 0x8, addend: 0x0, symName: __ZN5Catch21makeCommandLineParserERNS_10ConfigDataE, symObjAddr: 0x1E80, symBinAddr: 0x100003484, symSize: 0x301C }
  - { offsetInCU: 0xD41B, offset: 0xD41B, size: 0x8, addend: 0x0, symName: __ZN5Catch18throw_domain_errorERKNSt3__112basic_stringIcNS0_11char_traitsIcEENS0_9allocatorIcEEEE, symObjAddr: 0x61C, symBinAddr: 0x100001C20, symSize: 0x50 }
  - { offsetInCU: 0xD44A, offset: 0xD44A, size: 0x8, addend: 0x0, symName: __ZN5Catch8literalsli2_aEe, symObjAddr: 0x8F4, symBinAddr: 0x100001EF8, symSize: 0x38 }
  - { offsetInCU: 0xD478, offset: 0xD478, size: 0x8, addend: 0x0, symName: __ZN5Catch8literalsli2_aEy, symObjAddr: 0x964, symBinAddr: 0x100001F68, symSize: 0x38 }
  - { offsetInCU: 0xD4D2, offset: 0xD4D2, size: 0x8, addend: 0x0, symName: __ZN5CatchlsERNSt3__113basic_ostreamIcNS0_11char_traitsIcEEEERKNS_14LazyExpressionE, symObjAddr: 0xAF8, symBinAddr: 0x1000020FC, symSize: 0xD4 }
  - { offsetInCU: 0xD672, offset: 0xD672, size: 0x8, addend: 0x0, symName: __ZN5Catch16getResultCaptureEv, symObjAddr: 0xD14, symBinAddr: 0x100002318, symSize: 0x108 }
  - { offsetInCU: 0xD6A6, offset: 0xD6A6, size: 0x8, addend: 0x0, symName: __ZN5Catch17getCurrentContextEv, symObjAddr: 0xF38, symBinAddr: 0x10000253C, symSize: 0x14 }
  - { offsetInCU: 0xD6C4, offset: 0xD6C4, size: 0x8, addend: 0x0, symName: __ZN5Catch24translateActiveExceptionEv, symObjAddr: 0x10A0, symBinAddr: 0x1000026A4, symSize: 0x40 }
  - { offsetInCU: 0xD6E2, offset: 0xD6E2, size: 0x8, addend: 0x0, symName: __ZN5Catch24handleExceptionMatchExprERNS_16AssertionHandlerERKNSt3__112basic_stringIcNS2_11char_traitsIcEENS2_9allocatorIcEEEERKNS_9StringRefE, symObjAddr: 0x11CC, symBinAddr: 0x1000027D0, symSize: 0x7C }
  - { offsetInCU: 0xD72A, offset: 0xD72A, size: 0x8, addend: 0x0, symName: __ZN5Catch24handleExceptionMatchExprERNS_16AssertionHandlerERKNS_8Matchers4Impl11MatcherBaseINSt3__112basic_stringIcNS5_11char_traitsIcEENS5_9allocatorIcEEEEEERKNS_9StringRefE, symObjAddr: 0x1248, symBinAddr: 0x10000284C, symSize: 0xA4 }
  - { offsetInCU: 0xD790, offset: 0xD790, size: 0x8, addend: 0x0, symName: __ZN5Catch4isOkENS_9ResultWas6OfTypeE, symObjAddr: 0x16AC, symBinAddr: 0x100002CB0, symSize: 0x20 }
  - { offsetInCU: 0xD7BE, offset: 0xD7BE, size: 0x8, addend: 0x0, symName: __ZN5Catch21shouldSuppressFailureEi, symObjAddr: 0x1724, symBinAddr: 0x100002D28, symSize: 0x20 }
  - { offsetInCU: 0xD7EC, offset: 0xD7EC, size: 0x8, addend: 0x0, symName: __ZN5Catch11isFalseTestEi, symObjAddr: 0x1930, symBinAddr: 0x100002F34, symSize: 0x20 }
  - { offsetInCU: 0xD81A, offset: 0xD81A, size: 0x8, addend: 0x0, symName: __ZN5CatchpLERNSt3__112basic_stringIcNS0_11char_traitsIcEENS0_9allocatorIcEEEERKNS_9StringRefE, symObjAddr: 0x197C, symBinAddr: 0x100002F80, symSize: 0x50 }
  - { offsetInCU: 0xD8F8, offset: 0xD8F8, size: 0x8, addend: 0x0, symName: __ZN5CatchlsERNSt3__113basic_ostreamIcNS0_11char_traitsIcEEEERKNS_14SourceLineInfoE, symObjAddr: 0x58E8, symBinAddr: 0x100006EEC, symSize: 0x48 }
  - { offsetInCU: 0xD956, offset: 0xD956, size: 0x8, addend: 0x0, symName: __ZN5Catch10makeStreamERKNS_9StringRefE, symObjAddr: 0x6778, symBinAddr: 0x100007D7C, symSize: 0x1F4 }
  - { offsetInCU: 0xD984, offset: 0xD984, size: 0x8, addend: 0x0, symName: __ZN5CatchlsERNSt3__113basic_ostreamIcNS0_11char_traitsIcEEEERKNS_6ColourE, symObjAddr: 0x6D74, symBinAddr: 0x100008378, symSize: 0x18 }
  - { offsetInCU: 0xDAE0, offset: 0xDAE0, size: 0x8, addend: 0x0, symName: __ZN5Catch14cleanUpContextEv, symObjAddr: 0x6E28, symBinAddr: 0x10000842C, symSize: 0x50 }
  - { offsetInCU: 0xDAFA, offset: 0xDAFA, size: 0x8, addend: 0x0, symName: __ZN5Catch19writeToDebugConsoleERKNSt3__112basic_stringIcNS0_11char_traitsIcEENS0_9allocatorIcEEEE, symObjAddr: 0x70E4, symBinAddr: 0x1000086E8, symSize: 0x28 }
  - { offsetInCU: 0xDB24, offset: 0xDB24, size: 0x8, addend: 0x0, symName: __ZN5Catch4coutEv, symObjAddr: 0x7158, symBinAddr: 0x10000875C, symSize: 0xC }
  - { offsetInCU: 0xDB42, offset: 0xDB42, size: 0x8, addend: 0x0, symName: __ZN5Catch16isDebuggerActiveEv, symObjAddr: 0x7164, symBinAddr: 0x100008768, symSize: 0x118 }
  - { offsetInCU: 0xDB8E, offset: 0xDB8E, size: 0x8, addend: 0x0, symName: __ZN5Catch4cerrEv, symObjAddr: 0x727C, symBinAddr: 0x100008880, symSize: 0xC }
  - { offsetInCU: 0xDBAC, offset: 0xDBAC, size: 0x8, addend: 0x0, symName: __ZN5Catch29formatReconstructedExpressionERNSt3__113basic_ostreamIcNS0_11char_traitsIcEEEERKNS0_12basic_stringIcS3_NS0_9allocatorIcEEEENS_9StringRefESB_, symObjAddr: 0x7340, symBinAddr: 0x100008944, symSize: 0x10C }
  - { offsetInCU: 0xDC03, offset: 0xDC03, size: 0x8, addend: 0x0, symName: __ZN5CatchlsERNSt3__113basic_ostreamIcNS0_11char_traitsIcEEEERKNS_9StringRefE, symObjAddr: 0x74A0, symBinAddr: 0x100008AA4, symSize: 0x4C }
  - { offsetInCU: 0xDC40, offset: 0xDC40, size: 0x8, addend: 0x0, symName: __ZN5Catch17throw_logic_errorERKNSt3__112basic_stringIcNS0_11char_traitsIcEENS0_9allocatorIcEEEE, symObjAddr: 0x74EC, symBinAddr: 0x100008AF0, symSize: 0x50 }
  - { offsetInCU: 0xDC6A, offset: 0xDC6A, size: 0x8, addend: 0x0, symName: __ZN5Catch15throw_exceptionISt11logic_errorEEvRKT_, symObjAddr: 0x753C, symBinAddr: 0x100008B40, symSize: 0x3C }
  - { offsetInCU: 0xDC9D, offset: 0xDC9D, size: 0x8, addend: 0x0, symName: __ZN5Catch15throw_exceptionISt12domain_errorEEvRKT_, symObjAddr: 0x7578, symBinAddr: 0x100008B7C, symSize: 0x3C }
  - { offsetInCU: 0xDCD0, offset: 0xDCD0, size: 0x8, addend: 0x0, symName: __ZN5Catch19throw_runtime_errorERKNSt3__112basic_stringIcNS0_11char_traitsIcEENS0_9allocatorIcEEEE, symObjAddr: 0x75E8, symBinAddr: 0x100008BEC, symSize: 0x50 }
  - { offsetInCU: 0xDCFA, offset: 0xDCFA, size: 0x8, addend: 0x0, symName: __ZN5Catch15throw_exceptionISt13runtime_errorEEvRKT_, symObjAddr: 0x7638, symBinAddr: 0x100008C3C, symSize: 0x3C }
  - { offsetInCU: 0xDD2D, offset: 0xDD2D, size: 0x8, addend: 0x0, symName: __ZN5Catch14splitStringRefENS_9StringRefEc, symObjAddr: 0x783C, symBinAddr: 0x100008E40, symSize: 0x1D8 }
  - { offsetInCU: 0xDD9E, offset: 0xDD9E, size: 0x8, addend: 0x0, symName: __ZN5Catch4trimENS_9StringRefE, symObjAddr: 0x7C68, symBinAddr: 0x10000926C, symSize: 0x130 }
  - { offsetInCU: 0xDE18, offset: 0xDE18, size: 0x8, addend: 0x0, symName: __ZN5Catchli3_srEPKcm, symObjAddr: 0x80CC, symBinAddr: 0x1000096D0, symSize: 0x38 }
  - { offsetInCU: 0xDF0B, offset: 0xDF0B, size: 0x8, addend: 0x0, symName: __ZN5CatchL12handleSignalEi, symObjAddr: 0x9210, symBinAddr: 0x10000A814, symSize: 0xBC }
  - { offsetInCU: 0xDF93, offset: 0xDF93, size: 0x8, addend: 0x0, symName: __ZN5CatchL29restorePreviousSignalHandlersEv, symObjAddr: 0x92EC, symBinAddr: 0x10000A8F0, symSize: 0x84 }
  - { offsetInCU: 0xE035, offset: 0xE035, size: 0x8, addend: 0x0, symName: __ZN5Catch7cleanUpEv, symObjAddr: 0xA6AC, symBinAddr: 0x10000BCB0, symSize: 0x18 }
  - { offsetInCU: 0xE04F, offset: 0xE04F, size: 0x8, addend: 0x0, symName: __ZN5Catch9listTestsERKNS_6ConfigE, symObjAddr: 0xA6F0, symBinAddr: 0x10000BCF4, symSize: 0x640 }
  - { offsetInCU: 0xE129, offset: 0xE129, size: 0x8, addend: 0x0, symName: __ZN5Catch11filterTestsERKNSt3__16vectorINS_8TestCaseENS0_9allocatorIS2_EEEERKNS_8TestSpecERKNS_7IConfigE, symObjAddr: 0xAD30, symBinAddr: 0x10000C334, symSize: 0x184 }
  - { offsetInCU: 0xE1CC, offset: 0xE1CC, size: 0x8, addend: 0x0, symName: __ZN5Catch21getAllTestCasesSortedERKNS_7IConfigE, symObjAddr: 0xAEB4, symBinAddr: 0x10000C4B8, symSize: 0x3C }
  - { offsetInCU: 0xE1FA, offset: 0xE1FA, size: 0x8, addend: 0x0, symName: __ZN5CatchlsERNSt3__113basic_ostreamIcNS0_11char_traitsIcEEEERKNS_9pluraliseE, symObjAddr: 0xB38C, symBinAddr: 0x10000C990, symSize: 0x70 }
  - { offsetInCU: 0xE27F, offset: 0xE27F, size: 0x8, addend: 0x0, symName: __ZN5Catch18listTestsNamesOnlyERKNS_6ConfigE, symObjAddr: 0xB4B8, symBinAddr: 0x10000CABC, symSize: 0x1F4 }
  - { offsetInCU: 0xE31B, offset: 0xE31B, size: 0x8, addend: 0x0, symName: __ZN5Catch10startsWithERKNSt3__112basic_stringIcNS0_11char_traitsIcEENS0_9allocatorIcEEEEc, symObjAddr: 0xB6AC, symBinAddr: 0x10000CCB0, symSize: 0x64 }
  - { offsetInCU: 0xE358, offset: 0xE358, size: 0x8, addend: 0x0, symName: __ZN5Catch8listTagsERKNS_6ConfigE, symObjAddr: 0xBA60, symBinAddr: 0x10000D064, symSize: 0x648 }
  - { offsetInCU: 0xE4E1, offset: 0xE4E1, size: 0x8, addend: 0x0, symName: __ZN5Catch7toLowerERKNSt3__112basic_stringIcNS0_11char_traitsIcEENS0_9allocatorIcEEEE, symObjAddr: 0xC194, symBinAddr: 0x10000D798, symSize: 0xA0 }
  - { offsetInCU: 0xE51F, offset: 0xE51F, size: 0x8, addend: 0x0, symName: __ZN5Catch13listReportersEv, symObjAddr: 0xC688, symBinAddr: 0x10000DC8C, symSize: 0x2FC }
  - { offsetInCU: 0xE5EE, offset: 0xE5EE, size: 0x8, addend: 0x0, symName: __ZN5Catch14getRegistryHubEv, symObjAddr: 0xC984, symBinAddr: 0x10000DF88, symSize: 0x14 }
  - { offsetInCU: 0xE60C, offset: 0xE60C, size: 0x8, addend: 0x0, symName: __ZN5Catch4listERKNSt3__110shared_ptrINS_6ConfigEEE, symObjAddr: 0xCE18, symBinAddr: 0x10000E41C, symSize: 0x26C }
  - { offsetInCU: 0xE7DE, offset: 0xE7DE, size: 0x8, addend: 0x0, symName: __ZN5Catch24getCurrentMutableContextEv, symObjAddr: 0xD0B0, symBinAddr: 0x10000E6B4, symSize: 0x38 }
  - { offsetInCU: 0xE7FC, offset: 0xE7FC, size: 0x8, addend: 0x0, symName: __ZN5Catch8containsERKNSt3__112basic_stringIcNS0_11char_traitsIcEENS0_9allocatorIcEEEES8_, symObjAddr: 0xF69C, symBinAddr: 0x100010CA0, symSize: 0x3C }
  - { offsetInCU: 0xE839, offset: 0xE839, size: 0x8, addend: 0x0, symName: __ZN5Catch10startsWithERKNSt3__112basic_stringIcNS0_11char_traitsIcEENS0_9allocatorIcEEEES8_, symObjAddr: 0xF854, symBinAddr: 0x100010E58, symSize: 0x98 }
  - { offsetInCU: 0xE876, offset: 0xE876, size: 0x8, addend: 0x0, symName: __ZN5Catch8endsWithERKNSt3__112basic_stringIcNS0_11char_traitsIcEENS0_9allocatorIcEEEES8_, symObjAddr: 0xFA68, symBinAddr: 0x10001106C, symSize: 0xB0 }
  - { offsetInCU: 0xE8B3, offset: 0xE8B3, size: 0x8, addend: 0x0, symName: __ZN5Catch19uncaught_exceptionsEv, symObjAddr: 0x10474, symBinAddr: 0x100011A78, symSize: 0x20 }
  - { offsetInCU: 0xEA67, offset: 0xEA67, size: 0x8, addend: 0x0, symName: __ZN5Catch4clogEv, symObjAddr: 0x113E8, symBinAddr: 0x1000129EC, symSize: 0xC }
  - { offsetInCU: 0xEB4C, offset: 0xEB4C, size: 0x8, addend: 0x0, symName: __ZN5Catch5isnanEf, symObjAddr: 0x1162C, symBinAddr: 0x100012C30, symSize: 0x28 }
  - { offsetInCU: 0xEB7A, offset: 0xEB7A, size: 0x8, addend: 0x0, symName: __ZN5Catch5isnanEd, symObjAddr: 0x11674, symBinAddr: 0x100012C78, symSize: 0x28 }
  - { offsetInCU: 0xEBA8, offset: 0xEBA8, size: 0x8, addend: 0x0, symName: __ZN5CatcheqERKNS_11SimplePcg32ES2_, symObjAddr: 0x118AC, symBinAddr: 0x100012EB0, symSize: 0x30 }
  - { offsetInCU: 0xEBE5, offset: 0xEBE5, size: 0x8, addend: 0x0, symName: __ZN5CatchneERKNS_11SimplePcg32ES2_, symObjAddr: 0x118DC, symBinAddr: 0x100012EE0, symSize: 0x30 }
  - { offsetInCU: 0xEC22, offset: 0xEC22, size: 0x8, addend: 0x0, symName: __ZN5Catch21getMutableRegistryHubEv, symObjAddr: 0x11920, symBinAddr: 0x100012F24, symSize: 0x14 }
  - { offsetInCU: 0xEC40, offset: 0xEC40, size: 0x8, addend: 0x0, symName: __ZN5Catch17cleanupSingletonsEv, symObjAddr: 0x1194C, symBinAddr: 0x100012F50, symSize: 0xE0 }
  - { offsetInCU: 0xECB9, offset: 0xECB9, size: 0x8, addend: 0x0, symName: __ZN5Catch10isJustInfoEi, symObjAddr: 0x11E80, symBinAddr: 0x100013484, symSize: 0x20 }
  - { offsetInCU: 0xECE7, offset: 0xECE7, size: 0x8, addend: 0x0, symName: __ZN5CatchorENS_17ResultDisposition5FlagsES1_, symObjAddr: 0x11EA0, symBinAddr: 0x1000134A4, symSize: 0x20 }
  - { offsetInCU: 0xED24, offset: 0xED24, size: 0x8, addend: 0x0, symName: __ZN5Catch23shouldContinueOnFailureEi, symObjAddr: 0x11EC0, symBinAddr: 0x1000134C4, symSize: 0x20 }
  - { offsetInCU: 0xF463, offset: 0xF463, size: 0x8, addend: 0x0, symName: __ZN5Catch7seedRngERKNS_7IConfigE, symObjAddr: 0x14FA0, symBinAddr: 0x1000165A4, symSize: 0x78 }
  - { offsetInCU: 0xF4C8, offset: 0xF4C8, size: 0x8, addend: 0x0, symName: __ZN5Catch7rngSeedEv, symObjAddr: 0x15AF4, symBinAddr: 0x1000170F8, symSize: 0x30 }
  - { offsetInCU: 0xF57E, offset: 0xF57E, size: 0x8, addend: 0x0, symName: __ZN5CatchlsERNSt3__113basic_ostreamIcNS0_11char_traitsIcEEEERKNS_7VersionE, symObjAddr: 0x16810, symBinAddr: 0x100017E14, symSize: 0xAC }
  - { offsetInCU: 0xF5BB, offset: 0xF5BB, size: 0x8, addend: 0x0, symName: __ZN5Catch12addSingletonEPNS_10ISingletonE, symObjAddr: 0x17D04, symBinAddr: 0x100019308, symSize: 0x34 }
  - { offsetInCU: 0xF5E5, offset: 0xF5E5, size: 0x8, addend: 0x0, symName: __ZN5Catch8endsWithERKNSt3__112basic_stringIcNS0_11char_traitsIcEENS0_9allocatorIcEEEEc, symObjAddr: 0x18808, symBinAddr: 0x100019E0C, symSize: 0x78 }
  - { offsetInCU: 0xF622, offset: 0xF622, size: 0x8, addend: 0x0, symName: __ZN5Catch14toLowerInPlaceERNSt3__112basic_stringIcNS0_11char_traitsIcEENS0_9allocatorIcEEEE, symObjAddr: 0x188F8, symBinAddr: 0x100019EFC, symSize: 0x5C }
  - { offsetInCU: 0xF64C, offset: 0xF64C, size: 0x8, addend: 0x0, symName: __ZN5Catch14replaceInPlaceERNSt3__112basic_stringIcNS0_11char_traitsIcEENS0_9allocatorIcEEEERKS6_S9_, symObjAddr: 0x18D3C, symBinAddr: 0x10001A340, symSize: 0x1F0 }
  - { offsetInCU: 0xF6DE, offset: 0xF6DE, size: 0x8, addend: 0x0, symName: __ZN5Catch12makeTestCaseEPNS_12ITestInvokerERKNSt3__112basic_stringIcNS2_11char_traitsIcEENS2_9allocatorIcEEEERKNS_11NameAndTagsERKNS_14SourceLineInfoE, symObjAddr: 0x19DA8, symBinAddr: 0x10001B3AC, symSize: 0x488 }
  - { offsetInCU: 0xF806, offset: 0xF806, size: 0x8, addend: 0x0, symName: __ZN5Catch7setTagsERNS_12TestCaseInfoENSt3__16vectorINS2_12basic_stringIcNS2_11char_traitsIcEENS2_9allocatorIcEEEENS7_IS9_EEEE, symObjAddr: 0x1A708, symBinAddr: 0x10001BD0C, symSize: 0x1D0 }
  - { offsetInCU: 0xF899, offset: 0xF899, size: 0x8, addend: 0x0, symName: __ZN5Catch9sortTestsERKNS_7IConfigERKNSt3__16vectorINS_8TestCaseENS3_9allocatorIS5_EEEE, symObjAddr: 0x1B100, symBinAddr: 0x10001C704, symSize: 0x338 }
  - { offsetInCU: 0xF9F5, offset: 0xF9F5, size: 0x8, addend: 0x0, symName: __ZN5Catch11isThrowSafeERKNS_8TestCaseERKNS_7IConfigE, symObjAddr: 0x1BB2C, symBinAddr: 0x10001D130, symSize: 0x58 }
  - { offsetInCU: 0xFA32, offset: 0xFA32, size: 0x8, addend: 0x0, symName: __ZN5Catch9matchTestERKNS_8TestCaseERKNS_8TestSpecERKNS_7IConfigE, symObjAddr: 0x1BB84, symBinAddr: 0x10001D188, symSize: 0x5C }
  - { offsetInCU: 0xFA7E, offset: 0xFA7E, size: 0x8, addend: 0x0, symName: __ZN5Catch27enforceNoDuplicateTestCasesERKNSt3__16vectorINS_8TestCaseENS0_9allocatorIS2_EEEE, symObjAddr: 0x1BC3C, symBinAddr: 0x10001D240, symSize: 0x228 }
  - { offsetInCU: 0xFB8C, offset: 0xFB8C, size: 0x8, addend: 0x0, symName: __ZN5Catch16extractClassNameERKNS_9StringRefE, symObjAddr: 0x1C458, symBinAddr: 0x10001DA5C, symSize: 0x134 }
  - { offsetInCU: 0xFBF6, offset: 0xFBF6, size: 0x8, addend: 0x0, symName: __ZN5Catch15makeTestInvokerEPFvvE, symObjAddr: 0x1DD58, symBinAddr: 0x10001F35C, symSize: 0x88 }
  - { offsetInCU: 0xFC24, offset: 0xFC24, size: 0x8, addend: 0x0, symName: __ZN5Catch13parseTestSpecERKNSt3__112basic_stringIcNS0_11char_traitsIcEENS0_9allocatorIcEEEE, symObjAddr: 0x20370, symBinAddr: 0x100021974, symSize: 0xA0 }
  - { offsetInCU: 0xFC52, offset: 0xFC52, size: 0x8, addend: 0x0, symName: __ZN5Catch31getCurrentNanosecondsSinceEpochEv, symObjAddr: 0x20410, symBinAddr: 0x100021A14, symSize: 0x4C }
  - { offsetInCU: 0xFFCC, offset: 0xFFCC, size: 0x8, addend: 0x0, symName: __ZN5Catch10fpToStringIfEENSt3__112basic_stringIcNS1_11char_traitsIcEENS1_9allocatorIcEEEET_i, symObjAddr: 0x21AE0, symBinAddr: 0x1000230E4, symSize: 0x1F4 }
  - { offsetInCU: 0x10041, offset: 0x10041, size: 0x8, addend: 0x0, symName: __ZN5Catch10fpToStringIdEENSt3__112basic_stringIcNS1_11char_traitsIcEENS1_9allocatorIcEEEET_i, symObjAddr: 0x21D08, symBinAddr: 0x10002330C, symSize: 0x1F4 }
  - { offsetInCU: 0x1018E, offset: 0x1018E, size: 0x8, addend: 0x0, symName: __ZN5CatchorENS_13XmlFormattingES0_, symObjAddr: 0x22410, symBinAddr: 0x100023A14, symSize: 0x20 }
  - { offsetInCU: 0x101CB, offset: 0x101CB, size: 0x8, addend: 0x0, symName: __ZN5CatchanENS_13XmlFormattingES0_, symObjAddr: 0x22430, symBinAddr: 0x100023A34, symSize: 0x20 }
  - { offsetInCU: 0x10208, offset: 0x10208, size: 0x8, addend: 0x0, symName: __ZN5CatchlsERNSt3__113basic_ostreamIcNS0_11char_traitsIcEEEERKNS_9XmlEncodeE, symObjAddr: 0x22D6C, symBinAddr: 0x100024370, symSize: 0x30 }
  - { offsetInCU: 0x10245, offset: 0x10245, size: 0x8, addend: 0x0, symName: __ZN5Catch25prepareExpandedExpressionERNS_15AssertionResultE, symObjAddr: 0x23970, symBinAddr: 0x100024F74, symSize: 0x34 }
  - { offsetInCU: 0x1026F, offset: 0x1026F, size: 0x8, addend: 0x0, symName: __ZN5Catch20getFormattedDurationEd, symObjAddr: 0x239A4, symBinAddr: 0x100024FA8, symSize: 0xC8 }
  - { offsetInCU: 0x102CB, offset: 0x102CB, size: 0x8, addend: 0x0, symName: __ZN5Catch18shouldShowDurationERKNS_7IConfigEd, symObjAddr: 0x23A6C, symBinAddr: 0x100025070, symSize: 0xEC }
  - { offsetInCU: 0x10317, offset: 0x10317, size: 0x8, addend: 0x0, symName: __ZN5Catch16serializeFiltersERKNSt3__16vectorINS0_12basic_stringIcNS0_11char_traitsIcEENS0_9allocatorIcEEEENS5_IS7_EEEE, symObjAddr: 0x23B58, symBinAddr: 0x10002515C, symSize: 0x100 }
  - { offsetInCU: 0x108E7, offset: 0x108E7, size: 0x8, addend: 0x0, symName: __ZN5CatchlsERNS_12TablePrinterENS_12_GLOBAL__N_18RowBreakE, symObjAddr: 0x65BD0, symBinAddr: 0x1000671D4, symSize: 0x58 }
  - { offsetInCU: 0x10C07, offset: 0x10C07, size: 0x8, addend: 0x0, symName: __ZN5Catch12compareEqualIiiEEbRKT_RKT0_, symObjAddr: 0x688C8, symBinAddr: 0x100069ECC, symSize: 0x30 }
  - { offsetInCU: 0x10C56, offset: 0x10C56, size: 0x8, addend: 0x0, symName: __ZN5Catch15compareNotEqualIiRKiEEbRKT_OT0_, symObjAddr: 0x68B28, symBinAddr: 0x10006A12C, symSize: 0x30 }
  - { offsetInCU: 0x10DFD, offset: 0x10DFD, size: 0x8, addend: 0x0, symName: __ZN5Catch12compareEqualINSt3__112basic_stringIcNS1_11char_traitsIcEENS1_9allocatorIcEEEEA5_cEEbRKT_RKT0_, symObjAddr: 0x68FB4, symBinAddr: 0x10006A5B8, symSize: 0x30 }
  - { offsetInCU: 0x10EDF, offset: 0x10EDF, size: 0x8, addend: 0x0, symName: __ZN5Catch6Colour3useENS0_4CodeE, symObjAddr: 0x69D8, symBinAddr: 0x100007FDC, symSize: 0xD8 }
  - { offsetInCU: 0x10F01, offset: 0x10F01, size: 0x8, addend: 0x0, symName: __ZZN5Catch6Colour3useENS0_4CodeEE4impl, symObjAddr: 0x6DEC78, symBinAddr: 0x1001181D8, symSize: 0x0 }
  - { offsetInCU: 0x203D6, offset: 0x203D6, size: 0x8, addend: 0x0, symName: __ZNSt3__16chrono13duration_castB8ue170006INS0_8durationIxNS_5ratioILl1ELl1000000000EEEEExS4_EENS_9enable_ifIXsr13__is_durationIT_EE5valueES7_E4typeERKNS2_IT0_T1_EE, symObjAddr: 0x2045C, symBinAddr: 0x100021A60, symSize: 0x30 }
  - { offsetInCU: 0x5030A, offset: 0x5030A, size: 0x8, addend: 0x0, symName: __ZNSt3__115regex_constantsoRB8ue170006ERNS0_18syntax_option_typeES1_, symObjAddr: 0xFCD0, symBinAddr: 0x1000112D4, symSize: 0x3C }
  - { offsetInCU: 0x50347, offset: 0x50347, size: 0x8, addend: 0x0, symName: __ZNSt3__115regex_constantsorB8ue170006ENS0_18syntax_option_typeES1_, symObjAddr: 0x485C0, symBinAddr: 0x100049BC4, symSize: 0x20 }
  - { offsetInCU: 0x50384, offset: 0x50384, size: 0x8, addend: 0x0, symName: __ZNSt3__115regex_constants13__get_grammarB8ue170006ENS0_18syntax_option_typeE, symObjAddr: 0x8964C, symBinAddr: 0x10008AC50, symSize: 0x18 }
  - { offsetInCU: 0x503B2, offset: 0x503B2, size: 0x8, addend: 0x0, symName: __ZNSt3__115regex_constantsanB8ue170006ENS0_18syntax_option_typeES1_, symObjAddr: 0x8CD40, symBinAddr: 0x10008E344, symSize: 0x20 }
  - { offsetInCU: 0x503EF, offset: 0x503EF, size: 0x8, addend: 0x0, symName: __ZNSt3__115regex_constantsanB8ue170006ENS0_15match_flag_typeES1_, symObjAddr: 0x8CF60, symBinAddr: 0x10008E564, symSize: 0x20 }
  - { offsetInCU: 0x5042C, offset: 0x5042C, size: 0x8, addend: 0x0, symName: __ZNSt3__115regex_constantsorB8ue170006ENS0_15match_flag_typeES1_, symObjAddr: 0x8E528, symBinAddr: 0x10008FB2C, symSize: 0x20 }
  - { offsetInCU: 0x50469, offset: 0x50469, size: 0x8, addend: 0x0, symName: __ZNSt3__115regex_constantscoB8ue170006ENS0_15match_flag_typeE, symObjAddr: 0x8E548, symBinAddr: 0x10008FB4C, symSize: 0x1C }
  - { offsetInCU: 0x50497, offset: 0x50497, size: 0x8, addend: 0x0, symName: __ZNSt3__115regex_constantsaNB8ue170006ERNS0_15match_flag_typeES1_, symObjAddr: 0xA6FDC, symBinAddr: 0x1000A85E0, symSize: 0x3C }
  - { offsetInCU: 0x504D4, offset: 0x504D4, size: 0x8, addend: 0x0, symName: __ZNSt3__115regex_constantsoRB8ue170006ERNS0_15match_flag_typeES1_, symObjAddr: 0xA7190, symBinAddr: 0x1000A8794, symSize: 0x3C }
  - { offsetInCU: 0x65324, offset: 0x65324, size: 0x8, addend: 0x0, symName: __ZNSt3__16copy_nB8ue170006IPKcmPcEENS_9enable_ifIXsr37__has_random_access_iterator_categoryIT_EE5valueET1_E4typeES5_T0_S6_, symObjAddr: 0x45A94, symBinAddr: 0x100047098, symSize: 0x44 }
  - { offsetInCU: 0x6644E, offset: 0x6644E, size: 0x8, addend: 0x0, symName: __ZNSt3__17advanceB8ue170006INS_11__wrap_iterIPN5Catch5clara6detail11HelpColumnsEEEllvEEvRT_T0_, symObjAddr: 0x4F130, symBinAddr: 0x100050734, symSize: 0x38 }
  - { offsetInCU: 0x66E66, offset: 0x66E66, size: 0x8, addend: 0x0, symName: __ZNSt3__17advanceB8ue170006IPNS_12basic_stringIcNS_11char_traitsIcEENS_9allocatorIcEEEEllvEEvRT_T0_, symObjAddr: 0x53BA0, symBinAddr: 0x1000551A4, symSize: 0x38 }
  - { offsetInCU: 0x66ED6, offset: 0x66ED6, size: 0x8, addend: 0x0, symName: __ZNSt3__17advanceB8ue170006IPN5Catch5clara6detail3OptEllvEEvRT_T0_, symObjAddr: 0x549F8, symBinAddr: 0x100055FFC, symSize: 0x38 }
  - { offsetInCU: 0x67283, offset: 0x67283, size: 0x8, addend: 0x0, symName: __ZNSt3__17advanceB8ue170006IPN5Catch5clara6detail3ArgEllvEEvRT_T0_, symObjAddr: 0x56070, symBinAddr: 0x100057674, symSize: 0x38 }
  - { offsetInCU: 0x6923B, offset: 0x6923B, size: 0x8, addend: 0x0, symName: __ZNSt3__17advanceB8ue170006INS_21__tree_const_iteratorIPKN5Catch8TestCaseEPNS_11__tree_nodeIS5_PvEElEEllvEEvRT_T0_, symObjAddr: 0x5BBB8, symBinAddr: 0x10005D1BC, symSize: 0x38 }
  - { offsetInCU: 0x6BE41, offset: 0x6BE41, size: 0x8, addend: 0x0, symName: __ZNSt3__124__put_character_sequenceB8ue170006IcNS_11char_traitsIcEEEERNS_13basic_ostreamIT_T0_EES7_PKS4_m, symObjAddr: 0x6AC28, symBinAddr: 0x10006C22C, symSize: 0x1E0 }
  - { offsetInCU: 0x77923, offset: 0x77923, size: 0x8, addend: 0x0, symName: __ZNSt3__17advanceB8ue170006IPKcllvEEvRT_T0_, symObjAddr: 0x8D004, symBinAddr: 0x10008E608, symSize: 0x38 }
  - { offsetInCU: 0x77993, offset: 0x77993, size: 0x8, addend: 0x0, symName: __ZNSt3__17advanceB8ue170006INS_11__wrap_iterIPKcEEllvEEvRT_T0_, symObjAddr: 0x8D284, symBinAddr: 0x10008E888, symSize: 0x38 }
  - { offsetInCU: 0x8145A, offset: 0x8145A, size: 0x8, addend: 0x0, symName: __ZNSt3__17advanceB8ue170006IPNS_9sub_matchIPKcEEllvEEvRT_T0_, symObjAddr: 0xACD7C, symBinAddr: 0x1000AE380, symSize: 0x38 }
  - { offsetInCU: 0x814CA, offset: 0x814CA, size: 0x8, addend: 0x0, symName: __ZNSt3__17advanceB8ue170006IPNS_4pairImPKcEEllvEEvRT_T0_, symObjAddr: 0xAD330, symBinAddr: 0x1000AE934, symSize: 0x38 }
  - { offsetInCU: 0x88CE8, offset: 0x88CE8, size: 0x8, addend: 0x0, symName: __ZNSt3__17advanceB8ue170006IPKNS_12basic_stringIcNS_11char_traitsIcEENS_9allocatorIcEEEEllvEEvRT_T0_, symObjAddr: 0xC3C1C, symBinAddr: 0x1000C5220, symSize: 0x38 }
  - { offsetInCU: 0x88D57, offset: 0x88D57, size: 0x8, addend: 0x0, symName: __ZNSt3__111__introsortINS_17_ClassicAlgPolicyERNS_6__lessIvvEEPNS_12basic_stringIcNS_11char_traitsIcEENS_9allocatorIcEEEELb0EEEvT1_SC_T0_NS_15iterator_traitsISC_E15difference_typeEb, symObjAddr: 0xC4CB0, symBinAddr: 0x1000C62B4, symSize: 0x470 }
  - { offsetInCU: 0x88E83, offset: 0x88E83, size: 0x8, addend: 0x0, symName: __ZNSt3__126__insertion_sort_unguardedB8ue170006INS_17_ClassicAlgPolicyERNS_6__lessIvvEEPNS_12basic_stringIcNS_11char_traitsIcEENS_9allocatorIcEEEEEEvT1_SC_T0_, symObjAddr: 0xC5410, symBinAddr: 0x1000C6A14, symSize: 0x158 }
  - { offsetInCU: 0x88F5C, offset: 0x88F5C, size: 0x8, addend: 0x0, symName: __ZNSt3__111__sift_downB8ue170006INS_17_ClassicAlgPolicyERNS_6__lessIvvEEPNS_12basic_stringIcNS_11char_traitsIcEENS_9allocatorIcEEEEEEvT1_OT0_NS_15iterator_traitsISC_E15difference_typeESC_, symObjAddr: 0xC67F4, symBinAddr: 0x1000C7DF8, symSize: 0x254 }
  - { offsetInCU: 0x89013, offset: 0x89013, size: 0x8, addend: 0x0, symName: __ZNSt3__117__floyd_sift_downB8ue170006INS_17_ClassicAlgPolicyERNS_6__lessIvvEEPNS_12basic_stringIcNS_11char_traitsIcEENS_9allocatorIcEEEEEET1_SC_OT0_NS_15iterator_traitsISC_E15difference_typeE, symObjAddr: 0xC6C28, symBinAddr: 0x1000C822C, symSize: 0x108 }
  - { offsetInCU: 0x890B2, offset: 0x890B2, size: 0x8, addend: 0x0, symName: __ZNSt3__131__partition_with_equals_on_leftB8ue170006INS_17_ClassicAlgPolicyEPNS_12basic_stringIcNS_11char_traitsIcEENS_9allocatorIcEEEERNS_6__lessIvvEEEET0_SC_SC_T1_, symObjAddr: 0xC5774, symBinAddr: 0x1000C6D78, symSize: 0x250 }
  - { offsetInCU: 0x8916E, offset: 0x8916E, size: 0x8, addend: 0x0, symName: __ZNSt3__118__bitset_partitionB8ue170006INS_17_ClassicAlgPolicyEPNS_12basic_stringIcNS_11char_traitsIcEENS_9allocatorIcEEEERNS_6__lessIvvEEEENS_4pairIT0_bEESD_SD_T1_, symObjAddr: 0xC59C4, symBinAddr: 0x1000C6FC8, symSize: 0x384 }
  - { offsetInCU: 0x8926A, offset: 0x8926A, size: 0x8, addend: 0x0, symName: __ZNSt3__124__swap_bitmap_pos_withinB8ue170006INS_17_ClassicAlgPolicyEPNS_12basic_stringIcNS_11char_traitsIcEENS_9allocatorIcEEEEEEvRT0_SA_RySB_, symObjAddr: 0xC73D0, symBinAddr: 0x1000C89D4, symSize: 0x1E8 }
  - { offsetInCU: 0x89337, offset: 0x89337, size: 0x8, addend: 0x0, symName: __ZNSt3__132__partition_with_equals_on_rightB8ue170006INS_17_ClassicAlgPolicyEPNS_12basic_stringIcNS_11char_traitsIcEENS_9allocatorIcEEEERNS_6__lessIvvEEEENS_4pairIT0_bEESD_SD_T1_, symObjAddr: 0xC5D48, symBinAddr: 0x1000C734C, symSize: 0x260 }
  - { offsetInCU: 0x89402, offset: 0x89402, size: 0x8, addend: 0x0, symName: __ZNSt3__127__insertion_sort_incompleteB8ue170006INS_17_ClassicAlgPolicyERNS_6__lessIvvEEPNS_12basic_stringIcNS_11char_traitsIcEENS_9allocatorIcEEEEEEbT1_SC_T0_, symObjAddr: 0xC5FA8, symBinAddr: 0x1000C75AC, symSize: 0x360 }
  - { offsetInCU: 0x898FD, offset: 0x898FD, size: 0x8, addend: 0x0, symName: __ZNSt3__111__introsortINS_17_ClassicAlgPolicyERNS_6__lessIvvEEPN5Catch8TestCaseELb0EEEvT1_S8_T0_NS_15iterator_traitsIS8_E15difference_typeEb, symObjAddr: 0xC9970, symBinAddr: 0x1000CAF74, symSize: 0x470 }
  - { offsetInCU: 0x89A29, offset: 0x89A29, size: 0x8, addend: 0x0, symName: __ZNSt3__126__insertion_sort_unguardedB8ue170006INS_17_ClassicAlgPolicyERNS_6__lessIvvEEPN5Catch8TestCaseEEEvT1_S8_T0_, symObjAddr: 0xCA0EC, symBinAddr: 0x1000CB6F0, symSize: 0x18C }
  - { offsetInCU: 0x89B02, offset: 0x89B02, size: 0x8, addend: 0x0, symName: __ZNSt3__111__sift_downB8ue170006INS_17_ClassicAlgPolicyERNS_6__lessIvvEEPN5Catch8TestCaseEEEvT1_OT0_NS_15iterator_traitsIS8_E15difference_typeES8_, symObjAddr: 0xCB7C8, symBinAddr: 0x1000CCDCC, symSize: 0x294 }
  - { offsetInCU: 0x89BB9, offset: 0x89BB9, size: 0x8, addend: 0x0, symName: __ZNSt3__117__floyd_sift_downB8ue170006INS_17_ClassicAlgPolicyERNS_6__lessIvvEEPN5Catch8TestCaseEEET1_S8_OT0_NS_15iterator_traitsIS8_E15difference_typeE, symObjAddr: 0xCBC5C, symBinAddr: 0x1000CD260, symSize: 0x108 }
  - { offsetInCU: 0x89C58, offset: 0x89C58, size: 0x8, addend: 0x0, symName: __ZNSt3__131__partition_with_equals_on_leftB8ue170006INS_17_ClassicAlgPolicyEPN5Catch8TestCaseERNS_6__lessIvvEEEET0_S8_S8_T1_, symObjAddr: 0xCA484, symBinAddr: 0x1000CBA88, symSize: 0x2A0 }
  - { offsetInCU: 0x89D15, offset: 0x89D15, size: 0x8, addend: 0x0, symName: __ZNSt3__118__bitset_partitionB8ue170006INS_17_ClassicAlgPolicyEPN5Catch8TestCaseERNS_6__lessIvvEEEENS_4pairIT0_bEES9_S9_T1_, symObjAddr: 0xCA724, symBinAddr: 0x1000CBD28, symSize: 0x38C }
  - { offsetInCU: 0x89E12, offset: 0x89E12, size: 0x8, addend: 0x0, symName: __ZNSt3__124__swap_bitmap_pos_withinB8ue170006INS_17_ClassicAlgPolicyEPN5Catch8TestCaseEEEvRT0_S6_RyS7_, symObjAddr: 0xCC42C, symBinAddr: 0x1000CDA30, symSize: 0x1E8 }
  - { offsetInCU: 0x89EDF, offset: 0x89EDF, size: 0x8, addend: 0x0, symName: __ZNSt3__132__partition_with_equals_on_rightB8ue170006INS_17_ClassicAlgPolicyEPN5Catch8TestCaseERNS_6__lessIvvEEEENS_4pairIT0_bEES9_S9_T1_, symObjAddr: 0xCAAB0, symBinAddr: 0x1000CC0B4, symSize: 0x2B4 }
  - { offsetInCU: 0x89FAC, offset: 0x89FAC, size: 0x8, addend: 0x0, symName: __ZNSt3__127__insertion_sort_incompleteB8ue170006INS_17_ClassicAlgPolicyERNS_6__lessIvvEEPN5Catch8TestCaseEEEbT1_S8_T0_, symObjAddr: 0xCAD64, symBinAddr: 0x1000CC368, symSize: 0x368 }
  - { offsetInCU: 0x8BFF2, offset: 0x8BFF2, size: 0x8, addend: 0x0, symName: '__ZNSt3__111__introsortINS_17_ClassicAlgPolicyERZN5Catch9sortTestsERKNS2_7IConfigERKNS_6vectorINS2_8TestCaseENS_9allocatorIS7_EEEEE4$_15PNS_4pairIyPKS7_EELb0EEEvT1_SK_T0_NS_15iterator_traitsISK_E15difference_typeEb', symObjAddr: 0xCE3E0, symBinAddr: 0x1000CF9E4, symSize: 0x434 }
  - { offsetInCU: 0x8C11E, offset: 0x8C11E, size: 0x8, addend: 0x0, symName: '__ZNSt3__126__insertion_sort_unguardedB8ue170006INS_17_ClassicAlgPolicyERZN5Catch9sortTestsERKNS2_7IConfigERKNS_6vectorINS2_8TestCaseENS_9allocatorIS7_EEEEE4$_15PNS_4pairIyPKS7_EEEEvT1_SK_T0_', symObjAddr: 0xCEB14, symBinAddr: 0x1000D0118, symSize: 0x120 }
  - { offsetInCU: 0x8C20F, offset: 0x8C20F, size: 0x8, addend: 0x0, symName: '__ZNSt3__111__sift_downB8ue170006INS_17_ClassicAlgPolicyERZN5Catch9sortTestsERKNS2_7IConfigERKNS_6vectorINS2_8TestCaseENS_9allocatorIS7_EEEEE4$_15PNS_4pairIyPKS7_EEEEvT1_OT0_NS_15iterator_traitsISK_E15difference_typeESK_', symObjAddr: 0xCFDBC, symBinAddr: 0x1000D13C0, symSize: 0x20C }
  - { offsetInCU: 0x8C2C6, offset: 0x8C2C6, size: 0x8, addend: 0x0, symName: '__ZNSt3__117__floyd_sift_downB8ue170006INS_17_ClassicAlgPolicyERZN5Catch9sortTestsERKNS2_7IConfigERKNS_6vectorINS2_8TestCaseENS_9allocatorIS7_EEEEE4$_15PNS_4pairIyPKS7_EEEET1_SK_OT0_NS_15iterator_traitsISK_E15difference_typeE', symObjAddr: 0xD0164, symBinAddr: 0x1000D1768, symSize: 0x100 }
  - { offsetInCU: 0x8C365, offset: 0x8C365, size: 0x8, addend: 0x0, symName: '__ZNSt3__131__partition_with_equals_on_leftB8ue170006INS_17_ClassicAlgPolicyEPNS_4pairIyPKN5Catch8TestCaseEEERZNS3_9sortTestsERKNS3_7IConfigERKNS_6vectorIS4_NS_9allocatorIS4_EEEEE4$_15EET0_SK_SK_T1_', symObjAddr: 0xCEE40, symBinAddr: 0x1000D0444, symSize: 0x20C }
  - { offsetInCU: 0x8C420, offset: 0x8C420, size: 0x8, addend: 0x0, symName: '__ZNSt3__118__bitset_partitionB8ue170006INS_17_ClassicAlgPolicyEPNS_4pairIyPKN5Catch8TestCaseEEERZNS3_9sortTestsERKNS3_7IConfigERKNS_6vectorIS4_NS_9allocatorIS4_EEEEE4$_15EENS2_IT0_bEESK_SK_T1_', symObjAddr: 0xCF04C, symBinAddr: 0x1000D0650, symSize: 0x32C }
  - { offsetInCU: 0x8C51C, offset: 0x8C51C, size: 0x8, addend: 0x0, symName: __ZNSt3__124__swap_bitmap_pos_withinB8ue170006INS_17_ClassicAlgPolicyEPNS_4pairIyPKN5Catch8TestCaseEEEEEvRT0_SA_RySB_, symObjAddr: 0xD08B0, symBinAddr: 0x1000D1EB4, symSize: 0x1E0 }
  - { offsetInCU: 0x8C5E9, offset: 0x8C5E9, size: 0x8, addend: 0x0, symName: '__ZNSt3__132__partition_with_equals_on_rightB8ue170006INS_17_ClassicAlgPolicyEPNS_4pairIyPKN5Catch8TestCaseEEERZNS3_9sortTestsERKNS3_7IConfigERKNS_6vectorIS4_NS_9allocatorIS4_EEEEE4$_15EENS2_IT0_bEESK_SK_T1_', symObjAddr: 0xCF378, symBinAddr: 0x1000D097C, symSize: 0x224 }
  - { offsetInCU: 0x8C6B3, offset: 0x8C6B3, size: 0x8, addend: 0x0, symName: '__ZNSt3__127__insertion_sort_incompleteB8ue170006INS_17_ClassicAlgPolicyERZN5Catch9sortTestsERKNS2_7IConfigERKNS_6vectorINS2_8TestCaseENS_9allocatorIS7_EEEEE4$_15PNS_4pairIyPKS7_EEEEbT1_SK_T0_', symObjAddr: 0xCF59C, symBinAddr: 0x1000D0BA0, symSize: 0x304 }
  - { offsetInCU: 0x8EED8, offset: 0x8EED8, size: 0x8, addend: 0x0, symName: __ZNSt3__17advanceB8ue170006INS_11__wrap_iterIPKNS_12basic_stringIcNS_11char_traitsIcEENS_9allocatorIcEEEEEEllvEEvRT_T0_, symObjAddr: 0xD608C, symBinAddr: 0x1000D7690, symSize: 0x38 }
  - { offsetInCU: 0x90894, offset: 0x90894, size: 0x8, addend: 0x0, symName: __ZNSt3__17advanceB8ue170006INS_21__tree_const_iteratorIN5Catch9VerbosityEPNS_11__tree_nodeIS3_PvEElEEllvEEvRT_T0_, symObjAddr: 0xDF294, symBinAddr: 0x1000E0898, symSize: 0x38 }
  - { offsetInCU: 0x9A07D, offset: 0x9A07D, size: 0x8, addend: 0x0, symName: __ZNSt3__1lsB8ue170006INS_11char_traitsIcEEEERNS_13basic_ostreamIcT_EES6_PKc, symObjAddr: 0xBCC, symBinAddr: 0x1000021D0, symSize: 0x48 }
  - { offsetInCU: 0x9A0C3, offset: 0x9A0C3, size: 0x8, addend: 0x0, symName: __ZNSt3__1neB8ue170006IcNS_11char_traitsIcEENS_9allocatorIcEEEEbRKNS_12basic_stringIT_T0_T1_EESB_, symObjAddr: 0x1CBC, symBinAddr: 0x1000032C0, symSize: 0x34 }
  - { offsetInCU: 0x9A11B, offset: 0x9A11B, size: 0x8, addend: 0x0, symName: __ZNSt3__1lsB8ue170006INS_11char_traitsIcEEEERNS_13basic_ostreamIcT_EES6_c, symObjAddr: 0x5930, symBinAddr: 0x100006F34, symSize: 0x34 }
  - { offsetInCU: 0x9A162, offset: 0x9A162, size: 0x8, addend: 0x0, symName: __ZNSt3__1neB8ue170006IPNS_12basic_stringIcNS_11char_traitsIcEENS_9allocatorIcEEEEEEbRKNS_11__wrap_iterIT_EESC_, symObjAddr: 0x5EC4, symBinAddr: 0x1000074C8, symSize: 0x34 }
  - { offsetInCU: 0x9A1C6, offset: 0x9A1C6, size: 0x8, addend: 0x0, symName: __ZNSt3__1lsB8ue170006IcNS_11char_traitsIcEENS_9allocatorIcEEEERNS_13basic_ostreamIT_T0_EES9_RKNS_12basic_stringIS6_S7_T1_EE, symObjAddr: 0x710C, symBinAddr: 0x100008710, symSize: 0x4C }
  - { offsetInCU: 0x9A21E, offset: 0x9A21E, size: 0x8, addend: 0x0, symName: __ZNSt3__14endlB8ue170006IcNS_11char_traitsIcEEEERNS_13basic_ostreamIT_T0_EES7_, symObjAddr: 0x72B4, symBinAddr: 0x1000088B8, symSize: 0x58 }
  - { offsetInCU: 0x9A25F, offset: 0x9A25F, size: 0x8, addend: 0x0, symName: __ZNSt3__1neB8ue170006IPN5Catch9StringRefEEEbRKNS_11__wrap_iterIT_EES8_, symObjAddr: 0x7BB0, symBinAddr: 0x1000091B4, symSize: 0x34 }
  - { offsetInCU: 0x9A2A5, offset: 0x9A2A5, size: 0x8, addend: 0x0, symName: __ZNSt3__1neB8ue170006IPKNS_4pairIiN5Catch9StringRefEEEEEbRKNS_11__wrap_iterIT_EESB_, symObjAddr: 0x8060, symBinAddr: 0x100009664, symSize: 0x34 }
  - { offsetInCU: 0x9A2EB, offset: 0x9A2EB, size: 0x8, addend: 0x0, symName: __ZNSt3__1neB8ue170006IPKiEEbRKNS_11__wrap_iterIT_EES7_, symObjAddr: 0x8528, symBinAddr: 0x100009B2C, symSize: 0x34 }
  - { offsetInCU: 0x9A331, offset: 0x9A331, size: 0x8, addend: 0x0, symName: __ZNSt3__13maxB8ue170006ImEERKT_S3_S3_, symObjAddr: 0x9074, symBinAddr: 0x10000A678, symSize: 0x2C }
  - { offsetInCU: 0x9A377, offset: 0x9A377, size: 0x8, addend: 0x0, symName: __ZNSt3__1neB8ue170006IPN5Catch8TestCaseEEEbRKNS_11__wrap_iterIT_EES8_, symObjAddr: 0xAF50, symBinAddr: 0x10000C554, symSize: 0x34 }
  - { offsetInCU: 0x9A3BC, offset: 0x9A3BC, size: 0x8, addend: 0x0, symName: __ZNSt3__1neB8ue170006ERKNS_21__tree_const_iteratorINS_12basic_stringIcNS_11char_traitsIcEENS_9allocatorIcEEEEPNS_11__tree_nodeIS6_PvEElEESD_, symObjAddr: 0xB9A0, symBinAddr: 0x10000CFA4, symSize: 0x34 }
  - { offsetInCU: 0x9A3FA, offset: 0x9A3FA, size: 0x8, addend: 0x0, symName: __ZNSt3__1neB8ue170006IPKNS_12basic_stringIcNS_11char_traitsIcEENS_9allocatorIcEEEEEEbRKNS_11__wrap_iterIT_EESD_, symObjAddr: 0xC148, symBinAddr: 0x10000D74C, symSize: 0x34 }
  - { offsetInCU: 0x9A43F, offset: 0x9A43F, size: 0x8, addend: 0x0, symName: __ZNSt3__1eqB8ue170006ERKNS_14__map_iteratorINS_15__tree_iteratorINS_12__value_typeINS_12basic_stringIcNS_11char_traitsIcEENS_9allocatorIcEEEEN5Catch7TagInfoEEEPNS_11__tree_nodeISB_PvEElEEEESJ_, symObjAddr: 0xC274, symBinAddr: 0x10000D878, symSize: 0x30 }
  - { offsetInCU: 0x9A562, offset: 0x9A562, size: 0x8, addend: 0x0, symName: __ZNSt3__19make_pairB8ue170006IRNS_12basic_stringIcNS_11char_traitsIcEENS_9allocatorIcEEEEN5Catch7TagInfoEEENS_4pairINS_18__unwrap_ref_decayIT_E4typeENSB_IT0_E4typeEEEOSC_OSF_, symObjAddr: 0xC328, symBinAddr: 0x10000D92C, symSize: 0x40 }
  - { offsetInCU: 0x9A5B1, offset: 0x9A5B1, size: 0x8, addend: 0x0, symName: __ZNSt3__1neB8ue170006ERKNS_14__map_iteratorINS_15__tree_iteratorINS_12__value_typeINS_12basic_stringIcNS_11char_traitsIcEENS_9allocatorIcEEEEN5Catch7TagInfoEEEPNS_11__tree_nodeISB_PvEElEEEESJ_, symObjAddr: 0xC470, symBinAddr: 0x10000DA74, symSize: 0x30 }
  - { offsetInCU: 0x9A5EE, offset: 0x9A5EE, size: 0x8, addend: 0x0, symName: __ZNSt3__14setwB8ue170006Ei, symObjAddr: 0xC500, symBinAddr: 0x10000DB04, symSize: 0x2C }
  - { offsetInCU: 0x9A61C, offset: 0x9A61C, size: 0x8, addend: 0x0, symName: __ZNSt3__1neB8ue170006ERKNS_20__map_const_iteratorINS_21__tree_const_iteratorINS_12__value_typeINS_12basic_stringIcNS_11char_traitsIcEENS_9allocatorIcEEEENS_10shared_ptrIN5Catch16IReporterFactoryEEEEEPNS_11__tree_nodeISD_PvEElEEEESL_, symObjAddr: 0xCA08, symBinAddr: 0x10000E00C, symSize: 0x30 }
  - { offsetInCU: 0x9A659, offset: 0x9A659, size: 0x8, addend: 0x0, symName: __ZNSt3__1plB8ue170006IcNS_11char_traitsIcEENS_9allocatorIcEEEENS_12basic_stringIT_T0_T1_EERKS9_PKS6_, symObjAddr: 0xCBD4, symBinAddr: 0x10000E1D8, symSize: 0x11C }
  - { offsetInCU: 0x9A6FA, offset: 0x9A6FA, size: 0x8, addend: 0x0, symName: __ZNSt3__1eqB8ue170006IcNS_11char_traitsIcEENS_9allocatorIcEEEEbPKT_RKNS_12basic_stringIS5_T0_T1_EE, symObjAddr: 0xD33C, symBinAddr: 0x10000E940, symSize: 0xAC }
  - { offsetInCU: 0x9A761, offset: 0x9A761, size: 0x8, addend: 0x0, symName: __ZNSt3__1plB8ue170006IcNS_11char_traitsIcEENS_9allocatorIcEEEENS_12basic_stringIT_T0_T1_EEOS9_PKS6_, symObjAddr: 0xD488, symBinAddr: 0x10000EA8C, symSize: 0x40 }
  - { offsetInCU: 0x9A7B9, offset: 0x9A7B9, size: 0x8, addend: 0x0, symName: __ZNSt3__1plB8ue170006IcNS_11char_traitsIcEENS_9allocatorIcEEEENS_12basic_stringIT_T0_T1_EEOS9_SA_, symObjAddr: 0xD9A0, symBinAddr: 0x10000EFA4, symSize: 0x40 }
  - { offsetInCU: 0x9A811, offset: 0x9A811, size: 0x8, addend: 0x0, symName: __ZNSt3__1plB8ue170006IcNS_11char_traitsIcEENS_9allocatorIcEEEENS_12basic_stringIT_T0_T1_EEPKS6_OS9_, symObjAddr: 0xD9E0, symBinAddr: 0x10000EFE4, symSize: 0x44 }
  - { offsetInCU: 0x9B1E7, offset: 0x9B1E7, size: 0x8, addend: 0x0, symName: __ZNSt3__13maxB8ue170006IdEERKT_S3_S3_, symObjAddr: 0xE8DC, symBinAddr: 0x10000FEE0, symSize: 0x2C }
  - { offsetInCU: 0x9B22C, offset: 0x9B22C, size: 0x8, addend: 0x0, symName: __ZNSt3__1plB8ue170006IcNS_11char_traitsIcEENS_9allocatorIcEEEENS_12basic_stringIT_T0_T1_EEOS9_S6_, symObjAddr: 0xEDC0, symBinAddr: 0x1000103C4, symSize: 0x40 }
  - { offsetInCU: 0x9B284, offset: 0x9B284, size: 0x8, addend: 0x0, symName: __ZNSt3__1eqB8ue170006INS_9allocatorIcEEEEbRKNS_12basic_stringIcNS_11char_traitsIcEET_EES9_, symObjAddr: 0xF3D8, symBinAddr: 0x1000109DC, symSize: 0x148 }
  - { offsetInCU: 0x9B2F7, offset: 0x9B2F7, size: 0x8, addend: 0x0, symName: __ZNSt3__111regex_matchB8ue170006INS_11char_traitsIcEENS_9allocatorIcEEcNS_12regex_traitsIcEEEEbRKNS_12basic_stringIT1_T_T0_EERKNS_11basic_regexIS8_T2_EENS_15regex_constants15match_flag_typeE, symObjAddr: 0xFD48, symBinAddr: 0x10001134C, symSize: 0x54 }
  - { offsetInCU: 0x9B544, offset: 0x9B544, size: 0x8, addend: 0x0, symName: __ZNSt3__1eqB8ue170006ERKNS_20__map_const_iteratorINS_21__tree_const_iteratorINS_12__value_typeINS_12basic_stringIcNS_11char_traitsIcEENS_9allocatorIcEEEENS_10shared_ptrIN5Catch16IReporterFactoryEEEEEPNS_11__tree_nodeISD_PvEElEEEESL_, symObjAddr: 0x11C64, symBinAddr: 0x100013268, symSize: 0x30 }
  - { offsetInCU: 0x9B582, offset: 0x9B582, size: 0x8, addend: 0x0, symName: __ZNSt3__16removeB8ue170006INS_11__wrap_iterIPN5Catch11MessageInfoEEES3_EET_S6_S6_RKT0_, symObjAddr: 0x14744, symBinAddr: 0x100015D48, symSize: 0xF4 }
  - { offsetInCU: 0x9B5FD, offset: 0x9B5FD, size: 0x8, addend: 0x0, symName: __ZNSt3__1neB8ue170006INS_11__wrap_iterIPN5Catch14SectionEndInfoEEES5_EEbRKNS_16reverse_iteratorIT_EERKNS6_IT0_EE, symObjAddr: 0x15244, symBinAddr: 0x100016848, symSize: 0x54 }
  - { offsetInCU: 0x9B64C, offset: 0x9B64C, size: 0x8, addend: 0x0, symName: __ZNSt3__1neB8ue170006IPKSt13exception_ptrEEbRKNS_11__wrap_iterIT_EES8_, symObjAddr: 0x1655C, symBinAddr: 0x100017B60, symSize: 0x34 }
  - { offsetInCU: 0x9B691, offset: 0x9B691, size: 0x8, addend: 0x0, symName: __ZNSt3__1lsB8ue170006IcNS_11char_traitsIcEEEERNS_13basic_ostreamIT_T0_EES7_RKNS_8__iom_t6E, symObjAddr: 0x16A90, symBinAddr: 0x100018094, symSize: 0x40 }
  - { offsetInCU: 0x9B6E0, offset: 0x9B6E0, size: 0x8, addend: 0x0, symName: __ZNSt3__14leftB8ue170006ERNS_8ios_baseE, symObjAddr: 0x16B10, symBinAddr: 0x100018114, symSize: 0x30 }
  - { offsetInCU: 0x9B70E, offset: 0x9B70E, size: 0x8, addend: 0x0, symName: __ZNSt3__111make_sharedB8ue170006IN5Catch6ConfigEJRNS1_10ConfigDataEEvEENS_10shared_ptrIT_EEDpOT0_, symObjAddr: 0x17620, symBinAddr: 0x100018C24, symSize: 0x40 }
  - { offsetInCU: 0x9B754, offset: 0x9B754, size: 0x8, addend: 0x0, symName: __ZNSt3__13minB8ue170006IiEERKT_S3_S3_, symObjAddr: 0x178D4, symBinAddr: 0x100018ED8, symSize: 0x2C }
  - { offsetInCU: 0x9BF5C, offset: 0x9BF5C, size: 0x8, addend: 0x0, symName: __ZNSt3__13maxB8ue170006IiEERKT_S3_S3_, symObjAddr: 0x17C3C, symBinAddr: 0x100019240, symSize: 0x2C }
  - { offsetInCU: 0x9BFA2, offset: 0x9BFA2, size: 0x8, addend: 0x0, symName: __ZNSt3__1neB8ue170006IPPN5Catch10ISingletonEEEbRKNS_11__wrap_iterIT_EES9_, symObjAddr: 0x17E5C, symBinAddr: 0x100019460, symSize: 0x34 }
  - { offsetInCU: 0x9CC9B, offset: 0x9CC9B, size: 0x8, addend: 0x0, symName: __ZNSt3__15equalB8ue170006INS_11__wrap_iterIPKcEES4_EEbT_S5_T0_, symObjAddr: 0x185F8, symBinAddr: 0x100019BFC, symSize: 0x50 }
  - { offsetInCU: 0x9CCF9, offset: 0x9CCF9, size: 0x8, addend: 0x0, symName: __ZNSt3__15equalB8ue170006INS_16reverse_iteratorINS_11__wrap_iterIPKcEEEES6_EEbT_S7_T0_, symObjAddr: 0x18718, symBinAddr: 0x100019D1C, symSize: 0x68 }
  - { offsetInCU: 0x9CD57, offset: 0x9CD57, size: 0x8, addend: 0x0, symName: __ZNSt3__19transformB8ue170006INS_11__wrap_iterIPcEES3_PFccEEET0_T_S7_S6_T1_, symObjAddr: 0x18954, symBinAddr: 0x100019F58, symSize: 0x98 }
  - { offsetInCU: 0x9CDCC, offset: 0x9CDCC, size: 0x8, addend: 0x0, symName: __ZNSt3__1plB8ue170006IcNS_11char_traitsIcEENS_9allocatorIcEEEENS_12basic_stringIT_T0_T1_EEOS9_RKS9_, symObjAddr: 0x18F2C, symBinAddr: 0x10001A530, symSize: 0x40 }
  - { offsetInCU: 0x9CE25, offset: 0x9CE25, size: 0x8, addend: 0x0, symName: __ZNSt3__13minB8ue170006ImEERKT_S3_S3_, symObjAddr: 0x191B0, symBinAddr: 0x10001A7B4, symSize: 0x2C }
  - { offsetInCU: 0x9CE6A, offset: 0x9CE6A, size: 0x8, addend: 0x0, symName: __ZNSt3__1neB8ue170006ERKNS_20__map_const_iteratorINS_21__tree_const_iteratorINS_12__value_typeINS_12basic_stringIcNS_11char_traitsIcEENS_9allocatorIcEEEEN5Catch8TagAliasEEEPNS_11__tree_nodeISB_PvEElEEEESJ_, symObjAddr: 0x1957C, symBinAddr: 0x10001AB80, symSize: 0x30 }
  - { offsetInCU: 0x9CF8D, offset: 0x9CF8D, size: 0x8, addend: 0x0, symName: __ZNSt3__19make_pairB8ue170006IRKNS_12basic_stringIcNS_11char_traitsIcEENS_9allocatorIcEEEEN5Catch8TagAliasEEENS_4pairINS_18__unwrap_ref_decayIT_E4typeENSC_IT0_E4typeEEEOSD_OSG_, symObjAddr: 0x19CF0, symBinAddr: 0x10001B2F4, symSize: 0x40 }
  - { offsetInCU: 0x9CFDC, offset: 0x9CFDC, size: 0x8, addend: 0x0, symName: __ZNSt3__14sortB8ue170006INS_11__wrap_iterIPNS_12basic_stringIcNS_11char_traitsIcEENS_9allocatorIcEEEEEEEEvT_SA_, symObjAddr: 0x1A8D8, symBinAddr: 0x10001BEDC, symSize: 0x3C }
  - { offsetInCU: 0x9D01F, offset: 0x9D01F, size: 0x8, addend: 0x0, symName: __ZNSt3__15beginB8ue170006INS_6vectorINS_12basic_stringIcNS_11char_traitsIcEENS_9allocatorIcEEEENS5_IS7_EEEEEEDTcldtfp_5beginEERT_, symObjAddr: 0x1A914, symBinAddr: 0x10001BF18, symSize: 0x2C }
  - { offsetInCU: 0x9D056, offset: 0x9D056, size: 0x8, addend: 0x0, symName: __ZNSt3__13endB8ue170006INS_6vectorINS_12basic_stringIcNS_11char_traitsIcEENS_9allocatorIcEEEENS5_IS7_EEEEEEDTcldtfp_3endEERT_, symObjAddr: 0x1A940, symBinAddr: 0x10001BF44, symSize: 0x2C }
  - { offsetInCU: 0x9D08D, offset: 0x9D08D, size: 0x8, addend: 0x0, symName: __ZNSt3__16uniqueB8ue170006INS_11__wrap_iterIPNS_12basic_stringIcNS_11char_traitsIcEENS_9allocatorIcEEEEEEEET_SA_SA_, symObjAddr: 0x1AA4C, symBinAddr: 0x10001C050, symSize: 0x44 }
  - { offsetInCU: 0x9D0D2, offset: 0x9D0D2, size: 0x8, addend: 0x0, symName: __ZNSt3__1ltB8ue170006IcNS_11char_traitsIcEENS_9allocatorIcEEEEbRKNS_12basic_stringIT_T0_T1_EESB_, symObjAddr: 0x1B0C8, symBinAddr: 0x10001C6CC, symSize: 0x38 }
  - { offsetInCU: 0x9D12A, offset: 0x9D12A, size: 0x8, addend: 0x0, symName: __ZNSt3__14sortB8ue170006INS_11__wrap_iterIPN5Catch8TestCaseEEEEEvT_S6_, symObjAddr: 0x1B46C, symBinAddr: 0x10001CA70, symSize: 0x3C }
  - { offsetInCU: 0x9D16D, offset: 0x9D16D, size: 0x8, addend: 0x0, symName: __ZNSt3__1neB8ue170006IPKN5Catch8TestCaseEEEbRKNS_11__wrap_iterIT_EES9_, symObjAddr: 0x1B650, symBinAddr: 0x10001CC54, symSize: 0x34 }
  - { offsetInCU: 0x9D1B2, offset: 0x9D1B2, size: 0x8, addend: 0x0, symName: '__ZNSt3__14sortB8ue170006INS_11__wrap_iterIPNS_4pairIyPKN5Catch8TestCaseEEEEEZNS3_9sortTestsERKNS3_7IConfigERKNS_6vectorIS4_NS_9allocatorIS4_EEEEE4$_15EEvT_SK_T0_', symObjAddr: 0x1B844, symBinAddr: 0x10001CE48, symSize: 0x40 }
  - { offsetInCU: 0x9D20D, offset: 0x9D20D, size: 0x8, addend: 0x0, symName: __ZNSt3__1neB8ue170006IPNS_4pairIyPKN5Catch8TestCaseEEEEEbRKNS_11__wrap_iterIT_EESC_, symObjAddr: 0x1BA20, symBinAddr: 0x10001D024, symSize: 0x34 }
  - { offsetInCU: 0x9DF2D, offset: 0x9DF2D, size: 0x8, addend: 0x0, symName: __ZNSt3__111make_sharedB8ue170006IN5Catch16TestCaseTracking14SectionTrackerEJNS2_15NameAndLocationERNS2_14TrackerContextEDnEvEENS_10shared_ptrIT_EEDpOT0_, symObjAddr: 0x1C6A4, symBinAddr: 0x10001DCA8, symSize: 0x50 }
  - { offsetInCU: 0x9DF9D, offset: 0x9DF9D, size: 0x8, addend: 0x0, symName: '__ZNSt3__17find_ifB8ue170006INS_11__wrap_iterIPNS_10shared_ptrIN5Catch16TestCaseTracking8ITrackerEEEEEZNS4_11TrackerBase9findChildERKNS4_15NameAndLocationEE4$_16EET_SE_SE_T0_', symObjAddr: 0x1CC34, symBinAddr: 0x10001E238, symSize: 0x78 }
  - { offsetInCU: 0x9DFFB, offset: 0x9DFFB, size: 0x8, addend: 0x0, symName: __ZNSt3__1neB8ue170006IPNS_10shared_ptrIN5Catch16TestCaseTracking8ITrackerEEEEEbRKNS_11__wrap_iterIT_EESB_, symObjAddr: 0x1CD0C, symBinAddr: 0x10001E310, symSize: 0x34 }
  - { offsetInCU: 0x9E041, offset: 0x9E041, size: 0x8, addend: 0x0, symName: '__ZNSt3__16all_ofB8ue170006INS_11__wrap_iterIPNS_10shared_ptrIN5Catch16TestCaseTracking8ITrackerEEEEEZNS4_11TrackerBase5closeEvE4$_17EEbT_SB_T0_', symObjAddr: 0x1D22C, symBinAddr: 0x10001E830, symSize: 0x94 }
  - { offsetInCU: 0x9E09E, offset: 0x9E09E, size: 0x8, addend: 0x0, symName: __ZNSt3__1eqB8ue170006IcNS_11char_traitsIcEENS_9allocatorIcEEEEbRKNS_12basic_stringIT_T0_T1_EEPKS6_, symObjAddr: 0x1D778, symBinAddr: 0x10001ED7C, symSize: 0xAC }
  - { offsetInCU: 0x9E106, offset: 0x9E106, size: 0x8, addend: 0x0, symName: __ZNSt3__14findB8ue170006INS_11__wrap_iterIPKNS_12basic_stringIcNS_11char_traitsIcEENS_9allocatorIcEEEEEES7_EET_SB_SB_RKT0_, symObjAddr: 0x1D850, symBinAddr: 0x10001EE54, symSize: 0x78 }
  - { offsetInCU: 0x9E172, offset: 0x9E172, size: 0x8, addend: 0x0, symName: __ZNSt3__119static_pointer_castB8ue170006IN5Catch16TestCaseTracking14SectionTrackerENS2_8ITrackerEEENS_10shared_ptrIT_EERKNS5_IT0_EE, symObjAddr: 0x1D954, symBinAddr: 0x10001EF58, symSize: 0x44 }
  - { offsetInCU: 0x9E1B2, offset: 0x9E1B2, size: 0x8, addend: 0x0, symName: __ZNSt3__111make_sharedB8ue170006IN5Catch16TestCaseTracking14SectionTrackerEJRKNS2_15NameAndLocationERNS2_14TrackerContextEPNS2_8ITrackerEEvEENS_10shared_ptrIT_EEDpOT0_, symObjAddr: 0x1D9E8, symBinAddr: 0x10001EFEC, symSize: 0x50 }
  - { offsetInCU: 0x9E222, offset: 0x9E222, size: 0x8, addend: 0x0, symName: __ZNSt3__15beginB8ue170006INS_6vectorINS_12basic_stringIcNS_11char_traitsIcEENS_9allocatorIcEEEENS5_IS7_EEEEEEDTcldtfp_5beginEERKT_, symObjAddr: 0x1E670, symBinAddr: 0x10001FC74, symSize: 0x2C }
  - { offsetInCU: 0x9E259, offset: 0x9E259, size: 0x8, addend: 0x0, symName: __ZNSt3__13endB8ue170006INS_6vectorINS_12basic_stringIcNS_11char_traitsIcEENS_9allocatorIcEEEENS5_IS7_EEEEEEDTcldtfp_3endEERKT_, symObjAddr: 0x1E69C, symBinAddr: 0x10001FCA0, symSize: 0x2C }
  - { offsetInCU: 0x9E290, offset: 0x9E290, size: 0x8, addend: 0x0, symName: '__ZNSt3__16all_ofB8ue170006INS_11__wrap_iterIPKNS_10shared_ptrIN5Catch8TestSpec7PatternEEEEEZNKS4_6Filter7matchesERKNS3_12TestCaseInfoEE4$_18EEbT_SF_T0_', symObjAddr: 0x1E854, symBinAddr: 0x10001FE58, symSize: 0x98 }
  - { offsetInCU: 0x9E2EE, offset: 0x9E2EE, size: 0x8, addend: 0x0, symName: __ZNSt3__1neB8ue170006IPKNS_10shared_ptrIN5Catch8TestSpec7PatternEEEEEbRKNS_11__wrap_iterIT_EESC_, symObjAddr: 0x1EA54, symBinAddr: 0x100020058, symSize: 0x34 }
  - { offsetInCU: 0x9E334, offset: 0x9E334, size: 0x8, addend: 0x0, symName: '__ZNSt3__16any_ofB8ue170006INS_11__wrap_iterIPKN5Catch8TestSpec6FilterEEEZNKS3_7matchesERKNS2_12TestCaseInfoEE4$_19EEbT_SC_T0_', symObjAddr: 0x1EAE8, symBinAddr: 0x1000200EC, symSize: 0x98 }
  - { offsetInCU: 0x9E392, offset: 0x9E392, size: 0x8, addend: 0x0, symName: '__ZNSt3__19transformB8ue170006INS_11__wrap_iterIPKN5Catch8TestSpec6FilterEEENS1_IPNS3_11FilterMatchEEEZNKS3_15matchesByFilterERKNS_6vectorINS2_8TestCaseENS_9allocatorISC_EEEERKNS2_7IConfigEE4$_20EET0_T_SN_SM_T1_', symObjAddr: 0x1ED40, symBinAddr: 0x100020344, symSize: 0x9C }
  - { offsetInCU: 0x9E407, offset: 0x9E407, size: 0x8, addend: 0x0, symName: __ZNSt3__111make_sharedB8ue170006IN5Catch8TestSpec11NamePatternEJRNS_12basic_stringIcNS_11char_traitsIcEENS_9allocatorIcEEEESA_EvEENS_10shared_ptrIT_EEDpOT0_, symObjAddr: 0x1FFD0, symBinAddr: 0x1000215D4, symSize: 0x48 }
  - { offsetInCU: 0x9E681, offset: 0x9E681, size: 0x8, addend: 0x0, symName: __ZNSt3__111make_sharedB8ue170006IN5Catch8TestSpec15ExcludedPatternEJRNS_10shared_ptrINS2_7PatternEEEEvEENS4_IT_EEDpOT0_, symObjAddr: 0x20078, symBinAddr: 0x10002167C, symSize: 0x40 }
  - { offsetInCU: 0x9E8E6, offset: 0x9E8E6, size: 0x8, addend: 0x0, symName: __ZNSt3__111make_sharedB8ue170006IN5Catch8TestSpec10TagPatternEJRA2_KcRNS_12basic_stringIcNS_11char_traitsIcEENS_9allocatorIcEEEEEvEENS_10shared_ptrIT_EEDpOT0_, symObjAddr: 0x20280, symBinAddr: 0x100021884, symSize: 0x48 }
  - { offsetInCU: 0x9EB60, offset: 0x9EB60, size: 0x8, addend: 0x0, symName: __ZNSt3__111make_sharedB8ue170006IN5Catch8TestSpec10TagPatternEJRNS_12basic_stringIcNS_11char_traitsIcEENS_9allocatorIcEEEESA_EvEENS_10shared_ptrIT_EEDpOT0_, symObjAddr: 0x20328, symBinAddr: 0x10002192C, symSize: 0x48 }
  - { offsetInCU: 0x9EBBB, offset: 0x9EBBB, size: 0x8, addend: 0x0, symName: __ZNSt3__17setfillB8ue170006IcEENS_8__iom_t4IT_EES2_, symObjAddr: 0x20900, symBinAddr: 0x100021F04, symSize: 0x2C }
  - { offsetInCU: 0x9EBF1, offset: 0x9EBF1, size: 0x8, addend: 0x0, symName: __ZNSt3__13hexB8ue170006ERNS_8ios_baseE, symObjAddr: 0x20964, symBinAddr: 0x100021F68, symSize: 0x30 }
  - { offsetInCU: 0x9EC1F, offset: 0x9EC1F, size: 0x8, addend: 0x0, symName: __ZNSt3__1plB8ue170006IcNS_11char_traitsIcEENS_9allocatorIcEEEENS_12basic_stringIT_T0_T1_EES6_RKS9_, symObjAddr: 0x20BB8, symBinAddr: 0x1000221BC, symSize: 0x10C }
  - { offsetInCU: 0x9ECB2, offset: 0x9ECB2, size: 0x8, addend: 0x0, symName: __ZNSt3__1neB8ue170006IPKcEEbRKNS_11__wrap_iterIT_EES7_, symObjAddr: 0x20CC4, symBinAddr: 0x1000222C8, symSize: 0x34 }
  - { offsetInCU: 0x9ECF8, offset: 0x9ECF8, size: 0x8, addend: 0x0, symName: __ZNSt3__1neB8ue170006IPKwEEbRKNS_11__wrap_iterIT_EES7_, symObjAddr: 0x21118, symBinAddr: 0x10002271C, symSize: 0x34 }
  - { offsetInCU: 0x9EDC7, offset: 0x9EDC7, size: 0x8, addend: 0x0, symName: __ZNSt3__1lsB8ue170006INS_11char_traitsIcEEEERNS_13basic_ostreamIcT_EES6_h, symObjAddr: 0x229CC, symBinAddr: 0x100023FD0, symSize: 0x34 }
  - { offsetInCU: 0x9EE0D, offset: 0x9EE0D, size: 0x8, addend: 0x0, symName: __ZNSt3__15flushB8ue170006IcNS_11char_traitsIcEEEERNS_13basic_ostreamIT_T0_EES7_, symObjAddr: 0x2364C, symBinAddr: 0x100024C50, symSize: 0x28 }
  - { offsetInCU: 0x9EE4E, offset: 0x9EE4E, size: 0x8, addend: 0x0, symName: __ZNSt3__1neB8ue170006IPN5Catch11SectionInfoEEEbRKNS_11__wrap_iterIT_EES8_, symObjAddr: 0x27AFC, symBinAddr: 0x100029100, symSize: 0x34 }
  - { offsetInCU: 0x9EE94, offset: 0x9EE94, size: 0x8, addend: 0x0, symName: __ZNSt3__1neB8ue170006IPKN5Catch13SummaryColumnEEEbRKNS_11__wrap_iterIT_EES9_, symObjAddr: 0x2841C, symBinAddr: 0x100029A20, symSize: 0x34 }
  - { offsetInCU: 0x9EED9, offset: 0x9EED9, size: 0x8, addend: 0x0, symName: __ZNSt3__1neB8ue170006IcNS_11char_traitsIcEENS_9allocatorIcEEEEbRKNS_12basic_stringIT_T0_T1_EEPKS6_, symObjAddr: 0x284C8, symBinAddr: 0x100029ACC, symSize: 0x34 }
  - { offsetInCU: 0x9EF32, offset: 0x9EF32, size: 0x8, addend: 0x0, symName: __ZNSt3__1neB8ue170006IPKNS_10shared_ptrIN5Catch22CumulativeReporterBaseINS2_13JunitReporterEE4NodeINS2_13TestCaseStatsENS5_11SectionNodeEEEEEEEbRKNS_11__wrap_iterIT_EESH_, symObjAddr: 0x2A1B4, symBinAddr: 0x10002B7B8, symSize: 0x34 }
  - { offsetInCU: 0x9EF77, offset: 0x9EF77, size: 0x8, addend: 0x0, symName: __ZNSt3__1plB8ue170006IcNS_11char_traitsIcEENS_9allocatorIcEEEENS_12basic_stringIT_T0_T1_EERKS9_S6_, symObjAddr: 0x2ADAC, symBinAddr: 0x10002C3B0, symSize: 0x110 }
  - { offsetInCU: 0x9F00A, offset: 0x9F00A, size: 0x8, addend: 0x0, symName: __ZNSt3__1neB8ue170006IPKNS_10shared_ptrIN5Catch22CumulativeReporterBaseINS2_13JunitReporterEE11SectionNodeEEEEEbRKNS_11__wrap_iterIT_EESE_, symObjAddr: 0x2B0DC, symBinAddr: 0x10002C6E0, symSize: 0x34 }
  - { offsetInCU: 0x9F050, offset: 0x9F050, size: 0x8, addend: 0x0, symName: __ZNSt3__1neB8ue170006IPKN5Catch14AssertionStatsEEEbRKNS_11__wrap_iterIT_EES9_, symObjAddr: 0x2B1A8, symBinAddr: 0x10002C7AC, symSize: 0x34 }
  - { offsetInCU: 0x9F096, offset: 0x9F096, size: 0x8, addend: 0x0, symName: __ZNSt3__1neB8ue170006IPKN5Catch11MessageInfoEEEbRKNS_11__wrap_iterIT_EES9_, symObjAddr: 0x2BA14, symBinAddr: 0x10002D018, symSize: 0x34 }
  - { offsetInCU: 0x9F0DC, offset: 0x9F0DC, size: 0x8, addend: 0x0, symName: __ZNSt3__1neB8ue170006IPNS_10unique_ptrIN5Catch18IStreamingReporterENS_14default_deleteIS3_EEEEEEbRKNS_11__wrap_iterIT_EESC_, symObjAddr: 0x2BF64, symBinAddr: 0x10002D568, symSize: 0x34 }
  - { offsetInCU: 0x9F121, offset: 0x9F121, size: 0x8, addend: 0x0, symName: __ZNSt3__111make_sharedB8ue170006IN5Catch5clara6detail13BoundValueRefINS_12basic_stringIcNS_11char_traitsIcEENS_9allocatorIcEEEEEEJRSA_EvEENS_10shared_ptrIT_EEDpOT0_, symObjAddr: 0x32754, symBinAddr: 0x100033D58, symSize: 0x40 }
  - { offsetInCU: 0x9F386, offset: 0x9F386, size: 0x8, addend: 0x0, symName: __ZNSt3__111make_sharedB8ue170006INS_12basic_stringIcNS_11char_traitsIcEENS_9allocatorIcEEEEJRA13_KcEvEENS_10shared_ptrIT_EEDpOT0_, symObjAddr: 0x328E0, symBinAddr: 0x100033EE4, symSize: 0x40 }
  - { offsetInCU: 0x9F3CB, offset: 0x9F3CB, size: 0x8, addend: 0x0, symName: __ZNSt3__115allocate_sharedB8ue170006INS_12basic_stringIcNS_11char_traitsIcEENS_9allocatorIcEEEENS4_IS6_EEJRA13_KcEvEENS_10shared_ptrIT_EERKT0_DpOT1_, symObjAddr: 0x32AC0, symBinAddr: 0x1000340C4, symSize: 0x98 }
  - { offsetInCU: 0x9F76A, offset: 0x9F76A, size: 0x8, addend: 0x0, symName: __ZNSt3__117__libcpp_allocateB8ue170006Emm, symObjAddr: 0x32EC8, symBinAddr: 0x1000344CC, symSize: 0x60 }
  - { offsetInCU: 0x9F7C4, offset: 0x9F7C4, size: 0x8, addend: 0x0, symName: __ZNSt3__124__is_overaligned_for_newB8ue170006Em, symObjAddr: 0x32F40, symBinAddr: 0x100034544, symSize: 0x20 }
  - { offsetInCU: 0x9F7F2, offset: 0x9F7F2, size: 0x8, addend: 0x0, symName: __ZNSt3__121__libcpp_operator_newB8ue170006IJmSt11align_val_tEEEPvDpT_, symObjAddr: 0x32F60, symBinAddr: 0x100034564, symSize: 0x2C }
  - { offsetInCU: 0x9F842, offset: 0x9F842, size: 0x8, addend: 0x0, symName: __ZNSt3__121__libcpp_operator_newB8ue170006IJmEEEPvDpT_, symObjAddr: 0x32F8C, symBinAddr: 0x100034590, symSize: 0x24 }
  - { offsetInCU: 0x9F8B3, offset: 0x9F8B3, size: 0x8, addend: 0x0, symName: __ZNSt3__119__libcpp_deallocateB8ue170006EPvmm, symObjAddr: 0x333D4, symBinAddr: 0x1000349D8, symSize: 0x60 }
  - { offsetInCU: 0x9F918, offset: 0x9F918, size: 0x8, addend: 0x0, symName: __ZNSt3__127__do_deallocate_handle_sizeB8ue170006IJSt11align_val_tEEEvPvmDpT_, symObjAddr: 0x33434, symBinAddr: 0x100034A38, symSize: 0x30 }
  - { offsetInCU: 0x9F96D, offset: 0x9F96D, size: 0x8, addend: 0x0, symName: __ZNSt3__127__do_deallocate_handle_sizeB8ue170006IJEEEvPvmDpT_, symObjAddr: 0x33464, symBinAddr: 0x100034A68, symSize: 0x28 }
  - { offsetInCU: 0x9F9AC, offset: 0x9F9AC, size: 0x8, addend: 0x0, symName: __ZNSt3__124__libcpp_operator_deleteB8ue170006IJPvSt11align_val_tEEEvDpT_, symObjAddr: 0x3348C, symBinAddr: 0x100034A90, symSize: 0x2C }
  - { offsetInCU: 0x9F9F8, offset: 0x9F9F8, size: 0x8, addend: 0x0, symName: __ZNSt3__124__libcpp_operator_deleteB8ue170006IJPvEEEvDpT_, symObjAddr: 0x334B8, symBinAddr: 0x100034ABC, symSize: 0x24 }
  - { offsetInCU: 0x9FA30, offset: 0x9FA30, size: 0x8, addend: 0x0, symName: __ZNSt3__134__libcpp_atomic_refcount_decrementB8ue170006IlEET_RS1_, symObjAddr: 0x3366C, symBinAddr: 0x100034C70, symSize: 0x30 }
  - { offsetInCU: 0x9FA67, offset: 0x9FA67, size: 0x8, addend: 0x0, symName: __ZNSt3__122__make_exception_guardB8ue170006INS_6vectorIN5Catch5clara6detail5TokenENS_9allocatorIS5_EEE16__destroy_vectorEEENS_28__exception_guard_exceptionsIT_EESB_, symObjAddr: 0x34170, symBinAddr: 0x100035774, symSize: 0x40 }
  - { offsetInCU: 0x9FA9E, offset: 0x9FA9E, size: 0x8, addend: 0x0, symName: __ZNSt3__119__allocate_at_leastB8ue170006INS_9allocatorIN5Catch5clara6detail5TokenEEEEENS_19__allocation_resultINS_16allocator_traitsIT_E7pointerEEERS9_m, symObjAddr: 0x34458, symBinAddr: 0x100035A5C, symSize: 0x40 }
  - { offsetInCU: 0x9FCCD, offset: 0x9FCCD, size: 0x8, addend: 0x0, symName: __ZNSt3__120__throw_length_errorB8ue170006EPKc, symObjAddr: 0x345E8, symBinAddr: 0x100035BEC, symSize: 0x64 }
  - { offsetInCU: 0x9FCF8, offset: 0x9FCF8, size: 0x8, addend: 0x0, symName: __ZNSt3__112__to_addressB8ue170006IN5Catch5clara6detail5TokenEEEPT_S6_, symObjAddr: 0x3481C, symBinAddr: 0x100035E20, symSize: 0x14 }
  - { offsetInCU: 0x9FD2E, offset: 0x9FD2E, size: 0x8, addend: 0x0, symName: __ZNSt3__130__uninitialized_allocator_copyB8ue170006INS_9allocatorIN5Catch5clara6detail5TokenEEEPS5_S7_S7_EET2_RT_T0_T1_S8_, symObjAddr: 0x348CC, symBinAddr: 0x100035ED0, symSize: 0x80 }
  - { offsetInCU: 0x9FDCC, offset: 0x9FDCC, size: 0x8, addend: 0x0, symName: __ZNSt3__114__unwrap_rangeB8ue170006IPN5Catch5clara6detail5TokenES5_EENS_4pairIT0_S7_EET_S9_, symObjAddr: 0x349BC, symBinAddr: 0x100035FC0, symSize: 0x60 }
  - { offsetInCU: 0x9FE1A, offset: 0x9FE1A, size: 0x8, addend: 0x0, symName: __ZNSt3__135__uninitialized_allocator_copy_implB8ue170006INS_9allocatorIN5Catch5clara6detail5TokenEEEPS5_S7_S7_EET2_RT_T0_T1_S8_, symObjAddr: 0x34A1C, symBinAddr: 0x100036020, symSize: 0xF4 }
  - { offsetInCU: 0x9FEB9, offset: 0x9FEB9, size: 0x8, addend: 0x0, symName: __ZNSt3__113__unwrap_iterB8ue170006IPN5Catch5clara6detail5TokenENS_18__unwrap_iter_implIS5_Lb1EEELi0EEEDTclsrT0_8__unwrapclsr3stdE7declvalIT_EEEES9_, symObjAddr: 0x34B10, symBinAddr: 0x100036114, symSize: 0x24 }
  - { offsetInCU: 0x9FF00, offset: 0x9FF00, size: 0x8, addend: 0x0, symName: __ZNSt3__113__rewrap_iterB8ue170006IPN5Catch5clara6detail5TokenES5_NS_18__unwrap_iter_implIS5_Lb1EEEEET_S8_T0_, symObjAddr: 0x34B34, symBinAddr: 0x100036138, symSize: 0x3C }
  - { offsetInCU: 0x9FF57, offset: 0x9FF57, size: 0x8, addend: 0x0, symName: __ZNSt3__19make_pairB8ue170006IPN5Catch5clara6detail5TokenES5_EENS_4pairINS_18__unwrap_ref_decayIT_E4typeENS7_IT0_E4typeEEEOS8_OSB_, symObjAddr: 0x34B70, symBinAddr: 0x100036174, symSize: 0x38 }
  - { offsetInCU: 0xA0082, offset: 0xA0082, size: 0x8, addend: 0x0, symName: __ZNSt3__122__make_exception_guardB8ue170006INS_29_AllocatorDestroyRangeReverseINS_9allocatorIN5Catch5clara6detail5TokenEEEPS6_EEEENS_28__exception_guard_exceptionsIT_EESB_, symObjAddr: 0x34C18, symBinAddr: 0x10003621C, symSize: 0x4C }
  - { offsetInCU: 0xA00B9, offset: 0xA00B9, size: 0x8, addend: 0x0, symName: __ZNSt3__119__allocator_destroyB8ue170006INS_9allocatorIN5Catch5clara6detail5TokenEEENS_16reverse_iteratorIPS5_EES9_EEvRT_T0_T1_, symObjAddr: 0x34F24, symBinAddr: 0x100036528, symSize: 0x70 }
  - { offsetInCU: 0xA011D, offset: 0xA011D, size: 0x8, addend: 0x0, symName: __ZNSt3__1neB8ue170006IPN5Catch5clara6detail5TokenES5_EEbRKNS_16reverse_iteratorIT_EERKNS6_IT0_EE, symObjAddr: 0x34FC8, symBinAddr: 0x1000365CC, symSize: 0x48 }
  - { offsetInCU: 0xA016C, offset: 0xA016C, size: 0x8, addend: 0x0, symName: __ZNSt3__112__to_addressB8ue170006INS_16reverse_iteratorIPN5Catch5clara6detail5TokenEEEvEEu7__decayIDTclsr19__to_address_helperIT_EE6__callclsr3stdE7declvalIRKS8_EEEEESA_, symObjAddr: 0x3503C, symBinAddr: 0x100036640, symSize: 0x24 }
  - { offsetInCU: 0xA0226, offset: 0xA0226, size: 0x8, addend: 0x0, symName: __ZNSt3__115allocate_sharedB8ue170006IN5Catch5clara6detail13BoundValueRefINS_12basic_stringIcNS_11char_traitsIcEENS_9allocatorIcEEEEEENS8_ISB_EEJRSA_EvEENS_10shared_ptrIT_EERKT0_DpOT1_, symObjAddr: 0x35658, symBinAddr: 0x100036C5C, symSize: 0x98 }
  - { offsetInCU: 0xA05FC, offset: 0xA05FC, size: 0x8, addend: 0x0, symName: __ZNSt3__14swapB8ue170006IPN5Catch5clara6detail17BoundValueRefBaseEEENS_9enable_ifIXaasr21is_move_constructibleIT_EE5valuesr18is_move_assignableIS7_EE5valueEvE4typeERS7_SA_, symObjAddr: 0x36618, symBinAddr: 0x100037C1C, symSize: 0x3C }
  - { offsetInCU: 0xA0651, offset: 0xA0651, size: 0x8, addend: 0x0, symName: __ZNSt3__14swapB8ue170006IPNS_19__shared_weak_countEEENS_9enable_ifIXaasr21is_move_constructibleIT_EE5valuesr18is_move_assignableIS4_EE5valueEvE4typeERS4_S7_, symObjAddr: 0x36654, symBinAddr: 0x100037C58, symSize: 0x3C }
  - { offsetInCU: 0xA06A5, offset: 0xA06A5, size: 0x8, addend: 0x0, symName: __ZNSt3__111make_sharedB8ue170006IN5Catch5clara6detail15BoundFlagLambdaIZNS3_4HelpC1ERbEUlbE_EEJRKS7_EvEENS_10shared_ptrIT_EEDpOT0_, symObjAddr: 0x37268, symBinAddr: 0x10003886C, symSize: 0x40 }
  - { offsetInCU: 0xA090A, offset: 0xA090A, size: 0x8, addend: 0x0, symName: __ZNSt3__115allocate_sharedB8ue170006IN5Catch5clara6detail15BoundFlagLambdaIZNS3_4HelpC1ERbEUlbE_EENS_9allocatorIS8_EEJRKS7_EvEENS_10shared_ptrIT_EERKT0_DpOT1_, symObjAddr: 0x373D8, symBinAddr: 0x1000389DC, symSize: 0x98 }
  - { offsetInCU: 0xA0CE0, offset: 0xA0CE0, size: 0x8, addend: 0x0, symName: __ZNSt3__134__libcpp_atomic_refcount_incrementB8ue170006IlEET_RS1_, symObjAddr: 0x38104, symBinAddr: 0x100039708, symSize: 0x30 }
  - { offsetInCU: 0xA0D17, offset: 0xA0D17, size: 0x8, addend: 0x0, symName: __ZNSt3__1miB8ue170006IPKN5Catch5clara6detail5TokenES6_EEDTmicldtfp_4baseEcldtfp0_4baseEERKNS_11__wrap_iterIT_EERKNS8_IT0_EE, symObjAddr: 0x390E0, symBinAddr: 0x10003A6E4, symSize: 0x48 }
  - { offsetInCU: 0xA0D66, offset: 0xA0D66, size: 0x8, addend: 0x0, symName: __ZNSt3__14moveB8ue170006IPN5Catch5clara6detail5TokenES5_EET0_T_S7_S6_, symObjAddr: 0x391A0, symBinAddr: 0x10003A7A4, symSize: 0x40 }
  - { offsetInCU: 0xA0DC4, offset: 0xA0DC4, size: 0x8, addend: 0x0, symName: __ZNSt3__16__moveB8ue170006INS_17_ClassicAlgPolicyEPN5Catch5clara6detail5TokenES6_S6_EENS_4pairIT0_T2_EES8_T1_S9_, symObjAddr: 0x39390, symBinAddr: 0x10003A994, symSize: 0x44 }
  - { offsetInCU: 0xA0E34, offset: 0xA0E34, size: 0x8, addend: 0x0, symName: __ZNSt3__123__dispatch_copy_or_moveB8ue170006INS_17_ClassicAlgPolicyENS_11__move_loopIS1_EENS_14__move_trivialEPN5Catch5clara6detail5TokenES9_S9_EENS_4pairIT2_T4_EESB_T3_SC_, symObjAddr: 0x393D4, symBinAddr: 0x10003A9D8, symSize: 0x44 }
  - { offsetInCU: 0xA0EB6, offset: 0xA0EB6, size: 0x8, addend: 0x0, symName: __ZNSt3__121__unwrap_and_dispatchB8ue170006INS_10__overloadINS_11__move_loopINS_17_ClassicAlgPolicyEEENS_14__move_trivialEEEPN5Catch5clara6detail5TokenESB_SB_Li0EEENS_4pairIT0_T2_EESD_T1_SE_, symObjAddr: 0x39418, symBinAddr: 0x10003AA1C, symSize: 0xB4 }
  - { offsetInCU: 0xA11A9, offset: 0xA11A9, size: 0x8, addend: 0x0, symName: __ZNSt3__114__rewrap_rangeB8ue170006IPN5Catch5clara6detail5TokenES5_EET_S6_T0_, symObjAddr: 0x3955C, symBinAddr: 0x10003AB60, symSize: 0x2C }
  - { offsetInCU: 0xA1728, offset: 0xA1728, size: 0x8, addend: 0x0, symName: __ZNSt3__142__uninitialized_allocator_move_if_noexceptB8ue170006INS_9allocatorIN5Catch5clara6detail5TokenEEENS_16reverse_iteratorIPS5_EES9_S9_EET2_RT_T0_T1_SA_, symObjAddr: 0x3A0D0, symBinAddr: 0x10003B6D4, symSize: 0x11C }
  - { offsetInCU: 0xA17C9, offset: 0xA17C9, size: 0x8, addend: 0x0, symName: __ZNSt3__14swapB8ue170006IPN5Catch5clara6detail5TokenEEENS_9enable_ifIXaasr21is_move_constructibleIT_EE5valuesr18is_move_assignableIS7_EE5valueEvE4typeERS7_SA_, symObjAddr: 0x3A1EC, symBinAddr: 0x10003B7F0, symSize: 0x3C }
  - { offsetInCU: 0xA181E, offset: 0xA181E, size: 0x8, addend: 0x0, symName: __ZNSt3__122__make_exception_guardB8ue170006INS_29_AllocatorDestroyRangeReverseINS_9allocatorIN5Catch5clara6detail5TokenEEENS_16reverse_iteratorIPS6_EEEEEENS_28__exception_guard_exceptionsIT_EESD_, symObjAddr: 0x3A228, symBinAddr: 0x10003B82C, symSize: 0x4C }
  - { offsetInCU: 0xA1855, offset: 0xA1855, size: 0x8, addend: 0x0, symName: __ZNSt3__119__allocator_destroyB8ue170006INS_9allocatorIN5Catch5clara6detail5TokenEEENS_16reverse_iteratorINS7_IPS5_EEEESA_EEvRT_T0_T1_, symObjAddr: 0x3A580, symBinAddr: 0x10003BB84, symSize: 0x70 }
  - { offsetInCU: 0xA18BB, offset: 0xA18BB, size: 0x8, addend: 0x0, symName: __ZNSt3__1neB8ue170006INS_16reverse_iteratorIPN5Catch5clara6detail5TokenEEES7_EEbRKNS1_IT_EERKNS1_IT0_EE, symObjAddr: 0x3A62C, symBinAddr: 0x10003BC30, symSize: 0x60 }
  - { offsetInCU: 0xA190A, offset: 0xA190A, size: 0x8, addend: 0x0, symName: __ZNSt3__112__to_addressB8ue170006INS_16reverse_iteratorINS1_IPN5Catch5clara6detail5TokenEEEEEvEEu7__decayIDTclsr19__to_address_helperIT_EE6__callclsr3stdE7declvalIRKS9_EEEEESB_, symObjAddr: 0x3A68C, symBinAddr: 0x10003BC90, symSize: 0x24 }
  - { offsetInCU: 0xA196D, offset: 0xA196D, size: 0x8, addend: 0x0, symName: __ZNSt3__112__to_addressB8ue170006IKNS_12basic_stringIcNS_11char_traitsIcEENS_9allocatorIcEEEEEEPT_S9_, symObjAddr: 0x3A9CC, symBinAddr: 0x10003BFD0, symSize: 0x14 }
  - { offsetInCU: 0xA19A3, offset: 0xA19A3, size: 0x8, addend: 0x0, symName: __ZNSt3__119__str_find_first_ofB8ue170006IcmNS_11char_traitsIcEELm18446744073709551615EEET0_PKT_S3_S6_S3_S3_, symObjAddr: 0x3A9E0, symBinAddr: 0x10003BFE4, symSize: 0xF0 }
  - { offsetInCU: 0xA1A4C, offset: 0xA1A4C, size: 0x8, addend: 0x0, symName: __ZNSt3__118__find_first_of_ceB8ue170006IPKcS2_RDoFbccEEET_S5_S5_T0_S6_OT1_, symObjAddr: 0x3AB2C, symBinAddr: 0x10003C130, symSize: 0xD0 }
  - { offsetInCU: 0xA1AEE, offset: 0xA1AEE, size: 0x8, addend: 0x0, symName: __ZNSt3__112__to_addressB8ue170006IKcEEPT_S3_, symObjAddr: 0x3AC24, symBinAddr: 0x10003C228, symSize: 0x14 }
  - { offsetInCU: 0xA1B67, offset: 0xA1B67, size: 0x8, addend: 0x0, symName: __ZNSt3__118__constexpr_strlenB8ue170006EPKc, symObjAddr: 0x3AD60, symBinAddr: 0x10003C364, symSize: 0x24 }
  - { offsetInCU: 0xA1B94, offset: 0xA1B94, size: 0x8, addend: 0x0, symName: __ZNSt3__111make_sharedB8ue170006IN5Catch5clara6detail12BoundFlagRefEJRbEvEENS_10shared_ptrIT_EEDpOT0_, symObjAddr: 0x3B0A8, symBinAddr: 0x10003C6AC, symSize: 0x40 }
  - { offsetInCU: 0xA1DF9, offset: 0xA1DF9, size: 0x8, addend: 0x0, symName: __ZNSt3__115allocate_sharedB8ue170006IN5Catch5clara6detail12BoundFlagRefENS_9allocatorIS4_EEJRbEvEENS_10shared_ptrIT_EERKT0_DpOT1_, symObjAddr: 0x3B148, symBinAddr: 0x10003C74C, symSize: 0x98 }
  - { offsetInCU: 0xA21CE, offset: 0xA21CE, size: 0x8, addend: 0x0, symName: __ZNSt3__111make_sharedB8ue170006IN5Catch5clara6detail13BoundValueRefINS_6vectorINS_12basic_stringIcNS_11char_traitsIcEENS_9allocatorIcEEEENS9_ISB_EEEEEEJRSD_EvEENS_10shared_ptrIT_EEDpOT0_, symObjAddr: 0x3C104, symBinAddr: 0x10003D708, symSize: 0x40 }
  - { offsetInCU: 0xA2433, offset: 0xA2433, size: 0x8, addend: 0x0, symName: __ZNSt3__115allocate_sharedB8ue170006IN5Catch5clara6detail13BoundValueRefINS_6vectorINS_12basic_stringIcNS_11char_traitsIcEENS_9allocatorIcEEEENS9_ISB_EEEEEENS9_ISE_EEJRSD_EvEENS_10shared_ptrIT_EERKT0_DpOT1_, symObjAddr: 0x3C210, symBinAddr: 0x10003D814, symSize: 0x98 }
  - { offsetInCU: 0xA2809, offset: 0xA2809, size: 0x8, addend: 0x0, symName: __ZNSt3__112__to_addressB8ue170006IN5Catch5clara6detail3ArgEEEPT_S6_, symObjAddr: 0x3DA98, symBinAddr: 0x10003F09C, symSize: 0x14 }
  - { offsetInCU: 0xA2840, offset: 0xA2840, size: 0x8, addend: 0x0, symName: __ZNSt3__112__to_addressB8ue170006IN5Catch5clara6detail3OptEEEPT_S6_, symObjAddr: 0x3DFA0, symBinAddr: 0x10003F5A4, symSize: 0x14 }
  - { offsetInCU: 0xA2877, offset: 0xA2877, size: 0x8, addend: 0x0, symName: __ZNSt3__1neB8ue170006IPKN5Catch5clara6detail3OptEEEbRKNS_11__wrap_iterIT_EESB_, symObjAddr: 0x3E190, symBinAddr: 0x10003F794, symSize: 0x34 }
  - { offsetInCU: 0xA28BD, offset: 0xA28BD, size: 0x8, addend: 0x0, symName: __ZNSt3__1neB8ue170006IPKN5Catch5clara6detail3ArgEEEbRKNS_11__wrap_iterIT_EESB_, symObjAddr: 0x3E25C, symBinAddr: 0x10003F860, symSize: 0x34 }
  - { offsetInCU: 0xA2903, offset: 0xA2903, size: 0x8, addend: 0x0, symName: __ZNSt3__1eqB8ue170006IPKN5Catch5clara6detail3OptEEEbRKNS_11__wrap_iterIT_EESB_, symObjAddr: 0x3E34C, symBinAddr: 0x10003F950, symSize: 0x48 }
  - { offsetInCU: 0xA2949, offset: 0xA2949, size: 0x8, addend: 0x0, symName: __ZNSt3__1eqB8ue170006IPKN5Catch5clara6detail3ArgEEEbRKNS_11__wrap_iterIT_EESB_, symObjAddr: 0x3E430, symBinAddr: 0x10003FA34, symSize: 0x48 }
  - { offsetInCU: 0xA298E, offset: 0xA298E, size: 0x8, addend: 0x0, symName: __ZNSt3__118__str_find_last_ofB8ue170006IcmNS_11char_traitsIcEELm18446744073709551615EEET0_PKT_S3_S6_S3_S3_, symObjAddr: 0x3E7E0, symBinAddr: 0x10003FDE4, symSize: 0xFC }
  - { offsetInCU: 0xA2A62, offset: 0xA2A62, size: 0x8, addend: 0x0, symName: __ZNSt3__118__constexpr_memchrB8ue170006IKccEEPT_S3_T0_m, symObjAddr: 0x3E94C, symBinAddr: 0x10003FF50, symSize: 0x40 }
  - { offsetInCU: 0xA2ADD, offset: 0xA2ADD, size: 0x8, addend: 0x0, symName: __ZNSt3__1eqB8ue170006IPNS_12basic_stringIcNS_11char_traitsIcEENS_9allocatorIcEEEEEEbRKNS_11__wrap_iterIT_EESC_, symObjAddr: 0x3EF34, symBinAddr: 0x100040538, symSize: 0x48 }
  - { offsetInCU: 0xA2B23, offset: 0xA2B23, size: 0x8, addend: 0x0, symName: __ZNSt3__112__to_addressB8ue170006IN5Catch8TestSpec6FilterEEEPT_S5_, symObjAddr: 0x3F4A8, symBinAddr: 0x100040AAC, symSize: 0x14 }
  - { offsetInCU: 0xA2B5A, offset: 0xA2B5A, size: 0x8, addend: 0x0, symName: __ZNSt3__112__to_addressB8ue170006ImEEPT_S2_, symObjAddr: 0x3FBF8, symBinAddr: 0x1000411FC, symSize: 0x14 }
  - { offsetInCU: 0xA2B91, offset: 0xA2B91, size: 0x8, addend: 0x0, symName: __ZNSt3__1eqB8ue170006IPN5Catch9StringRefEEEbRKNS_11__wrap_iterIT_EES8_, symObjAddr: 0x40604, symBinAddr: 0x100041C08, symSize: 0x48 }
  - { offsetInCU: 0xA2BD7, offset: 0xA2BD7, size: 0x8, addend: 0x0, symName: __ZNSt3__1eqB8ue170006IPKNS_4pairIiN5Catch9StringRefEEEEEbRKNS_11__wrap_iterIT_EESB_, symObjAddr: 0x40664, symBinAddr: 0x100041C68, symSize: 0x48 }
  - { offsetInCU: 0xA2C1D, offset: 0xA2C1D, size: 0x8, addend: 0x0, symName: __ZNSt3__1eqB8ue170006IPKiEEbRKNS_11__wrap_iterIT_EES7_, symObjAddr: 0x40878, symBinAddr: 0x100041E7C, symSize: 0x48 }
  - { offsetInCU: 0xA2C63, offset: 0xA2C63, size: 0x8, addend: 0x0, symName: __ZNSt3__13maxB8ue170006ImNS_6__lessIvvEEEERKT_S5_S5_T0_, symObjAddr: 0x4091C, symBinAddr: 0x100041F20, symSize: 0x54 }
  - { offsetInCU: 0xA2DD0, offset: 0xA2DD0, size: 0x8, addend: 0x0, symName: __ZNSt3__1eqB8ue170006IPN5Catch8TestCaseEEEbRKNS_11__wrap_iterIT_EES8_, symObjAddr: 0x40DC4, symBinAddr: 0x1000423C8, symSize: 0x48 }
  - { offsetInCU: 0xA2E16, offset: 0xA2E16, size: 0x8, addend: 0x0, symName: __ZNSt3__1eqB8ue170006IPKNS_12basic_stringIcNS_11char_traitsIcEENS_9allocatorIcEEEEEEbRKNS_11__wrap_iterIT_EESD_, symObjAddr: 0x41D14, symBinAddr: 0x100043318, symSize: 0x48 }
  - { offsetInCU: 0xA2E92, offset: 0xA2E92, size: 0x8, addend: 0x0, symName: __ZNSt3__1neB8ue170006IPKN5Catch5clara8TextFlow6ColumnEEEbRKNS_11__wrap_iterIT_EESB_, symObjAddr: 0x42F70, symBinAddr: 0x100044574, symSize: 0x34 }
  - { offsetInCU: 0xA2ED8, offset: 0xA2ED8, size: 0x8, addend: 0x0, symName: __ZNSt3__119__allocate_at_leastB8ue170006INS_9allocatorIN5Catch5clara8TextFlow6Column8iteratorEEEEENS_19__allocation_resultINS_16allocator_traitsIT_E7pointerEEERSA_m, symObjAddr: 0x436A0, symBinAddr: 0x100044CA4, symSize: 0x40 }
  - { offsetInCU: 0xA2F1D, offset: 0xA2F1D, size: 0x8, addend: 0x0, symName: __ZNSt3__142__uninitialized_allocator_move_if_noexceptB8ue170006INS_9allocatorIN5Catch5clara8TextFlow6Column8iteratorEEENS_16reverse_iteratorIPS6_EESA_SA_EET2_RT_T0_T1_SB_, symObjAddr: 0x43940, symBinAddr: 0x100044F44, symSize: 0x12C }
  - { offsetInCU: 0xA2FBE, offset: 0xA2FBE, size: 0x8, addend: 0x0, symName: __ZNSt3__14swapB8ue170006IPN5Catch5clara8TextFlow6Column8iteratorEEENS_9enable_ifIXaasr21is_move_constructibleIT_EE5valuesr18is_move_assignableIS8_EE5valueEvE4typeERS8_SB_, symObjAddr: 0x43AB8, symBinAddr: 0x1000450BC, symSize: 0x3C }
  - { offsetInCU: 0xA3013, offset: 0xA3013, size: 0x8, addend: 0x0, symName: __ZNSt3__112__to_addressB8ue170006IN5Catch5clara8TextFlow6Column8iteratorEEEPT_S7_, symObjAddr: 0x43C2C, symBinAddr: 0x100045230, symSize: 0x14 }
  - { offsetInCU: 0xA304A, offset: 0xA304A, size: 0x8, addend: 0x0, symName: __ZNSt3__122__make_exception_guardB8ue170006INS_29_AllocatorDestroyRangeReverseINS_9allocatorIN5Catch5clara8TextFlow6Column8iteratorEEENS_16reverse_iteratorIPS7_EEEEEENS_28__exception_guard_exceptionsIT_EESE_, symObjAddr: 0x43C40, symBinAddr: 0x100045244, symSize: 0x4C }
  - { offsetInCU: 0xA3082, offset: 0xA3082, size: 0x8, addend: 0x0, symName: __ZNSt3__1neB8ue170006IPN5Catch5clara8TextFlow6Column8iteratorES6_EEbRKNS_16reverse_iteratorIT_EERKNS7_IT0_EE, symObjAddr: 0x43CD0, symBinAddr: 0x1000452D4, symSize: 0x48 }
  - { offsetInCU: 0xA30D1, offset: 0xA30D1, size: 0x8, addend: 0x0, symName: __ZNSt3__112__to_addressB8ue170006INS_16reverse_iteratorIPN5Catch5clara8TextFlow6Column8iteratorEEEvEEu7__decayIDTclsr19__to_address_helperIT_EE6__callclsr3stdE7declvalIRKS9_EEEEESB_, symObjAddr: 0x43D4C, symBinAddr: 0x100045350, symSize: 0x24 }
  - { offsetInCU: 0xA3133, offset: 0xA3133, size: 0x8, addend: 0x0, symName: __ZNSt3__119__allocator_destroyB8ue170006INS_9allocatorIN5Catch5clara8TextFlow6Column8iteratorEEENS_16reverse_iteratorINS8_IPS6_EEEESB_EEvRT_T0_T1_, symObjAddr: 0x44030, symBinAddr: 0x100045634, symSize: 0x70 }
  - { offsetInCU: 0xA3199, offset: 0xA3199, size: 0x8, addend: 0x0, symName: __ZNSt3__1neB8ue170006INS_16reverse_iteratorIPN5Catch5clara8TextFlow6Column8iteratorEEES8_EEbRKNS1_IT_EERKNS1_IT0_EE, symObjAddr: 0x440DC, symBinAddr: 0x1000456E0, symSize: 0x60 }
  - { offsetInCU: 0xA31E8, offset: 0xA31E8, size: 0x8, addend: 0x0, symName: __ZNSt3__112__to_addressB8ue170006INS_16reverse_iteratorINS1_IPN5Catch5clara8TextFlow6Column8iteratorEEEEEvEEu7__decayIDTclsr19__to_address_helperIT_EE6__callclsr3stdE7declvalIRKSA_EEEEESC_, symObjAddr: 0x44168, symBinAddr: 0x10004576C, symSize: 0x24 }
  - { offsetInCU: 0xA324B, offset: 0xA324B, size: 0x8, addend: 0x0, symName: __ZNSt3__1eqB8ue170006IPKN5Catch5clara8TextFlow6ColumnEEEbRKNS_11__wrap_iterIT_EESB_, symObjAddr: 0x44604, symBinAddr: 0x100045C08, symSize: 0x48 }
  - { offsetInCU: 0xA3290, offset: 0xA3290, size: 0x8, addend: 0x0, symName: __ZNSt3__1neB8ue170006IN5Catch5clara8TextFlow6Column8iteratorENS_9allocatorIS5_EEEEbRKNS_6vectorIT_T0_EESD_, symObjAddr: 0x44C78, symBinAddr: 0x10004627C, symSize: 0x34 }
  - { offsetInCU: 0xA32DF, offset: 0xA32DF, size: 0x8, addend: 0x0, symName: __ZNSt3__1eqB8ue170006IN5Catch5clara8TextFlow6Column8iteratorENS_9allocatorIS5_EEEEbRKNS_6vectorIT_T0_EESD_, symObjAddr: 0x44CAC, symBinAddr: 0x1000462B0, symSize: 0x9C }
  - { offsetInCU: 0xA333E, offset: 0xA333E, size: 0x8, addend: 0x0, symName: __ZNSt3__15equalB8ue170006INS_11__wrap_iterIPKN5Catch5clara8TextFlow6Column8iteratorEEES9_EEbT_SA_T0_, symObjAddr: 0x44D48, symBinAddr: 0x10004634C, symSize: 0x50 }
  - { offsetInCU: 0xA339C, offset: 0xA339C, size: 0x8, addend: 0x0, symName: __ZNSt3__15equalB8ue170006INS_11__wrap_iterIPKN5Catch5clara8TextFlow6Column8iteratorEEES9_NS_10__equal_toEEEbT_SB_T0_T1_, symObjAddr: 0x44DF8, symBinAddr: 0x1000463FC, symSize: 0x74 }
  - { offsetInCU: 0xA3412, offset: 0xA3412, size: 0x8, addend: 0x0, symName: __ZNSt3__117__equal_iter_implB8ue170006IPKN5Catch5clara8TextFlow6Column8iteratorES7_NS_10__equal_toEEEbT_S9_T0_RT1_, symObjAddr: 0x44E6C, symBinAddr: 0x100046470, symSize: 0xAC }
  - { offsetInCU: 0xA3488, offset: 0xA3488, size: 0x8, addend: 0x0, symName: __ZNSt3__113__unwrap_iterB8ue170006INS_11__wrap_iterIPKN5Catch5clara8TextFlow6Column8iteratorEEENS_18__unwrap_iter_implIS9_Lb1EEELi0EEEDTclsrT0_8__unwrapclsr3stdE7declvalIT_EEEESD_, symObjAddr: 0x44F18, symBinAddr: 0x10004651C, symSize: 0x2C }
  - { offsetInCU: 0xA35C8, offset: 0xA35C8, size: 0x8, addend: 0x0, symName: __ZNSt3__112__to_addressB8ue170006INS_11__wrap_iterIPKN5Catch5clara8TextFlow6Column8iteratorEEEvEEu7__decayIDTclsr19__to_address_helperIT_EE6__callclsr3stdE7declvalIRKSA_EEEEESC_, symObjAddr: 0x44FA0, symBinAddr: 0x1000465A4, symSize: 0x24 }
  - { offsetInCU: 0xA36AF, offset: 0xA36AF, size: 0x8, addend: 0x0, symName: __ZNSt3__112__to_addressB8ue170006IKN5Catch5clara8TextFlow6Column8iteratorEEEPT_S8_, symObjAddr: 0x45020, symBinAddr: 0x100046624, symSize: 0x14 }
  - { offsetInCU: 0xA36E5, offset: 0xA36E5, size: 0x8, addend: 0x0, symName: __ZNSt3__1plB8ue170006IcNS_11char_traitsIcEENS_9allocatorIcEEEENS_12basic_stringIT_T0_T1_EERKS9_SB_, symObjAddr: 0x45140, symBinAddr: 0x100046744, symSize: 0x134 }
  - { offsetInCU: 0xA3787, offset: 0xA3787, size: 0x8, addend: 0x0, symName: __ZNSt3__112__to_addressB8ue170006IcEEPT_S2_, symObjAddr: 0x452E4, symBinAddr: 0x1000468E8, symSize: 0x14 }
  - { offsetInCU: 0xA39E1, offset: 0xA39E1, size: 0x8, addend: 0x0, symName: __ZNSt3__14copyB8ue170006IPKcPcEET0_T_S5_S4_, symObjAddr: 0x45AD8, symBinAddr: 0x1000470DC, symSize: 0x40 }
  - { offsetInCU: 0xA3A3F, offset: 0xA3A3F, size: 0x8, addend: 0x0, symName: __ZNSt3__16__copyB8ue170006INS_17_ClassicAlgPolicyEPKcS3_PcEENS_4pairIT0_T2_EES6_T1_S7_, symObjAddr: 0x45B18, symBinAddr: 0x10004711C, symSize: 0x44 }
  - { offsetInCU: 0xA3AAF, offset: 0xA3AAF, size: 0x8, addend: 0x0, symName: __ZNSt3__123__dispatch_copy_or_moveB8ue170006INS_17_ClassicAlgPolicyENS_11__copy_loopIS1_EENS_14__copy_trivialEPKcS6_PcEENS_4pairIT2_T4_EES9_T3_SA_, symObjAddr: 0x45B5C, symBinAddr: 0x100047160, symSize: 0x44 }
  - { offsetInCU: 0xA3B31, offset: 0xA3B31, size: 0x8, addend: 0x0, symName: __ZNSt3__121__unwrap_and_dispatchB8ue170006INS_10__overloadINS_11__copy_loopINS_17_ClassicAlgPolicyEEENS_14__copy_trivialEEEPKcS8_PcLi0EEENS_4pairIT0_T2_EESB_T1_SC_, symObjAddr: 0x45BA0, symBinAddr: 0x1000471A4, symSize: 0xB4 }
  - { offsetInCU: 0xA3BC6, offset: 0xA3BC6, size: 0x8, addend: 0x0, symName: __ZNSt3__114__unwrap_rangeB8ue170006IPKcS2_EENS_4pairIT0_S4_EET_S6_, symObjAddr: 0x45C54, symBinAddr: 0x100047258, symSize: 0x60 }
  - { offsetInCU: 0xA3DA8, offset: 0xA3DA8, size: 0x8, addend: 0x0, symName: __ZNSt3__113__unwrap_iterB8ue170006IPcNS_18__unwrap_iter_implIS1_Lb1EEELi0EEEDTclsrT0_8__unwrapclsr3stdE7declvalIT_EEEES5_, symObjAddr: 0x45CFC, symBinAddr: 0x100047300, symSize: 0x24 }
  - { offsetInCU: 0xA3DEE, offset: 0xA3DEE, size: 0x8, addend: 0x0, symName: __ZNSt3__19make_pairB8ue170006IPKcPcEENS_4pairINS_18__unwrap_ref_decayIT_E4typeENS5_IT0_E4typeEEEOS6_OS9_, symObjAddr: 0x45D20, symBinAddr: 0x100047324, symSize: 0x38 }
  - { offsetInCU: 0xA3E3E, offset: 0xA3E3E, size: 0x8, addend: 0x0, symName: __ZNSt3__114__rewrap_rangeB8ue170006IPKcS2_EET_S3_T0_, symObjAddr: 0x45D58, symBinAddr: 0x10004735C, symSize: 0x2C }
  - { offsetInCU: 0xA3E8D, offset: 0xA3E8D, size: 0x8, addend: 0x0, symName: __ZNSt3__113__rewrap_iterB8ue170006IPcS1_NS_18__unwrap_iter_implIS1_Lb1EEEEET_S4_T0_, symObjAddr: 0x45D84, symBinAddr: 0x100047388, symSize: 0x3C }
  - { offsetInCU: 0xA3EE4, offset: 0xA3EE4, size: 0x8, addend: 0x0, symName: __ZNSt3__19make_pairB8ue170006IPKcS2_EENS_4pairINS_18__unwrap_ref_decayIT_E4typeENS4_IT0_E4typeEEEOS5_OS8_, symObjAddr: 0x45DC0, symBinAddr: 0x1000473C4, symSize: 0x38 }
  - { offsetInCU: 0xA3F34, offset: 0xA3F34, size: 0x8, addend: 0x0, symName: __ZNSt3__113__unwrap_iterB8ue170006IPKcNS_18__unwrap_iter_implIS2_Lb1EEELi0EEEDTclsrT0_8__unwrapclsr3stdE7declvalIT_EEEES6_, symObjAddr: 0x45DF8, symBinAddr: 0x1000473FC, symSize: 0x24 }
  - { offsetInCU: 0xA3FD3, offset: 0xA3FD3, size: 0x8, addend: 0x0, symName: __ZNSt3__119__copy_trivial_implB8ue170006IKccEENS_4pairIPT_PT0_EES4_S4_S6_, symObjAddr: 0x45EB0, symBinAddr: 0x1000474B4, symSize: 0x78 }
  - { offsetInCU: 0xA4040, offset: 0xA4040, size: 0x8, addend: 0x0, symName: __ZNSt3__119__constexpr_memmoveB8ue170006IcKcLi0EEEPT_S3_PT0_NS_15__element_countE, symObjAddr: 0x45F28, symBinAddr: 0x10004752C, symSize: 0x64 }
  - { offsetInCU: 0xA40B3, offset: 0xA40B3, size: 0x8, addend: 0x0, symName: __ZNSt3__19make_pairB8ue170006IRPKcPcEENS_4pairINS_18__unwrap_ref_decayIT_E4typeENS6_IT0_E4typeEEEOS7_OSA_, symObjAddr: 0x45F8C, symBinAddr: 0x100047590, symSize: 0x38 }
  - { offsetInCU: 0xA415B, offset: 0xA415B, size: 0x8, addend: 0x0, symName: __ZNSt3__113__rewrap_iterB8ue170006IPKcS2_NS_18__unwrap_iter_implIS2_Lb1EEEEET_S5_T0_, symObjAddr: 0x460C8, symBinAddr: 0x1000476CC, symSize: 0x3C }
  - { offsetInCU: 0xA41B3, offset: 0xA41B3, size: 0x8, addend: 0x0, symName: __ZNSt3__16fill_nB8ue170006IPcmcEET_S2_T0_RKT1_, symObjAddr: 0x46194, symBinAddr: 0x100047798, symSize: 0x44 }
  - { offsetInCU: 0xA421A, offset: 0xA421A, size: 0x8, addend: 0x0, symName: __ZNSt3__18__fill_nB8ue170006IPcmcEET_S2_T0_RKT1_, symObjAddr: 0x461D8, symBinAddr: 0x1000477DC, symSize: 0x64 }
  - { offsetInCU: 0xA4281, offset: 0xA4281, size: 0x8, addend: 0x0, symName: __ZNSt3__121__convert_to_integralB8ue170006Em, symObjAddr: 0x4623C, symBinAddr: 0x100047840, symSize: 0x14 }
  - { offsetInCU: 0xA42AF, offset: 0xA42AF, size: 0x8, addend: 0x0, symName: __ZNSt3__112__to_addressB8ue170006IN5Catch5clara8TextFlow6ColumnEEEPT_S6_, symObjAddr: 0x46780, symBinAddr: 0x100047D84, symSize: 0x14 }
  - { offsetInCU: 0xA42E6, offset: 0xA42E6, size: 0x8, addend: 0x0, symName: __ZNSt3__119__allocate_at_leastB8ue170006INS_9allocatorIN5Catch5clara8TextFlow6ColumnEEEEENS_19__allocation_resultINS_16allocator_traitsIT_E7pointerEEERS9_m, symObjAddr: 0x46D9C, symBinAddr: 0x1000483A0, symSize: 0x40 }
  - { offsetInCU: 0xA432B, offset: 0xA432B, size: 0x8, addend: 0x0, symName: __ZNSt3__142__uninitialized_allocator_move_if_noexceptB8ue170006INS_9allocatorIN5Catch5clara8TextFlow6ColumnEEENS_16reverse_iteratorIPS5_EES9_S9_EET2_RT_T0_T1_SA_, symObjAddr: 0x47028, symBinAddr: 0x10004862C, symSize: 0x12C }
  - { offsetInCU: 0xA43CC, offset: 0xA43CC, size: 0x8, addend: 0x0, symName: __ZNSt3__14swapB8ue170006IPN5Catch5clara8TextFlow6ColumnEEENS_9enable_ifIXaasr21is_move_constructibleIT_EE5valuesr18is_move_assignableIS7_EE5valueEvE4typeERS7_SA_, symObjAddr: 0x471A0, symBinAddr: 0x1000487A4, symSize: 0x3C }
  - { offsetInCU: 0xA4421, offset: 0xA4421, size: 0x8, addend: 0x0, symName: __ZNSt3__122__make_exception_guardB8ue170006INS_29_AllocatorDestroyRangeReverseINS_9allocatorIN5Catch5clara8TextFlow6ColumnEEENS_16reverse_iteratorIPS6_EEEEEENS_28__exception_guard_exceptionsIT_EESD_, symObjAddr: 0x472EC, symBinAddr: 0x1000488F0, symSize: 0x4C }
  - { offsetInCU: 0xA4459, offset: 0xA4459, size: 0x8, addend: 0x0, symName: __ZNSt3__1neB8ue170006IPN5Catch5clara8TextFlow6ColumnES5_EEbRKNS_16reverse_iteratorIT_EERKNS6_IT0_EE, symObjAddr: 0x4737C, symBinAddr: 0x100048980, symSize: 0x48 }
  - { offsetInCU: 0xA44A8, offset: 0xA44A8, size: 0x8, addend: 0x0, symName: __ZNSt3__112__to_addressB8ue170006INS_16reverse_iteratorIPN5Catch5clara8TextFlow6ColumnEEEvEEu7__decayIDTclsr19__to_address_helperIT_EE6__callclsr3stdE7declvalIRKS8_EEEEESA_, symObjAddr: 0x473F8, symBinAddr: 0x1000489FC, symSize: 0x24 }
  - { offsetInCU: 0xA450A, offset: 0xA450A, size: 0x8, addend: 0x0, symName: __ZNSt3__119__allocator_destroyB8ue170006INS_9allocatorIN5Catch5clara8TextFlow6ColumnEEENS_16reverse_iteratorINS7_IPS5_EEEESA_EEvRT_T0_T1_, symObjAddr: 0x479C0, symBinAddr: 0x100048FC4, symSize: 0x70 }
  - { offsetInCU: 0xA4570, offset: 0xA4570, size: 0x8, addend: 0x0, symName: __ZNSt3__1neB8ue170006INS_16reverse_iteratorIPN5Catch5clara8TextFlow6ColumnEEES7_EEbRKNS1_IT_EERKNS1_IT0_EE, symObjAddr: 0x47A6C, symBinAddr: 0x100049070, symSize: 0x60 }
  - { offsetInCU: 0xA45BF, offset: 0xA45BF, size: 0x8, addend: 0x0, symName: __ZNSt3__112__to_addressB8ue170006INS_16reverse_iteratorINS1_IPN5Catch5clara8TextFlow6ColumnEEEEEvEEu7__decayIDTclsr19__to_address_helperIT_EE6__callclsr3stdE7declvalIRKS9_EEEEESB_, symObjAddr: 0x47AF8, symBinAddr: 0x1000490FC, symSize: 0x24 }
  - { offsetInCU: 0xA4622, offset: 0xA4622, size: 0x8, addend: 0x0, symName: __ZNSt3__13maxB8ue170006IdNS_6__lessIvvEEEERKT_S5_S5_T0_, symObjAddr: 0x48470, symBinAddr: 0x100049A74, symSize: 0x54 }
  - { offsetInCU: 0xA467F, offset: 0xA467F, size: 0x8, addend: 0x0, symName: __ZNSt3__1neB8ue170006ERKNS_16__deque_iteratorIcPcRcPS1_lLl4096EEES6_, symObjAddr: 0x48E30, symBinAddr: 0x10004A434, symSize: 0x34 }
  - { offsetInCU: 0xA46BC, offset: 0xA46BC, size: 0x8, addend: 0x0, symName: __ZNSt3__1eqB8ue170006ERKNS_16__deque_iteratorIcPcRcPS1_lLl4096EEES6_, symObjAddr: 0x49174, symBinAddr: 0x10004A778, symSize: 0x30 }
  - { offsetInCU: 0xA46FA, offset: 0xA46FA, size: 0x8, addend: 0x0, symName: __ZNSt3__112__to_addressB8ue170006IPcEEPT_S3_, symObjAddr: 0x49B94, symBinAddr: 0x10004B198, symSize: 0x14 }
  - { offsetInCU: 0xA4731, offset: 0xA4731, size: 0x8, addend: 0x0, symName: __ZNSt3__112__to_addressB8ue170006INS_10shared_ptrIN5Catch16TestCaseTracking8ITrackerEEEEEPT_S7_, symObjAddr: 0x4A1AC, symBinAddr: 0x10004B7B0, symSize: 0x14 }
  - { offsetInCU: 0xA4767, offset: 0xA4767, size: 0x8, addend: 0x0, symName: __ZNSt3__119static_pointer_castB8ue170006IN5Catch10Generators16GeneratorTrackerENS1_16TestCaseTracking8ITrackerEEENS_10shared_ptrIT_EERKNS6_IT0_EE, symObjAddr: 0x4A4CC, symBinAddr: 0x10004BAD0, symSize: 0x44 }
  - { offsetInCU: 0xA47A7, offset: 0xA47A7, size: 0x8, addend: 0x0, symName: __ZNSt3__111make_sharedB8ue170006IN5Catch10Generators16GeneratorTrackerEJRKNS1_16TestCaseTracking15NameAndLocationERNS4_14TrackerContextEPNS4_8ITrackerEEvEENS_10shared_ptrIT_EEDpOT0_, symObjAddr: 0x4A58C, symBinAddr: 0x10004BB90, symSize: 0x50 }
  - { offsetInCU: 0xA4817, offset: 0xA4817, size: 0x8, addend: 0x0, symName: __ZNSt3__14swapB8ue170006IPN5Catch10Generators16GeneratorTrackerEEENS_9enable_ifIXaasr21is_move_constructibleIT_EE5valuesr18is_move_assignableIS6_EE5valueEvE4typeERS6_S9_, symObjAddr: 0x4A7C0, symBinAddr: 0x10004BDC4, symSize: 0x3C }
  - { offsetInCU: 0xA486B, offset: 0xA486B, size: 0x8, addend: 0x0, symName: __ZNSt3__115allocate_sharedB8ue170006IN5Catch10Generators16GeneratorTrackerENS_9allocatorIS3_EEJRKNS1_16TestCaseTracking15NameAndLocationERNS6_14TrackerContextEPNS6_8ITrackerEEvEENS_10shared_ptrIT_EERKT0_DpOT1_, symObjAddr: 0x4A850, symBinAddr: 0x10004BE54, symSize: 0xA8 }
  - { offsetInCU: 0xA4C6C, offset: 0xA4C6C, size: 0x8, addend: 0x0, symName: __ZNSt3__1neB8ue170006IPN5Catch14SectionEndInfoEEEbRKNS_11__wrap_iterIT_EES8_, symObjAddr: 0x4B5D8, symBinAddr: 0x10004CBDC, symSize: 0x34 }
  - { offsetInCU: 0xA4CB2, offset: 0xA4CB2, size: 0x8, addend: 0x0, symName: __ZNSt3__1eqB8ue170006IPN5Catch14SectionEndInfoEEEbRKNS_11__wrap_iterIT_EES8_, symObjAddr: 0x4B62C, symBinAddr: 0x10004CC30, symSize: 0x48 }
  - { offsetInCU: 0xA4CF8, offset: 0xA4CF8, size: 0x8, addend: 0x0, symName: __ZNSt3__1eqB8ue170006IPKSt13exception_ptrEEbRKNS_11__wrap_iterIT_EES8_, symObjAddr: 0x4BBD4, symBinAddr: 0x10004D1D8, symSize: 0x48 }
  - { offsetInCU: 0xA4D3E, offset: 0xA4D3E, size: 0x8, addend: 0x0, symName: __ZNSt3__14swapB8ue170006IPNS_12basic_stringIcNS_11char_traitsIcEENS_9allocatorIcEEEEEENS_9enable_ifIXaasr21is_move_constructibleIT_EE5valuesr18is_move_assignableIS9_EE5valueEvE4typeERS9_SC_, symObjAddr: 0x4BE9C, symBinAddr: 0x10004D4A0, symSize: 0x3C }
  - { offsetInCU: 0xA4D93, offset: 0xA4D93, size: 0x8, addend: 0x0, symName: __ZNSt3__1neB8ue170006IPN5Catch5clara6detail11HelpColumnsEEEbRKNS_11__wrap_iterIT_EESA_, symObjAddr: 0x4CD60, symBinAddr: 0x10004E364, symSize: 0x34 }
  - { offsetInCU: 0xA4DD9, offset: 0xA4DD9, size: 0x8, addend: 0x0, symName: __ZNSt3__122__make_exception_guardB8ue170006INS_6vectorIN5Catch5clara6detail11HelpColumnsENS_9allocatorIS5_EEE16__destroy_vectorEEENS_28__exception_guard_exceptionsIT_EESB_, symObjAddr: 0x4D8B4, symBinAddr: 0x10004EEB8, symSize: 0x40 }
  - { offsetInCU: 0xA4E10, offset: 0xA4E10, size: 0x8, addend: 0x0, symName: __ZNSt3__119__allocate_at_leastB8ue170006INS_9allocatorIN5Catch5clara6detail11HelpColumnsEEEEENS_19__allocation_resultINS_16allocator_traitsIT_E7pointerEEERS9_m, symObjAddr: 0x4DBFC, symBinAddr: 0x10004F200, symSize: 0x40 }
  - { offsetInCU: 0xA4E56, offset: 0xA4E56, size: 0x8, addend: 0x0, symName: __ZNSt3__112__to_addressB8ue170006IN5Catch5clara6detail11HelpColumnsEEEPT_S6_, symObjAddr: 0x4DF44, symBinAddr: 0x10004F548, symSize: 0x14 }
  - { offsetInCU: 0xA4E8C, offset: 0xA4E8C, size: 0x8, addend: 0x0, symName: __ZNSt3__130__uninitialized_allocator_copyB8ue170006INS_9allocatorIN5Catch5clara6detail11HelpColumnsEEEPKS5_S8_PS5_EET2_RT_T0_T1_SA_, symObjAddr: 0x4DFF4, symBinAddr: 0x10004F5F8, symSize: 0x80 }
  - { offsetInCU: 0xA4F2A, offset: 0xA4F2A, size: 0x8, addend: 0x0, symName: __ZNSt3__114__unwrap_rangeB8ue170006IPKN5Catch5clara6detail11HelpColumnsES6_EENS_4pairIT0_S8_EET_SA_, symObjAddr: 0x4E0EC, symBinAddr: 0x10004F6F0, symSize: 0x60 }
  - { offsetInCU: 0xA4F78, offset: 0xA4F78, size: 0x8, addend: 0x0, symName: __ZNSt3__135__uninitialized_allocator_copy_implB8ue170006INS_9allocatorIN5Catch5clara6detail11HelpColumnsEEEPKS5_S8_PS5_EET2_RT_T0_T1_SA_, symObjAddr: 0x4E14C, symBinAddr: 0x10004F750, symSize: 0xF4 }
  - { offsetInCU: 0xA5017, offset: 0xA5017, size: 0x8, addend: 0x0, symName: __ZNSt3__113__unwrap_iterB8ue170006IPN5Catch5clara6detail11HelpColumnsENS_18__unwrap_iter_implIS5_Lb1EEELi0EEEDTclsrT0_8__unwrapclsr3stdE7declvalIT_EEEES9_, symObjAddr: 0x4E240, symBinAddr: 0x10004F844, symSize: 0x24 }
  - { offsetInCU: 0xA505E, offset: 0xA505E, size: 0x8, addend: 0x0, symName: __ZNSt3__113__rewrap_iterB8ue170006IPN5Catch5clara6detail11HelpColumnsES5_NS_18__unwrap_iter_implIS5_Lb1EEEEET_S8_T0_, symObjAddr: 0x4E264, symBinAddr: 0x10004F868, symSize: 0x3C }
  - { offsetInCU: 0xA50B5, offset: 0xA50B5, size: 0x8, addend: 0x0, symName: __ZNSt3__19make_pairB8ue170006IPKN5Catch5clara6detail11HelpColumnsES6_EENS_4pairINS_18__unwrap_ref_decayIT_E4typeENS8_IT0_E4typeEEEOS9_OSC_, symObjAddr: 0x4E2A0, symBinAddr: 0x10004F8A4, symSize: 0x38 }
  - { offsetInCU: 0xA5105, offset: 0xA5105, size: 0x8, addend: 0x0, symName: __ZNSt3__113__unwrap_iterB8ue170006IPKN5Catch5clara6detail11HelpColumnsENS_18__unwrap_iter_implIS6_Lb1EEELi0EEEDTclsrT0_8__unwrapclsr3stdE7declvalIT_EEEESA_, symObjAddr: 0x4E2D8, symBinAddr: 0x10004F8DC, symSize: 0x24 }
  - { offsetInCU: 0xA527F, offset: 0xA527F, size: 0x8, addend: 0x0, symName: __ZNSt3__112__to_addressB8ue170006IKN5Catch5clara6detail11HelpColumnsEEEPT_S7_, symObjAddr: 0x4E390, symBinAddr: 0x10004F994, symSize: 0x14 }
  - { offsetInCU: 0xA52B6, offset: 0xA52B6, size: 0x8, addend: 0x0, symName: __ZNSt3__122__make_exception_guardB8ue170006INS_29_AllocatorDestroyRangeReverseINS_9allocatorIN5Catch5clara6detail11HelpColumnsEEEPS6_EEEENS_28__exception_guard_exceptionsIT_EESB_, symObjAddr: 0x4E3A4, symBinAddr: 0x10004F9A8, symSize: 0x4C }
  - { offsetInCU: 0xA52ED, offset: 0xA52ED, size: 0x8, addend: 0x0, symName: __ZNSt3__119__allocator_destroyB8ue170006INS_9allocatorIN5Catch5clara6detail11HelpColumnsEEENS_16reverse_iteratorIPS5_EES9_EEvRT_T0_T1_, symObjAddr: 0x4E6D8, symBinAddr: 0x10004FCDC, symSize: 0x70 }
  - { offsetInCU: 0xA5351, offset: 0xA5351, size: 0x8, addend: 0x0, symName: __ZNSt3__1neB8ue170006IPN5Catch5clara6detail11HelpColumnsES5_EEbRKNS_16reverse_iteratorIT_EERKNS6_IT0_EE, symObjAddr: 0x4E77C, symBinAddr: 0x10004FD80, symSize: 0x48 }
  - { offsetInCU: 0xA53A0, offset: 0xA53A0, size: 0x8, addend: 0x0, symName: __ZNSt3__112__to_addressB8ue170006INS_16reverse_iteratorIPN5Catch5clara6detail11HelpColumnsEEEvEEu7__decayIDTclsr19__to_address_helperIT_EE6__callclsr3stdE7declvalIRKS8_EEEEESA_, symObjAddr: 0x4E7F0, symBinAddr: 0x10004FDF4, symSize: 0x24 }
  - { offsetInCU: 0xA545B, offset: 0xA545B, size: 0x8, addend: 0x0, symName: __ZNSt3__18distanceB8ue170006INS_11__wrap_iterIPN5Catch5clara6detail11HelpColumnsEEEEENS_15iterator_traitsIT_E15difference_typeES9_S9_, symObjAddr: 0x4F070, symBinAddr: 0x100050674, symSize: 0x3C }
  - { offsetInCU: 0xA54A1, offset: 0xA54A1, size: 0x8, addend: 0x0, symName: __ZNSt3__1miB8ue170006IPKN5Catch5clara6detail11HelpColumnsEPS4_EEDTmicldtfp_4baseEcldtfp0_4baseEERKNS_11__wrap_iterIT_EERKNS9_IT0_EE, symObjAddr: 0x4F0AC, symBinAddr: 0x1000506B0, symSize: 0x48 }
  - { offsetInCU: 0xA54F0, offset: 0xA54F0, size: 0x8, addend: 0x0, symName: __ZNSt3__14nextB8ue170006INS_11__wrap_iterIPN5Catch5clara6detail11HelpColumnsEEEEENS_9enable_ifIXsr29__has_input_iterator_categoryIT_EE5valueES9_E4typeES9_NS_15iterator_traitsIS9_E15difference_typeE, symObjAddr: 0x4F0F4, symBinAddr: 0x1000506F8, symSize: 0x3C }
  - { offsetInCU: 0xA5536, offset: 0xA5536, size: 0x8, addend: 0x0, symName: __ZNSt3__14copyB8ue170006INS_11__wrap_iterIPN5Catch5clara6detail11HelpColumnsEEES6_EET0_T_S9_S8_, symObjAddr: 0x4F340, symBinAddr: 0x100050944, symSize: 0x50 }
  - { offsetInCU: 0xA5594, offset: 0xA5594, size: 0x8, addend: 0x0, symName: __ZNSt3__121__convert_to_integralB8ue170006El, symObjAddr: 0x4F730, symBinAddr: 0x100050D34, symSize: 0x14 }
  - { offsetInCU: 0xA55C2, offset: 0xA55C2, size: 0x8, addend: 0x0, symName: __ZNSt3__19__advanceB8ue170006INS_11__wrap_iterIPN5Catch5clara6detail11HelpColumnsEEEEEvRT_NS_15iterator_traitsIS8_E15difference_typeENS_26random_access_iterator_tagE, symObjAddr: 0x4F744, symBinAddr: 0x100050D48, symSize: 0x2C }
  - { offsetInCU: 0xA560E, offset: 0xA560E, size: 0x8, addend: 0x0, symName: __ZNSt3__130__uninitialized_allocator_copyB8ue170006INS_9allocatorIN5Catch5clara6detail11HelpColumnsEEENS_11__wrap_iterIPS5_EES9_S8_EET2_RT_T0_T1_SA_, symObjAddr: 0x4F7A0, symBinAddr: 0x100050DA4, symSize: 0x90 }
  - { offsetInCU: 0xA56AC, offset: 0xA56AC, size: 0x8, addend: 0x0, symName: __ZNSt3__114__unwrap_rangeB8ue170006INS_11__wrap_iterIPN5Catch5clara6detail11HelpColumnsEEES6_EENS_4pairIT0_S9_EET_SB_, symObjAddr: 0x4F830, symBinAddr: 0x100050E34, symSize: 0x70 }
  - { offsetInCU: 0xA56FA, offset: 0xA56FA, size: 0x8, addend: 0x0, symName: __ZNSt3__135__uninitialized_allocator_copy_implB8ue170006INS_9allocatorIN5Catch5clara6detail11HelpColumnsEEEPS5_S7_S7_EET2_RT_T0_T1_S8_, symObjAddr: 0x4F8A0, symBinAddr: 0x100050EA4, symSize: 0xF4 }
  - { offsetInCU: 0xA5798, offset: 0xA5798, size: 0x8, addend: 0x0, symName: __ZNSt3__19make_pairB8ue170006IPN5Catch5clara6detail11HelpColumnsES5_EENS_4pairINS_18__unwrap_ref_decayIT_E4typeENS7_IT0_E4typeEEEOS8_OSB_, symObjAddr: 0x4F994, symBinAddr: 0x100050F98, symSize: 0x38 }
  - { offsetInCU: 0xA57E8, offset: 0xA57E8, size: 0x8, addend: 0x0, symName: __ZNSt3__113__unwrap_iterB8ue170006INS_11__wrap_iterIPN5Catch5clara6detail11HelpColumnsEEENS_18__unwrap_iter_implIS7_Lb1EEELi0EEEDTclsrT0_8__unwrapclsr3stdE7declvalIT_EEEESB_, symObjAddr: 0x4F9CC, symBinAddr: 0x100050FD0, symSize: 0x2C }
  - { offsetInCU: 0xA5962, offset: 0xA5962, size: 0x8, addend: 0x0, symName: __ZNSt3__112__to_addressB8ue170006INS_11__wrap_iterIPN5Catch5clara6detail11HelpColumnsEEEvEEu7__decayIDTclsr19__to_address_helperIT_EE6__callclsr3stdE7declvalIRKS8_EEEEESA_, symObjAddr: 0x4FA90, symBinAddr: 0x100051094, symSize: 0x24 }
  - { offsetInCU: 0xA5A49, offset: 0xA5A49, size: 0x8, addend: 0x0, symName: __ZNSt3__113move_backwardB8ue170006IPN5Catch5clara6detail11HelpColumnsES5_EET0_T_S7_S6_, symObjAddr: 0x4FBA8, symBinAddr: 0x1000511AC, symSize: 0x40 }
  - { offsetInCU: 0xA5AA7, offset: 0xA5AA7, size: 0x8, addend: 0x0, symName: __ZNSt3__115__move_backwardB8ue170006INS_17_ClassicAlgPolicyEPN5Catch5clara6detail11HelpColumnsES6_S6_EENS_4pairIT0_T2_EES8_T1_S9_, symObjAddr: 0x4FC94, symBinAddr: 0x100051298, symSize: 0x44 }
  - { offsetInCU: 0xA5B17, offset: 0xA5B17, size: 0x8, addend: 0x0, symName: __ZNSt3__123__dispatch_copy_or_moveB8ue170006INS_17_ClassicAlgPolicyENS_20__move_backward_loopIS1_EENS_23__move_backward_trivialEPN5Catch5clara6detail11HelpColumnsES9_S9_EENS_4pairIT2_T4_EESB_T3_SC_, symObjAddr: 0x4FCD8, symBinAddr: 0x1000512DC, symSize: 0x44 }
  - { offsetInCU: 0xA5B99, offset: 0xA5B99, size: 0x8, addend: 0x0, symName: __ZNSt3__121__unwrap_and_dispatchB8ue170006INS_10__overloadINS_20__move_backward_loopINS_17_ClassicAlgPolicyEEENS_23__move_backward_trivialEEEPN5Catch5clara6detail11HelpColumnsESB_SB_Li0EEENS_4pairIT0_T2_EESD_T1_SE_, symObjAddr: 0x4FD1C, symBinAddr: 0x100051320, symSize: 0xB4 }
  - { offsetInCU: 0xA5C2E, offset: 0xA5C2E, size: 0x8, addend: 0x0, symName: __ZNSt3__114__unwrap_rangeB8ue170006IPN5Catch5clara6detail11HelpColumnsES5_EENS_4pairIT0_S7_EET_S9_, symObjAddr: 0x4FDD0, symBinAddr: 0x1000513D4, symSize: 0x60 }
  - { offsetInCU: 0xA5D11, offset: 0xA5D11, size: 0x8, addend: 0x0, symName: __ZNSt3__114__rewrap_rangeB8ue170006IPN5Catch5clara6detail11HelpColumnsES5_EET_S6_T0_, symObjAddr: 0x4FED4, symBinAddr: 0x1000514D8, symSize: 0x2C }
  - { offsetInCU: 0xA5D87, offset: 0xA5D87, size: 0x8, addend: 0x0, symName: __ZNSt3__16__copyB8ue170006INS_17_ClassicAlgPolicyENS_11__wrap_iterIPN5Catch5clara6detail11HelpColumnsEEES8_S7_EENS_4pairIT0_T2_EESA_T1_SB_, symObjAddr: 0x4FF8C, symBinAddr: 0x100051590, symSize: 0x54 }
  - { offsetInCU: 0xA5DF7, offset: 0xA5DF7, size: 0x8, addend: 0x0, symName: __ZNSt3__123__dispatch_copy_or_moveB8ue170006INS_17_ClassicAlgPolicyENS_11__copy_loopIS1_EENS_14__copy_trivialENS_11__wrap_iterIPN5Catch5clara6detail11HelpColumnsEEESB_SA_EENS_4pairIT2_T4_EESD_T3_SE_, symObjAddr: 0x4FFE0, symBinAddr: 0x1000515E4, symSize: 0x54 }
  - { offsetInCU: 0xA5E79, offset: 0xA5E79, size: 0x8, addend: 0x0, symName: __ZNSt3__121__unwrap_and_dispatchB8ue170006INS_10__overloadINS_11__copy_loopINS_17_ClassicAlgPolicyEEENS_14__copy_trivialEEENS_11__wrap_iterIPN5Catch5clara6detail11HelpColumnsEEESD_SC_Li0EEENS_4pairIT0_T2_EESF_T1_SG_, symObjAddr: 0x50034, symBinAddr: 0x100051638, symSize: 0xCC }
  - { offsetInCU: 0xA60E1, offset: 0xA60E1, size: 0x8, addend: 0x0, symName: __ZNSt3__19make_pairB8ue170006INS_11__wrap_iterIPN5Catch5clara6detail11HelpColumnsEEES6_EENS_4pairINS_18__unwrap_ref_decayIT_E4typeENS9_IT0_E4typeEEEOSA_OSD_, symObjAddr: 0x50188, symBinAddr: 0x10005178C, symSize: 0x38 }
  - { offsetInCU: 0xA6131, offset: 0xA6131, size: 0x8, addend: 0x0, symName: __ZNSt3__114__rewrap_rangeB8ue170006INS_11__wrap_iterIPN5Catch5clara6detail11HelpColumnsEEES6_EET_S8_T0_, symObjAddr: 0x501C0, symBinAddr: 0x1000517C4, symSize: 0x3C }
  - { offsetInCU: 0xA625B, offset: 0xA625B, size: 0x8, addend: 0x0, symName: __ZNSt3__113__rewrap_iterB8ue170006INS_11__wrap_iterIPN5Catch5clara6detail11HelpColumnsEEES6_NS_18__unwrap_iter_implIS7_Lb1EEEEET_SA_T0_, symObjAddr: 0x502B4, symBinAddr: 0x1000518B8, symSize: 0x4C }
  - { offsetInCU: 0xA62B2, offset: 0xA62B2, size: 0x8, addend: 0x0, symName: __ZNSt3__142__uninitialized_allocator_move_if_noexceptB8ue170006INS_9allocatorIN5Catch5clara6detail11HelpColumnsEEENS_16reverse_iteratorIPS5_EES9_S9_EET2_RT_T0_T1_SA_, symObjAddr: 0x506A4, symBinAddr: 0x100051CA8, symSize: 0x11C }
  - { offsetInCU: 0xA6352, offset: 0xA6352, size: 0x8, addend: 0x0, symName: __ZNSt3__142__uninitialized_allocator_move_if_noexceptB8ue170006INS_9allocatorIN5Catch5clara6detail11HelpColumnsEEEPS5_S7_S7_EET2_RT_T0_T1_S8_, symObjAddr: 0x507C0, symBinAddr: 0x100051DC4, symSize: 0xF4 }
  - { offsetInCU: 0xA63F1, offset: 0xA63F1, size: 0x8, addend: 0x0, symName: __ZNSt3__14swapB8ue170006IPN5Catch5clara6detail11HelpColumnsEEENS_9enable_ifIXaasr21is_move_constructibleIT_EE5valuesr18is_move_assignableIS7_EE5valueEvE4typeERS7_SA_, symObjAddr: 0x508B4, symBinAddr: 0x100051EB8, symSize: 0x3C }
  - { offsetInCU: 0xA6446, offset: 0xA6446, size: 0x8, addend: 0x0, symName: __ZNSt3__122__make_exception_guardB8ue170006INS_29_AllocatorDestroyRangeReverseINS_9allocatorIN5Catch5clara6detail11HelpColumnsEEENS_16reverse_iteratorIPS6_EEEEEENS_28__exception_guard_exceptionsIT_EESD_, symObjAddr: 0x508F0, symBinAddr: 0x100051EF4, symSize: 0x4C }
  - { offsetInCU: 0xA647D, offset: 0xA647D, size: 0x8, addend: 0x0, symName: __ZNSt3__119__allocator_destroyB8ue170006INS_9allocatorIN5Catch5clara6detail11HelpColumnsEEENS_16reverse_iteratorINS7_IPS5_EEEESA_EEvRT_T0_T1_, symObjAddr: 0x50B68, symBinAddr: 0x10005216C, symSize: 0x70 }
  - { offsetInCU: 0xA64E3, offset: 0xA64E3, size: 0x8, addend: 0x0, symName: __ZNSt3__1neB8ue170006INS_16reverse_iteratorIPN5Catch5clara6detail11HelpColumnsEEES7_EEbRKNS1_IT_EERKNS1_IT0_EE, symObjAddr: 0x50C14, symBinAddr: 0x100052218, symSize: 0x60 }
  - { offsetInCU: 0xA6532, offset: 0xA6532, size: 0x8, addend: 0x0, symName: __ZNSt3__112__to_addressB8ue170006INS_16reverse_iteratorINS1_IPN5Catch5clara6detail11HelpColumnsEEEEEvEEu7__decayIDTclsr19__to_address_helperIT_EE6__callclsr3stdE7declvalIRKS9_EEEEESB_, symObjAddr: 0x50C74, symBinAddr: 0x100052278, symSize: 0x24 }
  - { offsetInCU: 0xA6595, offset: 0xA6595, size: 0x8, addend: 0x0, symName: __ZNSt3__110__distanceB8ue170006INS_11__wrap_iterIPN5Catch5clara6detail11HelpColumnsEEEEENS_15iterator_traitsIT_E15difference_typeES9_S9_NS_26random_access_iterator_tagE, symObjAddr: 0x51008, symBinAddr: 0x10005260C, symSize: 0x30 }
  - { offsetInCU: 0xA65E6, offset: 0xA65E6, size: 0x8, addend: 0x0, symName: __ZNSt3__1miB8ue170006IPN5Catch5clara6detail11HelpColumnsES5_EEDTmicldtfp_4baseEcldtfp0_4baseEERKNS_11__wrap_iterIT_EERKNS7_IT0_EE, symObjAddr: 0x51038, symBinAddr: 0x10005263C, symSize: 0x48 }
  - { offsetInCU: 0xA6635, offset: 0xA6635, size: 0x8, addend: 0x0, symName: __ZNSt3__1eqB8ue170006IPN5Catch5clara6detail11HelpColumnsEEEbRKNS_11__wrap_iterIT_EESA_, symObjAddr: 0x510C0, symBinAddr: 0x1000526C4, symSize: 0x48 }
  - { offsetInCU: 0xA667B, offset: 0xA667B, size: 0x8, addend: 0x0, symName: __ZNSt3__122__make_exception_guardB8ue170006INS_6vectorIN5Catch5clara8TextFlow6ColumnENS_9allocatorIS5_EEE16__destroy_vectorEEENS_28__exception_guard_exceptionsIT_EESB_, symObjAddr: 0x5143C, symBinAddr: 0x100052A40, symSize: 0x40 }
  - { offsetInCU: 0xA66B1, offset: 0xA66B1, size: 0x8, addend: 0x0, symName: __ZNSt3__130__uninitialized_allocator_copyB8ue170006INS_9allocatorIN5Catch5clara8TextFlow6ColumnEEEPS5_S7_S7_EET2_RT_T0_T1_S8_, symObjAddr: 0x5165C, symBinAddr: 0x100052C60, symSize: 0x80 }
  - { offsetInCU: 0xA674F, offset: 0xA674F, size: 0x8, addend: 0x0, symName: __ZNSt3__114__unwrap_rangeB8ue170006IPN5Catch5clara8TextFlow6ColumnES5_EENS_4pairIT0_S7_EET_S9_, symObjAddr: 0x516DC, symBinAddr: 0x100052CE0, symSize: 0x60 }
  - { offsetInCU: 0xA679D, offset: 0xA679D, size: 0x8, addend: 0x0, symName: __ZNSt3__135__uninitialized_allocator_copy_implB8ue170006INS_9allocatorIN5Catch5clara8TextFlow6ColumnEEEPS5_S7_S7_EET2_RT_T0_T1_S8_, symObjAddr: 0x5173C, symBinAddr: 0x100052D40, symSize: 0xF4 }
  - { offsetInCU: 0xA683C, offset: 0xA683C, size: 0x8, addend: 0x0, symName: __ZNSt3__113__unwrap_iterB8ue170006IPN5Catch5clara8TextFlow6ColumnENS_18__unwrap_iter_implIS5_Lb1EEELi0EEEDTclsrT0_8__unwrapclsr3stdE7declvalIT_EEEES9_, symObjAddr: 0x51830, symBinAddr: 0x100052E34, symSize: 0x24 }
  - { offsetInCU: 0xA6883, offset: 0xA6883, size: 0x8, addend: 0x0, symName: __ZNSt3__113__rewrap_iterB8ue170006IPN5Catch5clara8TextFlow6ColumnES5_NS_18__unwrap_iter_implIS5_Lb1EEEEET_S8_T0_, symObjAddr: 0x51854, symBinAddr: 0x100052E58, symSize: 0x3C }
  - { offsetInCU: 0xA68DA, offset: 0xA68DA, size: 0x8, addend: 0x0, symName: __ZNSt3__19make_pairB8ue170006IPN5Catch5clara8TextFlow6ColumnES5_EENS_4pairINS_18__unwrap_ref_decayIT_E4typeENS7_IT0_E4typeEEEOS8_OSB_, symObjAddr: 0x51890, symBinAddr: 0x100052E94, symSize: 0x38 }
  - { offsetInCU: 0xA6A05, offset: 0xA6A05, size: 0x8, addend: 0x0, symName: __ZNSt3__122__make_exception_guardB8ue170006INS_29_AllocatorDestroyRangeReverseINS_9allocatorIN5Catch5clara8TextFlow6ColumnEEEPS6_EEEENS_28__exception_guard_exceptionsIT_EESB_, symObjAddr: 0x51938, symBinAddr: 0x100052F3C, symSize: 0x4C }
  - { offsetInCU: 0xA6A3C, offset: 0xA6A3C, size: 0x8, addend: 0x0, symName: __ZNSt3__119__allocator_destroyB8ue170006INS_9allocatorIN5Catch5clara8TextFlow6ColumnEEENS_16reverse_iteratorIPS5_EES9_EEvRT_T0_T1_, symObjAddr: 0x51BC8, symBinAddr: 0x1000531CC, symSize: 0x70 }
  - { offsetInCU: 0xA6AF8, offset: 0xA6AF8, size: 0x8, addend: 0x0, symName: __ZNSt3__18distanceB8ue170006IPKPKcEENS_15iterator_traitsIT_E15difference_typeES6_S6_, symObjAddr: 0x5220C, symBinAddr: 0x100053810, symSize: 0x2C }
  - { offsetInCU: 0xA6B3E, offset: 0xA6B3E, size: 0x8, addend: 0x0, symName: __ZNSt3__110__distanceB8ue170006IPKPKcEENS_15iterator_traitsIT_E15difference_typeES6_S6_NS_26random_access_iterator_tagE, symObjAddr: 0x5235C, symBinAddr: 0x100053960, symSize: 0x28 }
  - { offsetInCU: 0xA6B8F, offset: 0xA6B8F, size: 0x8, addend: 0x0, symName: __ZNSt3__122__make_exception_guardB8ue170006INS_6vectorINS_12basic_stringIcNS_11char_traitsIcEENS_9allocatorIcEEEENS5_IS7_EEE16__destroy_vectorEEENS_28__exception_guard_exceptionsIT_EESC_, symObjAddr: 0x52384, symBinAddr: 0x100053988, symSize: 0x40 }
  - { offsetInCU: 0xA6BC6, offset: 0xA6BC6, size: 0x8, addend: 0x0, symName: __ZNSt3__119__allocate_at_leastB8ue170006INS_9allocatorINS_12basic_stringIcNS_11char_traitsIcEENS1_IcEEEEEEEENS_19__allocation_resultINS_16allocator_traitsIT_E7pointerEEERSA_m, symObjAddr: 0x52674, symBinAddr: 0x100053C78, symSize: 0x40 }
  - { offsetInCU: 0xA6C0C, offset: 0xA6C0C, size: 0x8, addend: 0x0, symName: __ZNSt3__112__to_addressB8ue170006INS_12basic_stringIcNS_11char_traitsIcEENS_9allocatorIcEEEEEEPT_S8_, symObjAddr: 0x528FC, symBinAddr: 0x100053F00, symSize: 0x14 }
  - { offsetInCU: 0xA6C42, offset: 0xA6C42, size: 0x8, addend: 0x0, symName: __ZNSt3__130__uninitialized_allocator_copyB8ue170006INS_9allocatorINS_12basic_stringIcNS_11char_traitsIcEENS1_IcEEEEEEPKPKcSB_PS6_EET2_RT_T0_T1_SD_, symObjAddr: 0x529AC, symBinAddr: 0x100053FB0, symSize: 0x80 }
  - { offsetInCU: 0xA6CE0, offset: 0xA6CE0, size: 0x8, addend: 0x0, symName: __ZNSt3__114__unwrap_rangeB8ue170006IPKPKcS4_EENS_4pairIT0_S6_EET_S8_, symObjAddr: 0x52AA4, symBinAddr: 0x1000540A8, symSize: 0x60 }
  - { offsetInCU: 0xA6D2E, offset: 0xA6D2E, size: 0x8, addend: 0x0, symName: __ZNSt3__135__uninitialized_allocator_copy_implB8ue170006INS_9allocatorINS_12basic_stringIcNS_11char_traitsIcEENS1_IcEEEEEEPKPKcSB_PS6_EET2_RT_T0_T1_SD_, symObjAddr: 0x52B04, symBinAddr: 0x100054108, symSize: 0xF4 }
  - { offsetInCU: 0xA6DCD, offset: 0xA6DCD, size: 0x8, addend: 0x0, symName: __ZNSt3__113__unwrap_iterB8ue170006IPNS_12basic_stringIcNS_11char_traitsIcEENS_9allocatorIcEEEENS_18__unwrap_iter_implIS7_Lb1EEELi0EEEDTclsrT0_8__unwrapclsr3stdE7declvalIT_EEEESB_, symObjAddr: 0x52BF8, symBinAddr: 0x1000541FC, symSize: 0x24 }
  - { offsetInCU: 0xA6E14, offset: 0xA6E14, size: 0x8, addend: 0x0, symName: __ZNSt3__113__rewrap_iterB8ue170006IPNS_12basic_stringIcNS_11char_traitsIcEENS_9allocatorIcEEEES7_NS_18__unwrap_iter_implIS7_Lb1EEEEET_SA_T0_, symObjAddr: 0x52C1C, symBinAddr: 0x100054220, symSize: 0x3C }
  - { offsetInCU: 0xA6E6B, offset: 0xA6E6B, size: 0x8, addend: 0x0, symName: __ZNSt3__19make_pairB8ue170006IPKPKcS4_EENS_4pairINS_18__unwrap_ref_decayIT_E4typeENS6_IT0_E4typeEEEOS7_OSA_, symObjAddr: 0x52C58, symBinAddr: 0x10005425C, symSize: 0x38 }
  - { offsetInCU: 0xA6EBB, offset: 0xA6EBB, size: 0x8, addend: 0x0, symName: __ZNSt3__113__unwrap_iterB8ue170006IPKPKcNS_18__unwrap_iter_implIS4_Lb1EEELi0EEEDTclsrT0_8__unwrapclsr3stdE7declvalIT_EEEES8_, symObjAddr: 0x52C90, symBinAddr: 0x100054294, symSize: 0x24 }
  - { offsetInCU: 0xA7035, offset: 0xA7035, size: 0x8, addend: 0x0, symName: __ZNSt3__112__to_addressB8ue170006IKPKcEEPT_S5_, symObjAddr: 0x52D48, symBinAddr: 0x10005434C, symSize: 0x14 }
  - { offsetInCU: 0xA706C, offset: 0xA706C, size: 0x8, addend: 0x0, symName: __ZNSt3__122__make_exception_guardB8ue170006INS_29_AllocatorDestroyRangeReverseINS_9allocatorINS_12basic_stringIcNS_11char_traitsIcEENS2_IcEEEEEEPS7_EEEENS_28__exception_guard_exceptionsIT_EESC_, symObjAddr: 0x52D5C, symBinAddr: 0x100054360, symSize: 0x4C }
  - { offsetInCU: 0xA70A3, offset: 0xA70A3, size: 0x8, addend: 0x0, symName: __ZNSt3__119__allocator_destroyB8ue170006INS_9allocatorINS_12basic_stringIcNS_11char_traitsIcEENS1_IcEEEEEENS_16reverse_iteratorIPS6_EESA_EEvRT_T0_T1_, symObjAddr: 0x52FF0, symBinAddr: 0x1000545F4, symSize: 0x70 }
  - { offsetInCU: 0xA7107, offset: 0xA7107, size: 0x8, addend: 0x0, symName: __ZNSt3__1neB8ue170006IPNS_12basic_stringIcNS_11char_traitsIcEENS_9allocatorIcEEEES7_EEbRKNS_16reverse_iteratorIT_EERKNS8_IT0_EE, symObjAddr: 0x53094, symBinAddr: 0x100054698, symSize: 0x48 }
  - { offsetInCU: 0xA7156, offset: 0xA7156, size: 0x8, addend: 0x0, symName: __ZNSt3__112__to_addressB8ue170006INS_16reverse_iteratorIPNS_12basic_stringIcNS_11char_traitsIcEENS_9allocatorIcEEEEEEvEEu7__decayIDTclsr19__to_address_helperIT_EE6__callclsr3stdE7declvalIRKSA_EEEEESC_, symObjAddr: 0x53108, symBinAddr: 0x10005470C, symSize: 0x24 }
  - { offsetInCU: 0xA7211, offset: 0xA7211, size: 0x8, addend: 0x0, symName: __ZNSt3__18distanceB8ue170006IPNS_12basic_stringIcNS_11char_traitsIcEENS_9allocatorIcEEEEEENS_15iterator_traitsIT_E15difference_typeES9_S9_, symObjAddr: 0x5389C, symBinAddr: 0x100054EA0, symSize: 0x2C }
  - { offsetInCU: 0xA7257, offset: 0xA7257, size: 0x8, addend: 0x0, symName: __ZNSt3__14nextB8ue170006IPNS_12basic_stringIcNS_11char_traitsIcEENS_9allocatorIcEEEEEENS_9enable_ifIXsr29__has_input_iterator_categoryIT_EE5valueES9_E4typeES9_NS_15iterator_traitsIS9_E15difference_typeE, symObjAddr: 0x538C8, symBinAddr: 0x100054ECC, symSize: 0x34 }
  - { offsetInCU: 0xA729D, offset: 0xA729D, size: 0x8, addend: 0x0, symName: __ZNSt3__14copyB8ue170006IPNS_12basic_stringIcNS_11char_traitsIcEENS_9allocatorIcEEEES7_EET0_T_S9_S8_, symObjAddr: 0x538FC, symBinAddr: 0x100054F00, symSize: 0x40 }
  - { offsetInCU: 0xA72FB, offset: 0xA72FB, size: 0x8, addend: 0x0, symName: __ZNSt3__16__copyB8ue170006INS_17_ClassicAlgPolicyEPNS_12basic_stringIcNS_11char_traitsIcEENS_9allocatorIcEEEES8_S8_EENS_4pairIT0_T2_EESA_T1_SB_, symObjAddr: 0x539C8, symBinAddr: 0x100054FCC, symSize: 0x44 }
  - { offsetInCU: 0xA736B, offset: 0xA736B, size: 0x8, addend: 0x0, symName: __ZNSt3__19__advanceB8ue170006IPNS_12basic_stringIcNS_11char_traitsIcEENS_9allocatorIcEEEEEEvRT_NS_15iterator_traitsIS8_E15difference_typeENS_26random_access_iterator_tagE, symObjAddr: 0x53BD8, symBinAddr: 0x1000551DC, symSize: 0x30 }
  - { offsetInCU: 0xA73B7, offset: 0xA73B7, size: 0x8, addend: 0x0, symName: __ZNSt3__130__uninitialized_allocator_copyB8ue170006INS_9allocatorINS_12basic_stringIcNS_11char_traitsIcEENS1_IcEEEEEEPS6_S8_S8_EET2_RT_T0_T1_S9_, symObjAddr: 0x53C08, symBinAddr: 0x10005520C, symSize: 0x80 }
  - { offsetInCU: 0xA7455, offset: 0xA7455, size: 0x8, addend: 0x0, symName: __ZNSt3__114__unwrap_rangeB8ue170006IPNS_12basic_stringIcNS_11char_traitsIcEENS_9allocatorIcEEEES7_EENS_4pairIT0_S9_EET_SB_, symObjAddr: 0x53C88, symBinAddr: 0x10005528C, symSize: 0x60 }
  - { offsetInCU: 0xA74A3, offset: 0xA74A3, size: 0x8, addend: 0x0, symName: __ZNSt3__135__uninitialized_allocator_copy_implB8ue170006INS_9allocatorINS_12basic_stringIcNS_11char_traitsIcEENS1_IcEEEEEEPS6_S8_S8_EET2_RT_T0_T1_S9_, symObjAddr: 0x53CE8, symBinAddr: 0x1000552EC, symSize: 0xF4 }
  - { offsetInCU: 0xA7541, offset: 0xA7541, size: 0x8, addend: 0x0, symName: __ZNSt3__19make_pairB8ue170006IPNS_12basic_stringIcNS_11char_traitsIcEENS_9allocatorIcEEEES7_EENS_4pairINS_18__unwrap_ref_decayIT_E4typeENS9_IT0_E4typeEEEOSA_OSD_, symObjAddr: 0x53DDC, symBinAddr: 0x1000553E0, symSize: 0x38 }
  - { offsetInCU: 0xA766C, offset: 0xA766C, size: 0x8, addend: 0x0, symName: __ZNSt3__123__dispatch_copy_or_moveB8ue170006INS_17_ClassicAlgPolicyENS_11__copy_loopIS1_EENS_14__copy_trivialEPNS_12basic_stringIcNS_11char_traitsIcEENS_9allocatorIcEEEESB_SB_EENS_4pairIT2_T4_EESD_T3_SE_, symObjAddr: 0x53EE8, symBinAddr: 0x1000554EC, symSize: 0x44 }
  - { offsetInCU: 0xA76EE, offset: 0xA76EE, size: 0x8, addend: 0x0, symName: __ZNSt3__121__unwrap_and_dispatchB8ue170006INS_10__overloadINS_11__copy_loopINS_17_ClassicAlgPolicyEEENS_14__copy_trivialEEEPNS_12basic_stringIcNS_11char_traitsIcEENS_9allocatorIcEEEESD_SD_Li0EEENS_4pairIT0_T2_EESF_T1_SG_, symObjAddr: 0x53F2C, symBinAddr: 0x100055530, symSize: 0xB4 }
  - { offsetInCU: 0xA7783, offset: 0xA7783, size: 0x8, addend: 0x0, symName: __ZNSt3__114__rewrap_rangeB8ue170006IPNS_12basic_stringIcNS_11char_traitsIcEENS_9allocatorIcEEEES7_EET_S8_T0_, symObjAddr: 0x54068, symBinAddr: 0x10005566C, symSize: 0x2C }
  - { offsetInCU: 0xA77D2, offset: 0xA77D2, size: 0x8, addend: 0x0, symName: __ZNSt3__110__distanceB8ue170006IPNS_12basic_stringIcNS_11char_traitsIcEENS_9allocatorIcEEEEEENS_15iterator_traitsIT_E15difference_typeES9_S9_NS_26random_access_iterator_tagE, symObjAddr: 0x54164, symBinAddr: 0x100055768, symSize: 0x28 }
  - { offsetInCU: 0xA7823, offset: 0xA7823, size: 0x8, addend: 0x0, symName: __ZNSt3__18distanceB8ue170006IPN5Catch5clara6detail3OptEEENS_15iterator_traitsIT_E15difference_typeES7_S7_, symObjAddr: 0x546D4, symBinAddr: 0x100055CD8, symSize: 0x2C }
  - { offsetInCU: 0xA7869, offset: 0xA7869, size: 0x8, addend: 0x0, symName: __ZNSt3__14nextB8ue170006IPN5Catch5clara6detail3OptEEENS_9enable_ifIXsr29__has_input_iterator_categoryIT_EE5valueES7_E4typeES7_NS_15iterator_traitsIS7_E15difference_typeE, symObjAddr: 0x54700, symBinAddr: 0x100055D04, symSize: 0x34 }
  - { offsetInCU: 0xA78AF, offset: 0xA78AF, size: 0x8, addend: 0x0, symName: __ZNSt3__14copyB8ue170006IPN5Catch5clara6detail3OptES5_EET0_T_S7_S6_, symObjAddr: 0x54734, symBinAddr: 0x100055D38, symSize: 0x40 }
  - { offsetInCU: 0xA790D, offset: 0xA790D, size: 0x8, addend: 0x0, symName: __ZNSt3__16__copyB8ue170006INS_17_ClassicAlgPolicyEPN5Catch5clara6detail3OptES6_S6_EENS_4pairIT0_T2_EES8_T1_S9_, symObjAddr: 0x54800, symBinAddr: 0x100055E04, symSize: 0x44 }
  - { offsetInCU: 0xA797D, offset: 0xA797D, size: 0x8, addend: 0x0, symName: __ZNSt3__19__advanceB8ue170006IPN5Catch5clara6detail3OptEEEvRT_NS_15iterator_traitsIS6_E15difference_typeENS_26random_access_iterator_tagE, symObjAddr: 0x54A30, symBinAddr: 0x100056034, symSize: 0x30 }
  - { offsetInCU: 0xA79C9, offset: 0xA79C9, size: 0x8, addend: 0x0, symName: __ZNSt3__130__uninitialized_allocator_copyB8ue170006INS_9allocatorIN5Catch5clara6detail3OptEEEPS5_S7_S7_EET2_RT_T0_T1_S8_, symObjAddr: 0x54A9C, symBinAddr: 0x1000560A0, symSize: 0x80 }
  - { offsetInCU: 0xA7A67, offset: 0xA7A67, size: 0x8, addend: 0x0, symName: __ZNSt3__114__unwrap_rangeB8ue170006IPN5Catch5clara6detail3OptES5_EENS_4pairIT0_S7_EET_S9_, symObjAddr: 0x54B94, symBinAddr: 0x100056198, symSize: 0x60 }
  - { offsetInCU: 0xA7AB5, offset: 0xA7AB5, size: 0x8, addend: 0x0, symName: __ZNSt3__135__uninitialized_allocator_copy_implB8ue170006INS_9allocatorIN5Catch5clara6detail3OptEEEPS5_S7_S7_EET2_RT_T0_T1_S8_, symObjAddr: 0x54BF4, symBinAddr: 0x1000561F8, symSize: 0xF4 }
  - { offsetInCU: 0xA7B54, offset: 0xA7B54, size: 0x8, addend: 0x0, symName: __ZNSt3__113__unwrap_iterB8ue170006IPN5Catch5clara6detail3OptENS_18__unwrap_iter_implIS5_Lb1EEELi0EEEDTclsrT0_8__unwrapclsr3stdE7declvalIT_EEEES9_, symObjAddr: 0x54CE8, symBinAddr: 0x1000562EC, symSize: 0x24 }
  - { offsetInCU: 0xA7B9B, offset: 0xA7B9B, size: 0x8, addend: 0x0, symName: __ZNSt3__113__rewrap_iterB8ue170006IPN5Catch5clara6detail3OptES5_NS_18__unwrap_iter_implIS5_Lb1EEEEET_S8_T0_, symObjAddr: 0x54D0C, symBinAddr: 0x100056310, symSize: 0x3C }
  - { offsetInCU: 0xA7BF2, offset: 0xA7BF2, size: 0x8, addend: 0x0, symName: __ZNSt3__19make_pairB8ue170006IPN5Catch5clara6detail3OptES5_EENS_4pairINS_18__unwrap_ref_decayIT_E4typeENS7_IT0_E4typeEEEOS8_OSB_, symObjAddr: 0x54D48, symBinAddr: 0x10005634C, symSize: 0x38 }
  - { offsetInCU: 0xA7D1D, offset: 0xA7D1D, size: 0x8, addend: 0x0, symName: __ZNSt3__122__make_exception_guardB8ue170006INS_29_AllocatorDestroyRangeReverseINS_9allocatorIN5Catch5clara6detail3OptEEEPS6_EEEENS_28__exception_guard_exceptionsIT_EESB_, symObjAddr: 0x54DF0, symBinAddr: 0x1000563F4, symSize: 0x4C }
  - { offsetInCU: 0xA7D54, offset: 0xA7D54, size: 0x8, addend: 0x0, symName: __ZNSt3__119__allocator_destroyB8ue170006INS_9allocatorIN5Catch5clara6detail3OptEEENS_16reverse_iteratorIPS5_EES9_EEvRT_T0_T1_, symObjAddr: 0x5529C, symBinAddr: 0x1000568A0, symSize: 0x70 }
  - { offsetInCU: 0xA7DB8, offset: 0xA7DB8, size: 0x8, addend: 0x0, symName: __ZNSt3__1neB8ue170006IPN5Catch5clara6detail3OptES5_EEbRKNS_16reverse_iteratorIT_EERKNS6_IT0_EE, symObjAddr: 0x55340, symBinAddr: 0x100056944, symSize: 0x48 }
  - { offsetInCU: 0xA7E07, offset: 0xA7E07, size: 0x8, addend: 0x0, symName: __ZNSt3__112__to_addressB8ue170006INS_16reverse_iteratorIPN5Catch5clara6detail3OptEEEvEEu7__decayIDTclsr19__to_address_helperIT_EE6__callclsr3stdE7declvalIRKS8_EEEEESA_, symObjAddr: 0x55388, symBinAddr: 0x10005698C, symSize: 0x24 }
  - { offsetInCU: 0xA7EC2, offset: 0xA7EC2, size: 0x8, addend: 0x0, symName: __ZNSt3__123__dispatch_copy_or_moveB8ue170006INS_17_ClassicAlgPolicyENS_11__copy_loopIS1_EENS_14__copy_trivialEPN5Catch5clara6detail3OptES9_S9_EENS_4pairIT2_T4_EESB_T3_SC_, symObjAddr: 0x5552C, symBinAddr: 0x100056B30, symSize: 0x44 }
  - { offsetInCU: 0xA7F44, offset: 0xA7F44, size: 0x8, addend: 0x0, symName: __ZNSt3__121__unwrap_and_dispatchB8ue170006INS_10__overloadINS_11__copy_loopINS_17_ClassicAlgPolicyEEENS_14__copy_trivialEEEPN5Catch5clara6detail3OptESB_SB_Li0EEENS_4pairIT0_T2_EESD_T1_SE_, symObjAddr: 0x55570, symBinAddr: 0x100056B74, symSize: 0xB4 }
  - { offsetInCU: 0xA7FD9, offset: 0xA7FD9, size: 0x8, addend: 0x0, symName: __ZNSt3__114__rewrap_rangeB8ue170006IPN5Catch5clara6detail3OptES5_EET_S6_T0_, symObjAddr: 0x556AC, symBinAddr: 0x100056CB0, symSize: 0x2C }
  - { offsetInCU: 0xA8028, offset: 0xA8028, size: 0x8, addend: 0x0, symName: __ZNSt3__14swapB8ue170006IPN5Catch5clara6detail8BoundRefEEENS_9enable_ifIXaasr21is_move_constructibleIT_EE5valuesr18is_move_assignableIS7_EE5valueEvE4typeERS7_SA_, symObjAddr: 0x55864, symBinAddr: 0x100056E68, symSize: 0x3C }
  - { offsetInCU: 0xA807D, offset: 0xA807D, size: 0x8, addend: 0x0, symName: __ZNSt3__119__allocate_at_leastB8ue170006INS_9allocatorIN5Catch5clara6detail3OptEEEEENS_19__allocation_resultINS_16allocator_traitsIT_E7pointerEEERS9_m, symObjAddr: 0x5591C, symBinAddr: 0x100056F20, symSize: 0x40 }
  - { offsetInCU: 0xA80C3, offset: 0xA80C3, size: 0x8, addend: 0x0, symName: __ZNSt3__110__distanceB8ue170006IPN5Catch5clara6detail3OptEEENS_15iterator_traitsIT_E15difference_typeES7_S7_NS_26random_access_iterator_tagE, symObjAddr: 0x55B24, symBinAddr: 0x100057128, symSize: 0x28 }
  - { offsetInCU: 0xA8114, offset: 0xA8114, size: 0x8, addend: 0x0, symName: __ZNSt3__18distanceB8ue170006IPN5Catch5clara6detail3ArgEEENS_15iterator_traitsIT_E15difference_typeES7_S7_, symObjAddr: 0x55D4C, symBinAddr: 0x100057350, symSize: 0x2C }
  - { offsetInCU: 0xA815A, offset: 0xA815A, size: 0x8, addend: 0x0, symName: __ZNSt3__14nextB8ue170006IPN5Catch5clara6detail3ArgEEENS_9enable_ifIXsr29__has_input_iterator_categoryIT_EE5valueES7_E4typeES7_NS_15iterator_traitsIS7_E15difference_typeE, symObjAddr: 0x55D78, symBinAddr: 0x10005737C, symSize: 0x34 }
  - { offsetInCU: 0xA81A0, offset: 0xA81A0, size: 0x8, addend: 0x0, symName: __ZNSt3__14copyB8ue170006IPN5Catch5clara6detail3ArgES5_EET0_T_S7_S6_, symObjAddr: 0x55DAC, symBinAddr: 0x1000573B0, symSize: 0x40 }
  - { offsetInCU: 0xA81FE, offset: 0xA81FE, size: 0x8, addend: 0x0, symName: __ZNSt3__16__copyB8ue170006INS_17_ClassicAlgPolicyEPN5Catch5clara6detail3ArgES6_S6_EENS_4pairIT0_T2_EES8_T1_S9_, symObjAddr: 0x55E78, symBinAddr: 0x10005747C, symSize: 0x44 }
  - { offsetInCU: 0xA826E, offset: 0xA826E, size: 0x8, addend: 0x0, symName: __ZNSt3__19__advanceB8ue170006IPN5Catch5clara6detail3ArgEEEvRT_NS_15iterator_traitsIS6_E15difference_typeENS_26random_access_iterator_tagE, symObjAddr: 0x560A8, symBinAddr: 0x1000576AC, symSize: 0x30 }
  - { offsetInCU: 0xA82BA, offset: 0xA82BA, size: 0x8, addend: 0x0, symName: __ZNSt3__130__uninitialized_allocator_copyB8ue170006INS_9allocatorIN5Catch5clara6detail3ArgEEEPS5_S7_S7_EET2_RT_T0_T1_S8_, symObjAddr: 0x56114, symBinAddr: 0x100057718, symSize: 0x80 }
  - { offsetInCU: 0xA8358, offset: 0xA8358, size: 0x8, addend: 0x0, symName: __ZNSt3__114__unwrap_rangeB8ue170006IPN5Catch5clara6detail3ArgES5_EENS_4pairIT0_S7_EET_S9_, symObjAddr: 0x5620C, symBinAddr: 0x100057810, symSize: 0x60 }
  - { offsetInCU: 0xA83A6, offset: 0xA83A6, size: 0x8, addend: 0x0, symName: __ZNSt3__135__uninitialized_allocator_copy_implB8ue170006INS_9allocatorIN5Catch5clara6detail3ArgEEEPS5_S7_S7_EET2_RT_T0_T1_S8_, symObjAddr: 0x5626C, symBinAddr: 0x100057870, symSize: 0xF4 }
  - { offsetInCU: 0xA8445, offset: 0xA8445, size: 0x8, addend: 0x0, symName: __ZNSt3__113__unwrap_iterB8ue170006IPN5Catch5clara6detail3ArgENS_18__unwrap_iter_implIS5_Lb1EEELi0EEEDTclsrT0_8__unwrapclsr3stdE7declvalIT_EEEES9_, symObjAddr: 0x56360, symBinAddr: 0x100057964, symSize: 0x24 }
  - { offsetInCU: 0xA848C, offset: 0xA848C, size: 0x8, addend: 0x0, symName: __ZNSt3__113__rewrap_iterB8ue170006IPN5Catch5clara6detail3ArgES5_NS_18__unwrap_iter_implIS5_Lb1EEEEET_S8_T0_, symObjAddr: 0x56384, symBinAddr: 0x100057988, symSize: 0x3C }
  - { offsetInCU: 0xA84E3, offset: 0xA84E3, size: 0x8, addend: 0x0, symName: __ZNSt3__19make_pairB8ue170006IPN5Catch5clara6detail3ArgES5_EENS_4pairINS_18__unwrap_ref_decayIT_E4typeENS7_IT0_E4typeEEEOS8_OSB_, symObjAddr: 0x563C0, symBinAddr: 0x1000579C4, symSize: 0x38 }
  - { offsetInCU: 0xA860E, offset: 0xA860E, size: 0x8, addend: 0x0, symName: __ZNSt3__122__make_exception_guardB8ue170006INS_29_AllocatorDestroyRangeReverseINS_9allocatorIN5Catch5clara6detail3ArgEEEPS6_EEEENS_28__exception_guard_exceptionsIT_EESB_, symObjAddr: 0x56468, symBinAddr: 0x100057A6C, symSize: 0x4C }
  - { offsetInCU: 0xA8645, offset: 0xA8645, size: 0x8, addend: 0x0, symName: __ZNSt3__119__allocator_destroyB8ue170006INS_9allocatorIN5Catch5clara6detail3ArgEEENS_16reverse_iteratorIPS5_EES9_EEvRT_T0_T1_, symObjAddr: 0x568B0, symBinAddr: 0x100057EB4, symSize: 0x70 }
  - { offsetInCU: 0xA86A9, offset: 0xA86A9, size: 0x8, addend: 0x0, symName: __ZNSt3__1neB8ue170006IPN5Catch5clara6detail3ArgES5_EEbRKNS_16reverse_iteratorIT_EERKNS6_IT0_EE, symObjAddr: 0x56954, symBinAddr: 0x100057F58, symSize: 0x48 }
  - { offsetInCU: 0xA86F8, offset: 0xA86F8, size: 0x8, addend: 0x0, symName: __ZNSt3__112__to_addressB8ue170006INS_16reverse_iteratorIPN5Catch5clara6detail3ArgEEEvEEu7__decayIDTclsr19__to_address_helperIT_EE6__callclsr3stdE7declvalIRKS8_EEEEESA_, symObjAddr: 0x5699C, symBinAddr: 0x100057FA0, symSize: 0x24 }
  - { offsetInCU: 0xA87B3, offset: 0xA87B3, size: 0x8, addend: 0x0, symName: __ZNSt3__123__dispatch_copy_or_moveB8ue170006INS_17_ClassicAlgPolicyENS_11__copy_loopIS1_EENS_14__copy_trivialEPN5Catch5clara6detail3ArgES9_S9_EENS_4pairIT2_T4_EESB_T3_SC_, symObjAddr: 0x56B40, symBinAddr: 0x100058144, symSize: 0x44 }
  - { offsetInCU: 0xA8835, offset: 0xA8835, size: 0x8, addend: 0x0, symName: __ZNSt3__121__unwrap_and_dispatchB8ue170006INS_10__overloadINS_11__copy_loopINS_17_ClassicAlgPolicyEEENS_14__copy_trivialEEEPN5Catch5clara6detail3ArgESB_SB_Li0EEENS_4pairIT0_T2_EESD_T1_SE_, symObjAddr: 0x56B84, symBinAddr: 0x100058188, symSize: 0xB4 }
  - { offsetInCU: 0xA88CA, offset: 0xA88CA, size: 0x8, addend: 0x0, symName: __ZNSt3__114__rewrap_rangeB8ue170006IPN5Catch5clara6detail3ArgES5_EET_S6_T0_, symObjAddr: 0x56CC0, symBinAddr: 0x1000582C4, symSize: 0x2C }
  - { offsetInCU: 0xA8919, offset: 0xA8919, size: 0x8, addend: 0x0, symName: __ZNSt3__119__allocate_at_leastB8ue170006INS_9allocatorIN5Catch5clara6detail3ArgEEEEENS_19__allocation_resultINS_16allocator_traitsIT_E7pointerEEERS9_m, symObjAddr: 0x56E4C, symBinAddr: 0x100058450, symSize: 0x40 }
  - { offsetInCU: 0xA895F, offset: 0xA895F, size: 0x8, addend: 0x0, symName: __ZNSt3__110__distanceB8ue170006IPN5Catch5clara6detail3ArgEEENS_15iterator_traitsIT_E15difference_typeES7_S7_NS_26random_access_iterator_tagE, symObjAddr: 0x5704C, symBinAddr: 0x100058650, symSize: 0x28 }
  - { offsetInCU: 0xA89AF, offset: 0xA89AF, size: 0x8, addend: 0x0, symName: __ZNSt3__142__uninitialized_allocator_move_if_noexceptB8ue170006INS_9allocatorINS_12basic_stringIcNS_11char_traitsIcEENS1_IcEEEEEENS_16reverse_iteratorIPS6_EESA_SA_EET2_RT_T0_T1_SB_, symObjAddr: 0x57698, symBinAddr: 0x100058C9C, symSize: 0x11C }
  - { offsetInCU: 0xA8A50, offset: 0xA8A50, size: 0x8, addend: 0x0, symName: __ZNSt3__122__make_exception_guardB8ue170006INS_29_AllocatorDestroyRangeReverseINS_9allocatorINS_12basic_stringIcNS_11char_traitsIcEENS2_IcEEEEEENS_16reverse_iteratorIPS7_EEEEEENS_28__exception_guard_exceptionsIT_EESE_, symObjAddr: 0x577B4, symBinAddr: 0x100058DB8, symSize: 0x4C }
  - { offsetInCU: 0xA8A87, offset: 0xA8A87, size: 0x8, addend: 0x0, symName: __ZNSt3__119__allocator_destroyB8ue170006INS_9allocatorINS_12basic_stringIcNS_11char_traitsIcEENS1_IcEEEEEENS_16reverse_iteratorINS8_IPS6_EEEESB_EEvRT_T0_T1_, symObjAddr: 0x57A2C, symBinAddr: 0x100059030, symSize: 0x70 }
  - { offsetInCU: 0xA8AED, offset: 0xA8AED, size: 0x8, addend: 0x0, symName: __ZNSt3__1neB8ue170006INS_16reverse_iteratorIPNS_12basic_stringIcNS_11char_traitsIcEENS_9allocatorIcEEEEEES9_EEbRKNS1_IT_EERKNS1_IT0_EE, symObjAddr: 0x57AD8, symBinAddr: 0x1000590DC, symSize: 0x60 }
  - { offsetInCU: 0xA8B3C, offset: 0xA8B3C, size: 0x8, addend: 0x0, symName: __ZNSt3__112__to_addressB8ue170006INS_16reverse_iteratorINS1_IPNS_12basic_stringIcNS_11char_traitsIcEENS_9allocatorIcEEEEEEEEvEEu7__decayIDTclsr19__to_address_helperIT_EE6__callclsr3stdE7declvalIRKSB_EEEEESD_, symObjAddr: 0x57B38, symBinAddr: 0x10005913C, symSize: 0x24 }
  - { offsetInCU: 0xA8B9F, offset: 0xA8B9F, size: 0x8, addend: 0x0, symName: __ZNSt3__13minB8ue170006IiNS_6__lessIvvEEEERKT_S5_S5_T0_, symObjAddr: 0x57E78, symBinAddr: 0x10005947C, symSize: 0x54 }
  - { offsetInCU: 0xA8BFD, offset: 0xA8BFD, size: 0x8, addend: 0x0, symName: __ZNSt3__1neB8ue170006IPN5Catch8TestSpec11FilterMatchEEEbRKNS_11__wrap_iterIT_EES9_, symObjAddr: 0x586BC, symBinAddr: 0x100059CC0, symSize: 0x34 }
  - { offsetInCU: 0xA8C43, offset: 0xA8C43, size: 0x8, addend: 0x0, symName: __ZNSt3__1neB8ue170006IPKNS_10shared_ptrIN5Catch16IReporterFactoryEEEEEbRKNS_11__wrap_iterIT_EESB_, symObjAddr: 0x58ACC, symBinAddr: 0x10005A0D0, symSize: 0x34 }
  - { offsetInCU: 0xA8C89, offset: 0xA8C89, size: 0x8, addend: 0x0, symName: __ZNSt3__1eqB8ue170006IPKNS_10shared_ptrIN5Catch16IReporterFactoryEEEEEbRKNS_11__wrap_iterIT_EESB_, symObjAddr: 0x58CD8, symBinAddr: 0x10005A2DC, symSize: 0x48 }
  - { offsetInCU: 0xA8CCF, offset: 0xA8CCF, size: 0x8, addend: 0x0, symName: __ZNSt3__112__to_addressB8ue170006IN5Catch8TestSpec11FilterMatchEEEPT_S5_, symObjAddr: 0x59638, symBinAddr: 0x10005AC3C, symSize: 0x14 }
  - { offsetInCU: 0xA8D06, offset: 0xA8D06, size: 0x8, addend: 0x0, symName: __ZNSt3__112__to_addressB8ue170006IPKN5Catch8TestCaseEEEPT_S6_, symObjAddr: 0x59A60, symBinAddr: 0x10005B064, symSize: 0x14 }
  - { offsetInCU: 0xA8D66, offset: 0xA8D66, size: 0x8, addend: 0x0, symName: __ZNSt3__127__tree_balance_after_insertB8ue170006IPNS_16__tree_node_baseIPvEEEEvT_S5_, symObjAddr: 0x5A8C0, symBinAddr: 0x10005BEC4, symSize: 0x32C }
  - { offsetInCU: 0xA8DE3, offset: 0xA8DE3, size: 0x8, addend: 0x0, symName: __ZNSt3__120__tree_is_left_childB8ue170006IPNS_16__tree_node_baseIPvEEEEbT_, symObjAddr: 0x5AC2C, symBinAddr: 0x10005C230, symSize: 0x2C }
  - { offsetInCU: 0xA8E19, offset: 0xA8E19, size: 0x8, addend: 0x0, symName: __ZNSt3__118__tree_left_rotateB8ue170006IPNS_16__tree_node_baseIPvEEEEvT_, symObjAddr: 0x5AC58, symBinAddr: 0x10005C25C, symSize: 0xD8 }
  - { offsetInCU: 0xA8E5B, offset: 0xA8E5B, size: 0x8, addend: 0x0, symName: __ZNSt3__119__tree_right_rotateB8ue170006IPNS_16__tree_node_baseIPvEEEEvT_, symObjAddr: 0x5AD30, symBinAddr: 0x10005C334, symSize: 0xCC }
  - { offsetInCU: 0xA8E9E, offset: 0xA8E9E, size: 0x8, addend: 0x0, symName: __ZNSt3__1eqB8ue170006IPN5Catch8TestSpec11FilterMatchEEEbRKNS_11__wrap_iterIT_EES9_, symObjAddr: 0x5B1BC, symBinAddr: 0x10005C7C0, symSize: 0x48 }
  - { offsetInCU: 0xA8EE4, offset: 0xA8EE4, size: 0x8, addend: 0x0, symName: __ZNSt3__1neB8ue170006IPKPKN5Catch8TestCaseEEEbRKNS_11__wrap_iterIT_EESB_, symObjAddr: 0x5B248, symBinAddr: 0x10005C84C, symSize: 0x34 }
  - { offsetInCU: 0xA8F2A, offset: 0xA8F2A, size: 0x8, addend: 0x0, symName: __ZNSt3__1eqB8ue170006IPKPKN5Catch8TestCaseEEEbRKNS_11__wrap_iterIT_EESB_, symObjAddr: 0x5B3CC, symBinAddr: 0x10005C9D0, symSize: 0x48 }
  - { offsetInCU: 0xA8F6F, offset: 0xA8F6F, size: 0x8, addend: 0x0, symName: __ZNSt3__1eqB8ue170006ERKNS_21__tree_const_iteratorIPKN5Catch8TestCaseEPNS_11__tree_nodeIS4_PvEElEESB_, symObjAddr: 0x5B950, symBinAddr: 0x10005CF54, symSize: 0x30 }
  - { offsetInCU: 0xA8FAD, offset: 0xA8FAD, size: 0x8, addend: 0x0, symName: __ZNSt3__14nextB8ue170006INS_21__tree_const_iteratorIPKN5Catch8TestCaseEPNS_11__tree_nodeIS5_PvEElEEEENS_9enable_ifIXsr29__has_input_iterator_categoryIT_EE5valueESC_E4typeESC_NS_15iterator_traitsISC_E15difference_typeE, symObjAddr: 0x5BA48, symBinAddr: 0x10005D04C, symSize: 0x3C }
  - { offsetInCU: 0xA8FF3, offset: 0xA8FF3, size: 0x8, addend: 0x0, symName: __ZNSt3__116__tree_prev_iterB8ue170006IPNS_16__tree_node_baseIPvEEPNS_15__tree_end_nodeIS4_EEEET_T0_, symObjAddr: 0x5BAF0, symBinAddr: 0x10005D0F4, symSize: 0x88 }
  - { offsetInCU: 0xA9042, offset: 0xA9042, size: 0x8, addend: 0x0, symName: __ZNSt3__110__tree_maxB8ue170006IPNS_16__tree_node_baseIPvEEEET_S5_, symObjAddr: 0x5BB78, symBinAddr: 0x10005D17C, symSize: 0x40 }
  - { offsetInCU: 0xA9079, offset: 0xA9079, size: 0x8, addend: 0x0, symName: __ZNSt3__19__advanceB8ue170006INS_21__tree_const_iteratorIPKN5Catch8TestCaseEPNS_11__tree_nodeIS5_PvEElEEEEvRT_NS_15iterator_traitsISB_E15difference_typeENS_26bidirectional_iterator_tagE, symObjAddr: 0x5BBF0, symBinAddr: 0x10005D1F4, symSize: 0xA4 }
  - { offsetInCU: 0xA90C6, offset: 0xA90C6, size: 0x8, addend: 0x0, symName: __ZNSt3__116__tree_next_iterB8ue170006IPNS_15__tree_end_nodeIPNS_16__tree_node_baseIPvEEEES5_EET_T0_, symObjAddr: 0x5BCCC, symBinAddr: 0x10005D2D0, symSize: 0x80 }
  - { offsetInCU: 0xA9106, offset: 0xA9106, size: 0x8, addend: 0x0, symName: __ZNSt3__110__tree_minB8ue170006IPNS_16__tree_node_baseIPvEEEET_S5_, symObjAddr: 0x5BD4C, symBinAddr: 0x10005D350, symSize: 0x40 }
  - { offsetInCU: 0xA913C, offset: 0xA913C, size: 0x8, addend: 0x0, symName: __ZNSt3__1neB8ue170006ERKNS_21__tree_const_iteratorIPKN5Catch8TestCaseEPNS_11__tree_nodeIS4_PvEElEESB_, symObjAddr: 0x5C008, symBinAddr: 0x10005D60C, symSize: 0x34 }
  - { offsetInCU: 0xA917A, offset: 0xA917A, size: 0x8, addend: 0x0, symName: __ZNSt3__13maxB8ue170006IiNS_6__lessIvvEEEERKT_S5_S5_T0_, symObjAddr: 0x5C064, symBinAddr: 0x10005D668, symSize: 0x54 }
  - { offsetInCU: 0xA91D8, offset: 0xA91D8, size: 0x8, addend: 0x0, symName: __ZNSt3__1eqB8ue170006IPPN5Catch10ISingletonEEEbRKNS_11__wrap_iterIT_EES9_, symObjAddr: 0x5C284, symBinAddr: 0x10005D888, symSize: 0x48 }
  - { offsetInCU: 0xA921E, offset: 0xA921E, size: 0x8, addend: 0x0, symName: __ZNSt3__112__to_addressB8ue170006INS_10unique_ptrINS_19basic_ostringstreamIcNS_11char_traitsIcEENS_9allocatorIcEEEENS_14default_deleteIS7_EEEEEEPT_SC_, symObjAddr: 0x5D69C, symBinAddr: 0x10005ECA0, symSize: 0x14 }
  - { offsetInCU: 0xA9255, offset: 0xA9255, size: 0x8, addend: 0x0, symName: __ZNSt3__119__allocate_at_leastB8ue170006INS_9allocatorINS_10unique_ptrINS_19basic_ostringstreamIcNS_11char_traitsIcEENS1_IcEEEENS_14default_deleteIS7_EEEEEEEENS_19__allocation_resultINS_16allocator_traitsIT_E7pointerEEERSE_m, symObjAddr: 0x5DEC8, symBinAddr: 0x10005F4CC, symSize: 0x40 }
  - { offsetInCU: 0xA929A, offset: 0xA929A, size: 0x8, addend: 0x0, symName: __ZNSt3__142__uninitialized_allocator_move_if_noexceptB8ue170006INS_9allocatorINS_10unique_ptrINS_19basic_ostringstreamIcNS_11char_traitsIcEENS1_IcEEEENS_14default_deleteIS7_EEEEEENS_16reverse_iteratorIPSA_EESE_SE_EET2_RT_T0_T1_SF_, symObjAddr: 0x5E150, symBinAddr: 0x10005F754, symSize: 0x12C }
  - { offsetInCU: 0xA933B, offset: 0xA933B, size: 0x8, addend: 0x0, symName: __ZNSt3__14swapB8ue170006IPNS_10unique_ptrINS_19basic_ostringstreamIcNS_11char_traitsIcEENS_9allocatorIcEEEENS_14default_deleteIS7_EEEEEENS_9enable_ifIXaasr21is_move_constructibleIT_EE5valuesr18is_move_assignableISD_EE5valueEvE4typeERSD_SG_, symObjAddr: 0x5E2C8, symBinAddr: 0x10005F8CC, symSize: 0x3C }
  - { offsetInCU: 0xA9390, offset: 0xA9390, size: 0x8, addend: 0x0, symName: __ZNSt3__122__make_exception_guardB8ue170006INS_29_AllocatorDestroyRangeReverseINS_9allocatorINS_10unique_ptrINS_19basic_ostringstreamIcNS_11char_traitsIcEENS2_IcEEEENS_14default_deleteIS8_EEEEEENS_16reverse_iteratorIPSB_EEEEEENS_28__exception_guard_exceptionsIT_EESI_, symObjAddr: 0x5E3F8, symBinAddr: 0x10005F9FC, symSize: 0x4C }
  - { offsetInCU: 0xA93C8, offset: 0xA93C8, size: 0x8, addend: 0x0, symName: __ZNSt3__1neB8ue170006IPNS_10unique_ptrINS_19basic_ostringstreamIcNS_11char_traitsIcEENS_9allocatorIcEEEENS_14default_deleteIS7_EEEESB_EEbRKNS_16reverse_iteratorIT_EERKNSC_IT0_EE, symObjAddr: 0x5E488, symBinAddr: 0x10005FA8C, symSize: 0x48 }
  - { offsetInCU: 0xA9417, offset: 0xA9417, size: 0x8, addend: 0x0, symName: __ZNSt3__112__to_addressB8ue170006INS_16reverse_iteratorIPNS_10unique_ptrINS_19basic_ostringstreamIcNS_11char_traitsIcEENS_9allocatorIcEEEENS_14default_deleteIS8_EEEEEEvEEu7__decayIDTclsr19__to_address_helperIT_EE6__callclsr3stdE7declvalIRKSE_EEEEESG_, symObjAddr: 0x5E4D0, symBinAddr: 0x10005FAD4, symSize: 0x24 }
  - { offsetInCU: 0xA9479, offset: 0xA9479, size: 0x8, addend: 0x0, symName: __ZNSt3__119__allocator_destroyB8ue170006INS_9allocatorINS_10unique_ptrINS_19basic_ostringstreamIcNS_11char_traitsIcEENS1_IcEEEENS_14default_deleteIS7_EEEEEENS_16reverse_iteratorINSC_IPSA_EEEESF_EEvRT_T0_T1_, symObjAddr: 0x5E780, symBinAddr: 0x10005FD84, symSize: 0x70 }
  - { offsetInCU: 0xA94DF, offset: 0xA94DF, size: 0x8, addend: 0x0, symName: __ZNSt3__1neB8ue170006INS_16reverse_iteratorIPNS_10unique_ptrINS_19basic_ostringstreamIcNS_11char_traitsIcEENS_9allocatorIcEEEENS_14default_deleteIS8_EEEEEESD_EEbRKNS1_IT_EERKNS1_IT0_EE, symObjAddr: 0x5E82C, symBinAddr: 0x10005FE30, symSize: 0x60 }
  - { offsetInCU: 0xA952E, offset: 0xA952E, size: 0x8, addend: 0x0, symName: __ZNSt3__112__to_addressB8ue170006INS_16reverse_iteratorINS1_IPNS_10unique_ptrINS_19basic_ostringstreamIcNS_11char_traitsIcEENS_9allocatorIcEEEENS_14default_deleteIS8_EEEEEEEEvEEu7__decayIDTclsr19__to_address_helperIT_EE6__callclsr3stdE7declvalIRKSF_EEEEESH_, symObjAddr: 0x5E8B8, symBinAddr: 0x10005FEBC, symSize: 0x24 }
  - { offsetInCU: 0xA9591, offset: 0xA9591, size: 0x8, addend: 0x0, symName: __ZNSt3__13minB8ue170006ImNS_6__lessIvvEEEERKT_S5_S5_T0_, symObjAddr: 0x5F02C, symBinAddr: 0x100060630, symSize: 0x54 }
  - { offsetInCU: 0xA95EF, offset: 0xA95EF, size: 0x8, addend: 0x0, symName: __ZNSt3__1eqB8ue170006IPKN5Catch8TestCaseEEEbRKNS_11__wrap_iterIT_EES9_, symObjAddr: 0x5F538, symBinAddr: 0x100060B3C, symSize: 0x48 }
  - { offsetInCU: 0xA9635, offset: 0xA9635, size: 0x8, addend: 0x0, symName: __ZNSt3__1eqB8ue170006IPNS_4pairIyPKN5Catch8TestCaseEEEEEbRKNS_11__wrap_iterIT_EESC_, symObjAddr: 0x5F598, symBinAddr: 0x100060B9C, symSize: 0x48 }
  - { offsetInCU: 0xA967B, offset: 0xA967B, size: 0x8, addend: 0x0, symName: __ZNSt3__1eqB8ue170006IPNS_10shared_ptrIN5Catch16TestCaseTracking8ITrackerEEEEEbRKNS_11__wrap_iterIT_EESB_, symObjAddr: 0x5F66C, symBinAddr: 0x100060C70, symSize: 0x48 }
  - { offsetInCU: 0xA96C1, offset: 0xA96C1, size: 0x8, addend: 0x0, symName: __ZNSt3__1eqB8ue170006IPKNS_10shared_ptrIN5Catch8TestSpec7PatternEEEEEbRKNS_11__wrap_iterIT_EESC_, symObjAddr: 0x5F738, symBinAddr: 0x100060D3C, symSize: 0x48 }
  - { offsetInCU: 0xA9707, offset: 0xA9707, size: 0x8, addend: 0x0, symName: __ZNSt3__122__make_exception_guardB8ue170006INS_6vectorIN5Catch8TestSpec6FilterENS_9allocatorIS4_EEE16__destroy_vectorEEENS_28__exception_guard_exceptionsIT_EESA_, symObjAddr: 0x5FC38, symBinAddr: 0x10006123C, symSize: 0x40 }
  - { offsetInCU: 0xA973E, offset: 0xA973E, size: 0x8, addend: 0x0, symName: __ZNSt3__119__allocate_at_leastB8ue170006INS_9allocatorIN5Catch8TestSpec6FilterEEEEENS_19__allocation_resultINS_16allocator_traitsIT_E7pointerEEERS8_m, symObjAddr: 0x5FED4, symBinAddr: 0x1000614D8, symSize: 0x40 }
  - { offsetInCU: 0xA9783, offset: 0xA9783, size: 0x8, addend: 0x0, symName: __ZNSt3__130__uninitialized_allocator_copyB8ue170006INS_9allocatorIN5Catch8TestSpec6FilterEEEPS4_S6_S6_EET2_RT_T0_T1_S7_, symObjAddr: 0x600B0, symBinAddr: 0x1000616B4, symSize: 0x80 }
  - { offsetInCU: 0xA9821, offset: 0xA9821, size: 0x8, addend: 0x0, symName: __ZNSt3__114__unwrap_rangeB8ue170006IPN5Catch8TestSpec6FilterES4_EENS_4pairIT0_S6_EET_S8_, symObjAddr: 0x601A8, symBinAddr: 0x1000617AC, symSize: 0x60 }
  - { offsetInCU: 0xA986F, offset: 0xA986F, size: 0x8, addend: 0x0, symName: __ZNSt3__135__uninitialized_allocator_copy_implB8ue170006INS_9allocatorIN5Catch8TestSpec6FilterEEEPS4_S6_S6_EET2_RT_T0_T1_S7_, symObjAddr: 0x60208, symBinAddr: 0x10006180C, symSize: 0xF4 }
  - { offsetInCU: 0xA990E, offset: 0xA990E, size: 0x8, addend: 0x0, symName: __ZNSt3__113__unwrap_iterB8ue170006IPN5Catch8TestSpec6FilterENS_18__unwrap_iter_implIS4_Lb1EEELi0EEEDTclsrT0_8__unwrapclsr3stdE7declvalIT_EEEES8_, symObjAddr: 0x602FC, symBinAddr: 0x100061900, symSize: 0x24 }
  - { offsetInCU: 0xA9955, offset: 0xA9955, size: 0x8, addend: 0x0, symName: __ZNSt3__113__rewrap_iterB8ue170006IPN5Catch8TestSpec6FilterES4_NS_18__unwrap_iter_implIS4_Lb1EEEEET_S7_T0_, symObjAddr: 0x60320, symBinAddr: 0x100061924, symSize: 0x3C }
  - { offsetInCU: 0xA99AC, offset: 0xA99AC, size: 0x8, addend: 0x0, symName: __ZNSt3__19make_pairB8ue170006IPN5Catch8TestSpec6FilterES4_EENS_4pairINS_18__unwrap_ref_decayIT_E4typeENS6_IT0_E4typeEEEOS7_OSA_, symObjAddr: 0x6035C, symBinAddr: 0x100061960, symSize: 0x38 }
  - { offsetInCU: 0xA9AD7, offset: 0xA9AD7, size: 0x8, addend: 0x0, symName: __ZNSt3__122__make_exception_guardB8ue170006INS_29_AllocatorDestroyRangeReverseINS_9allocatorIN5Catch8TestSpec6FilterEEEPS5_EEEENS_28__exception_guard_exceptionsIT_EESA_, symObjAddr: 0x60404, symBinAddr: 0x100061A08, symSize: 0x4C }
  - { offsetInCU: 0xA9B0F, offset: 0xA9B0F, size: 0x8, addend: 0x0, symName: __ZNSt3__122__make_exception_guardB8ue170006INS_6vectorINS_10shared_ptrIN5Catch8TestSpec7PatternEEENS_9allocatorIS6_EEE16__destroy_vectorEEENS_28__exception_guard_exceptionsIT_EESC_, symObjAddr: 0x608F4, symBinAddr: 0x100061EF8, symSize: 0x40 }
  - { offsetInCU: 0xA9B46, offset: 0xA9B46, size: 0x8, addend: 0x0, symName: __ZNSt3__119__allocate_at_leastB8ue170006INS_9allocatorINS_10shared_ptrIN5Catch8TestSpec7PatternEEEEEEENS_19__allocation_resultINS_16allocator_traitsIT_E7pointerEEERSA_m, symObjAddr: 0x60BDC, symBinAddr: 0x1000621E0, symSize: 0x40 }
  - { offsetInCU: 0xA9B8C, offset: 0xA9B8C, size: 0x8, addend: 0x0, symName: __ZNSt3__112__to_addressB8ue170006INS_10shared_ptrIN5Catch8TestSpec7PatternEEEEEPT_S7_, symObjAddr: 0x60EA0, symBinAddr: 0x1000624A4, symSize: 0x14 }
  - { offsetInCU: 0xA9BC2, offset: 0xA9BC2, size: 0x8, addend: 0x0, symName: __ZNSt3__130__uninitialized_allocator_copyB8ue170006INS_9allocatorINS_10shared_ptrIN5Catch8TestSpec7PatternEEEEEPS6_S8_S8_EET2_RT_T0_T1_S9_, symObjAddr: 0x60F50, symBinAddr: 0x100062554, symSize: 0x80 }
  - { offsetInCU: 0xA9C60, offset: 0xA9C60, size: 0x8, addend: 0x0, symName: __ZNSt3__114__unwrap_rangeB8ue170006IPNS_10shared_ptrIN5Catch8TestSpec7PatternEEES6_EENS_4pairIT0_S8_EET_SA_, symObjAddr: 0x61040, symBinAddr: 0x100062644, symSize: 0x60 }
  - { offsetInCU: 0xA9CAE, offset: 0xA9CAE, size: 0x8, addend: 0x0, symName: __ZNSt3__135__uninitialized_allocator_copy_implB8ue170006INS_9allocatorINS_10shared_ptrIN5Catch8TestSpec7PatternEEEEEPS6_S8_S8_EET2_RT_T0_T1_S9_, symObjAddr: 0x610A0, symBinAddr: 0x1000626A4, symSize: 0xF4 }
  - { offsetInCU: 0xA9D4D, offset: 0xA9D4D, size: 0x8, addend: 0x0, symName: __ZNSt3__113__unwrap_iterB8ue170006IPNS_10shared_ptrIN5Catch8TestSpec7PatternEEENS_18__unwrap_iter_implIS6_Lb1EEELi0EEEDTclsrT0_8__unwrapclsr3stdE7declvalIT_EEEESA_, symObjAddr: 0x61194, symBinAddr: 0x100062798, symSize: 0x24 }
  - { offsetInCU: 0xA9D94, offset: 0xA9D94, size: 0x8, addend: 0x0, symName: __ZNSt3__113__rewrap_iterB8ue170006IPNS_10shared_ptrIN5Catch8TestSpec7PatternEEES6_NS_18__unwrap_iter_implIS6_Lb1EEEEET_S9_T0_, symObjAddr: 0x611B8, symBinAddr: 0x1000627BC, symSize: 0x3C }
  - { offsetInCU: 0xA9DEB, offset: 0xA9DEB, size: 0x8, addend: 0x0, symName: __ZNSt3__19make_pairB8ue170006IPNS_10shared_ptrIN5Catch8TestSpec7PatternEEES6_EENS_4pairINS_18__unwrap_ref_decayIT_E4typeENS8_IT0_E4typeEEEOS9_OSC_, symObjAddr: 0x611F4, symBinAddr: 0x1000627F8, symSize: 0x38 }
  - { offsetInCU: 0xA9F16, offset: 0xA9F16, size: 0x8, addend: 0x0, symName: __ZNSt3__122__make_exception_guardB8ue170006INS_29_AllocatorDestroyRangeReverseINS_9allocatorINS_10shared_ptrIN5Catch8TestSpec7PatternEEEEEPS7_EEEENS_28__exception_guard_exceptionsIT_EESC_, symObjAddr: 0x6129C, symBinAddr: 0x1000628A0, symSize: 0x4C }
  - { offsetInCU: 0xA9F4D, offset: 0xA9F4D, size: 0x8, addend: 0x0, symName: __ZNSt3__119__allocator_destroyB8ue170006INS_9allocatorINS_10shared_ptrIN5Catch8TestSpec7PatternEEEEENS_16reverse_iteratorIPS6_EESA_EEvRT_T0_T1_, symObjAddr: 0x6152C, symBinAddr: 0x100062B30, symSize: 0x70 }
  - { offsetInCU: 0xA9FB1, offset: 0xA9FB1, size: 0x8, addend: 0x0, symName: __ZNSt3__1neB8ue170006IPNS_10shared_ptrIN5Catch8TestSpec7PatternEEES6_EEbRKNS_16reverse_iteratorIT_EERKNS7_IT0_EE, symObjAddr: 0x615D0, symBinAddr: 0x100062BD4, symSize: 0x48 }
  - { offsetInCU: 0xAA000, offset: 0xAA000, size: 0x8, addend: 0x0, symName: __ZNSt3__112__to_addressB8ue170006INS_16reverse_iteratorIPNS_10shared_ptrIN5Catch8TestSpec7PatternEEEEEvEEu7__decayIDTclsr19__to_address_helperIT_EE6__callclsr3stdE7declvalIRKS9_EEEEESB_, symObjAddr: 0x61644, symBinAddr: 0x100062C48, symSize: 0x24 }
  - { offsetInCU: 0xAA0BA, offset: 0xAA0BA, size: 0x8, addend: 0x0, symName: __ZNSt3__119__allocator_destroyB8ue170006INS_9allocatorIN5Catch8TestSpec6FilterEEENS_16reverse_iteratorIPS4_EES8_EEvRT_T0_T1_, symObjAddr: 0x61B80, symBinAddr: 0x100063184, symSize: 0x70 }
  - { offsetInCU: 0xAA11E, offset: 0xAA11E, size: 0x8, addend: 0x0, symName: __ZNSt3__1neB8ue170006IPN5Catch8TestSpec6FilterES4_EEbRKNS_16reverse_iteratorIT_EERKNS5_IT0_EE, symObjAddr: 0x61C24, symBinAddr: 0x100063228, symSize: 0x48 }
  - { offsetInCU: 0xAA16D, offset: 0xAA16D, size: 0x8, addend: 0x0, symName: __ZNSt3__112__to_addressB8ue170006INS_16reverse_iteratorIPN5Catch8TestSpec6FilterEEEvEEu7__decayIDTclsr19__to_address_helperIT_EE6__callclsr3stdE7declvalIRKS7_EEEEES9_, symObjAddr: 0x61C6C, symBinAddr: 0x100063270, symSize: 0x24 }
  - { offsetInCU: 0xAA29E, offset: 0xAA29E, size: 0x8, addend: 0x0, symName: __ZNSt3__1eqB8ue170006IPKcEEbRKNS_11__wrap_iterIT_EES7_, symObjAddr: 0x622A4, symBinAddr: 0x1000638A8, symSize: 0x48 }
  - { offsetInCU: 0xAA2E4, offset: 0xAA2E4, size: 0x8, addend: 0x0, symName: __ZNSt3__1eqB8ue170006IPKwEEbRKNS_11__wrap_iterIT_EES7_, symObjAddr: 0x62304, symBinAddr: 0x100063908, symSize: 0x48 }
  - { offsetInCU: 0xAA32A, offset: 0xAA32A, size: 0x8, addend: 0x0, symName: __ZNSt3__1lsB8ue170006INS_11char_traitsIcEEEERNS_13basic_ostreamIcT_EES6_RKNS_8__iom_t4IcEE, symObjAddr: 0x6237C, symBinAddr: 0x100063980, symSize: 0x40 }
  - { offsetInCU: 0xAA36F, offset: 0xAA36F, size: 0x8, addend: 0x0, symName: __ZNSt3__19uppercaseB8ue170006ERNS_8ios_baseE, symObjAddr: 0x623BC, symBinAddr: 0x1000639C0, symSize: 0x2C }
  - { offsetInCU: 0xAA39E, offset: 0xAA39E, size: 0x8, addend: 0x0, symName: __ZNSt3__19use_facetB8ue170006INS_5ctypeIcEEEERKT_RKNS_6localeE, symObjAddr: 0x62534, symBinAddr: 0x100063B38, symSize: 0x2C }
  - { offsetInCU: 0xAA3D5, offset: 0xAA3D5, size: 0x8, addend: 0x0, symName: __ZNSt3__1eqB8ue170006IPKN5Catch11MessageInfoEPS2_EEbRKNS_11__wrap_iterIT_EERKNS6_IT0_EE, symObjAddr: 0x62D34, symBinAddr: 0x100064338, symSize: 0x48 }
  - { offsetInCU: 0xAA424, offset: 0xAA424, size: 0x8, addend: 0x0, symName: __ZNSt3__18distanceB8ue170006INS_11__wrap_iterIPKN5Catch11MessageInfoEEEEENS_15iterator_traitsIT_E15difference_typeES8_S8_, symObjAddr: 0x62DA8, symBinAddr: 0x1000643AC, symSize: 0x3C }
  - { offsetInCU: 0xAA46A, offset: 0xAA46A, size: 0x8, addend: 0x0, symName: __ZNSt3__110__distanceB8ue170006INS_11__wrap_iterIPKN5Catch11MessageInfoEEEEENS_15iterator_traitsIT_E15difference_typeES8_S8_NS_26random_access_iterator_tagE, symObjAddr: 0x62E24, symBinAddr: 0x100064428, symSize: 0x30 }
  - { offsetInCU: 0xAA4BB, offset: 0xAA4BB, size: 0x8, addend: 0x0, symName: __ZNSt3__1miB8ue170006IPKN5Catch11MessageInfoES4_EEDTmicldtfp_4baseEcldtfp0_4baseEERKNS_11__wrap_iterIT_EERKNS6_IT0_EE, symObjAddr: 0x62E54, symBinAddr: 0x100064458, symSize: 0x48 }
  - { offsetInCU: 0xAA50A, offset: 0xAA50A, size: 0x8, addend: 0x0, symName: __ZNSt3__112__to_addressB8ue170006IKN5Catch11MessageInfoEEEPT_S5_, symObjAddr: 0x62E9C, symBinAddr: 0x1000644A0, symSize: 0x14 }
  - { offsetInCU: 0xAA541, offset: 0xAA541, size: 0x8, addend: 0x0, symName: __ZNSt3__1neB8ue170006IPKN5Catch11MessageInfoEPS2_EEbRKNS_11__wrap_iterIT_EERKNS6_IT0_EE, symObjAddr: 0x62EB0, symBinAddr: 0x1000644B4, symSize: 0x34 }
  - { offsetInCU: 0xAA590, offset: 0xAA590, size: 0x8, addend: 0x0, symName: __ZNSt3__112__to_addressB8ue170006IN5Catch11SectionInfoEEEPT_S4_, symObjAddr: 0x6340C, symBinAddr: 0x100064A10, symSize: 0x14 }
  - { offsetInCU: 0xAA5C7, offset: 0xAA5C7, size: 0x8, addend: 0x0, symName: __ZNSt3__122__make_exception_guardB8ue170006INS_6vectorIN5Catch12_GLOBAL__N_110ColumnInfoENS_9allocatorIS4_EEE16__destroy_vectorEEENS_28__exception_guard_exceptionsIT_EESA_, symObjAddr: 0x63A94, symBinAddr: 0x100065098, symSize: 0x40 }
  - { offsetInCU: 0xAA5FE, offset: 0xAA5FE, size: 0x8, addend: 0x0, symName: __ZNSt3__119__allocate_at_leastB8ue170006INS_9allocatorIN5Catch12_GLOBAL__N_110ColumnInfoEEEEENS_19__allocation_resultINS_16allocator_traitsIT_E7pointerEEERS8_m, symObjAddr: 0x63E94, symBinAddr: 0x100065498, symSize: 0x40 }
  - { offsetInCU: 0xAA644, offset: 0xAA644, size: 0x8, addend: 0x0, symName: __ZNSt3__112__to_addressB8ue170006IN5Catch12_GLOBAL__N_110ColumnInfoEEEPT_S5_, symObjAddr: 0x641B8, symBinAddr: 0x1000657BC, symSize: 0x14 }
  - { offsetInCU: 0xAA67A, offset: 0xAA67A, size: 0x8, addend: 0x0, symName: __ZNSt3__130__uninitialized_allocator_copyB8ue170006INS_9allocatorIN5Catch12_GLOBAL__N_110ColumnInfoEEEPKS4_S7_PS4_EET2_RT_T0_T1_S9_, symObjAddr: 0x64268, symBinAddr: 0x10006586C, symSize: 0x80 }
  - { offsetInCU: 0xAA718, offset: 0xAA718, size: 0x8, addend: 0x0, symName: __ZNSt3__114__unwrap_rangeB8ue170006IPKN5Catch12_GLOBAL__N_110ColumnInfoES5_EENS_4pairIT0_S7_EET_S9_, symObjAddr: 0x64358, symBinAddr: 0x10006595C, symSize: 0x60 }
  - { offsetInCU: 0xAA766, offset: 0xAA766, size: 0x8, addend: 0x0, symName: __ZNSt3__135__uninitialized_allocator_copy_implB8ue170006INS_9allocatorIN5Catch12_GLOBAL__N_110ColumnInfoEEEPKS4_S7_PS4_EET2_RT_T0_T1_S9_, symObjAddr: 0x643B8, symBinAddr: 0x1000659BC, symSize: 0xF4 }
  - { offsetInCU: 0xAA805, offset: 0xAA805, size: 0x8, addend: 0x0, symName: __ZNSt3__113__unwrap_iterB8ue170006IPN5Catch12_GLOBAL__N_110ColumnInfoENS_18__unwrap_iter_implIS4_Lb1EEELi0EEEDTclsrT0_8__unwrapclsr3stdE7declvalIT_EEEES8_, symObjAddr: 0x644AC, symBinAddr: 0x100065AB0, symSize: 0x24 }
  - { offsetInCU: 0xAA84C, offset: 0xAA84C, size: 0x8, addend: 0x0, symName: __ZNSt3__113__rewrap_iterB8ue170006IPN5Catch12_GLOBAL__N_110ColumnInfoES4_NS_18__unwrap_iter_implIS4_Lb1EEEEET_S7_T0_, symObjAddr: 0x644D0, symBinAddr: 0x100065AD4, symSize: 0x3C }
  - { offsetInCU: 0xAA8A3, offset: 0xAA8A3, size: 0x8, addend: 0x0, symName: __ZNSt3__19make_pairB8ue170006IPKN5Catch12_GLOBAL__N_110ColumnInfoES5_EENS_4pairINS_18__unwrap_ref_decayIT_E4typeENS7_IT0_E4typeEEEOS8_OSB_, symObjAddr: 0x6450C, symBinAddr: 0x100065B10, symSize: 0x38 }
  - { offsetInCU: 0xAA8F3, offset: 0xAA8F3, size: 0x8, addend: 0x0, symName: __ZNSt3__113__unwrap_iterB8ue170006IPKN5Catch12_GLOBAL__N_110ColumnInfoENS_18__unwrap_iter_implIS5_Lb1EEELi0EEEDTclsrT0_8__unwrapclsr3stdE7declvalIT_EEEES9_, symObjAddr: 0x64544, symBinAddr: 0x100065B48, symSize: 0x24 }
  - { offsetInCU: 0xAAA6D, offset: 0xAAA6D, size: 0x8, addend: 0x0, symName: __ZNSt3__112__to_addressB8ue170006IKN5Catch12_GLOBAL__N_110ColumnInfoEEEPT_S6_, symObjAddr: 0x645FC, symBinAddr: 0x100065C00, symSize: 0x14 }
  - { offsetInCU: 0xAAAA4, offset: 0xAAAA4, size: 0x8, addend: 0x0, symName: __ZNSt3__122__make_exception_guardB8ue170006INS_29_AllocatorDestroyRangeReverseINS_9allocatorIN5Catch12_GLOBAL__N_110ColumnInfoEEEPS5_EEEENS_28__exception_guard_exceptionsIT_EESA_, symObjAddr: 0x64610, symBinAddr: 0x100065C14, symSize: 0x4C }
  - { offsetInCU: 0xAAADB, offset: 0xAAADB, size: 0x8, addend: 0x0, symName: __ZNSt3__119__allocator_destroyB8ue170006INS_9allocatorIN5Catch12_GLOBAL__N_110ColumnInfoEEENS_16reverse_iteratorIPS4_EES8_EEvRT_T0_T1_, symObjAddr: 0x64914, symBinAddr: 0x100065F18, symSize: 0x70 }
  - { offsetInCU: 0xAAB3F, offset: 0xAAB3F, size: 0x8, addend: 0x0, symName: __ZNSt3__1neB8ue170006IPN5Catch12_GLOBAL__N_110ColumnInfoES4_EEbRKNS_16reverse_iteratorIT_EERKNS5_IT0_EE, symObjAddr: 0x649B8, symBinAddr: 0x100065FBC, symSize: 0x48 }
  - { offsetInCU: 0xAAB8E, offset: 0xAAB8E, size: 0x8, addend: 0x0, symName: __ZNSt3__112__to_addressB8ue170006INS_16reverse_iteratorIPN5Catch12_GLOBAL__N_110ColumnInfoEEEvEEu7__decayIDTclsr19__to_address_helperIT_EE6__callclsr3stdE7declvalIRKS7_EEEEES9_, symObjAddr: 0x64A2C, symBinAddr: 0x100066030, symSize: 0x24 }
  - { offsetInCU: 0xAAC49, offset: 0xAAC49, size: 0x8, addend: 0x0, symName: __ZNSt3__1eqB8ue170006IPN5Catch11SectionInfoEEEbRKNS_11__wrap_iterIT_EES8_, symObjAddr: 0x65C50, symBinAddr: 0x100067254, symSize: 0x48 }
  - { offsetInCU: 0xAAC8F, offset: 0xAAC8F, size: 0x8, addend: 0x0, symName: __ZNSt3__1eqB8ue170006IPKN5Catch13SummaryColumnEEEbRKNS_11__wrap_iterIT_EES9_, symObjAddr: 0x65D34, symBinAddr: 0x100067338, symSize: 0x48 }
  - { offsetInCU: 0xAACD5, offset: 0xAACD5, size: 0x8, addend: 0x0, symName: __ZNSt3__112__to_addressB8ue170006INS_10shared_ptrIN5Catch22CumulativeReporterBaseINS2_13JunitReporterEE11SectionNodeEEEEEPT_S9_, symObjAddr: 0x662D4, symBinAddr: 0x1000678D8, symSize: 0x14 }
  - { offsetInCU: 0xAAD0C, offset: 0xAAD0C, size: 0x8, addend: 0x0, symName: __ZNSt3__112__to_addressB8ue170006INS_10shared_ptrIN5Catch22CumulativeReporterBaseINS2_13JunitReporterEE4NodeINS2_12TestRunStatsENS6_INS2_14TestGroupStatsENS6_INS2_13TestCaseStatsENS5_11SectionNodeEEEEEEEEEEEPT_SG_, symObjAddr: 0x667E0, symBinAddr: 0x100067DE4, symSize: 0x14 }
  - { offsetInCU: 0xAAD43, offset: 0xAAD43, size: 0x8, addend: 0x0, symName: __ZNSt3__112__to_addressB8ue170006INS_10shared_ptrIN5Catch22CumulativeReporterBaseINS2_13JunitReporterEE4NodeINS2_14TestGroupStatsENS6_INS2_13TestCaseStatsENS5_11SectionNodeEEEEEEEEEPT_SE_, symObjAddr: 0x66D40, symBinAddr: 0x100068344, symSize: 0x14 }
  - { offsetInCU: 0xAAD7A, offset: 0xAAD7A, size: 0x8, addend: 0x0, symName: __ZNSt3__112__to_addressB8ue170006INS_10shared_ptrIN5Catch22CumulativeReporterBaseINS2_13JunitReporterEE4NodeINS2_13TestCaseStatsENS5_11SectionNodeEEEEEEEPT_SC_, symObjAddr: 0x672A0, symBinAddr: 0x1000688A4, symSize: 0x14 }
  - { offsetInCU: 0xAADB1, offset: 0xAADB1, size: 0x8, addend: 0x0, symName: __ZNSt3__112__to_addressB8ue170006INS_6vectorINS_10shared_ptrIN5Catch22CumulativeReporterBaseINS3_13JunitReporterEE11SectionNodeEEENS_9allocatorIS8_EEEEEEPT_SD_, symObjAddr: 0x6781C, symBinAddr: 0x100068E20, symSize: 0x14 }
  - { offsetInCU: 0xAADE8, offset: 0xAADE8, size: 0x8, addend: 0x0, symName: __ZNSt3__112__to_addressB8ue170006IN5Catch14AssertionStatsEEEPT_S4_, symObjAddr: 0x67D1C, symBinAddr: 0x100069320, symSize: 0x14 }
  - { offsetInCU: 0xAAE1E, offset: 0xAAE1E, size: 0x8, addend: 0x0, symName: __ZNSt3__15fixedB8ue170006ERNS_8ios_baseE, symObjAddr: 0x67EAC, symBinAddr: 0x1000694B0, symSize: 0x30 }
  - { offsetInCU: 0xAAE4D, offset: 0xAAE4D, size: 0x8, addend: 0x0, symName: __ZNSt3__112setprecisionB8ue170006Ei, symObjAddr: 0x67F14, symBinAddr: 0x100069518, symSize: 0x2C }
  - { offsetInCU: 0xAAE7B, offset: 0xAAE7B, size: 0x8, addend: 0x0, symName: __ZNSt3__1lsB8ue170006IcNS_11char_traitsIcEEEERNS_13basic_ostreamIT_T0_EES7_RKNS_8__iom_t5E, symObjAddr: 0x67F40, symBinAddr: 0x100069544, symSize: 0x40 }
  - { offsetInCU: 0xAAECA, offset: 0xAAECA, size: 0x8, addend: 0x0, symName: __ZNSt3__1eqB8ue170006IPKNS_10shared_ptrIN5Catch22CumulativeReporterBaseINS2_13JunitReporterEE4NodeINS2_13TestCaseStatsENS5_11SectionNodeEEEEEEEbRKNS_11__wrap_iterIT_EESH_, symObjAddr: 0x68000, symBinAddr: 0x100069604, symSize: 0x48 }
  - { offsetInCU: 0xAAF10, offset: 0xAAF10, size: 0x8, addend: 0x0, symName: '__ZNSt3__17find_ifB8ue170006INS_11__wrap_iterIPKNS_12basic_stringIcNS_11char_traitsIcEENS_9allocatorIcEEEEEEZN5Catch12_GLOBAL__N_111fileNameTagERKNS_6vectorIS7_NS5_IS7_EEEEE4$_22EET_SJ_SJ_T0_', symObjAddr: 0x68060, symBinAddr: 0x100069664, symSize: 0x74 }
  - { offsetInCU: 0xAAF6E, offset: 0xAAF6E, size: 0x8, addend: 0x0, symName: __ZNSt3__1eqB8ue170006IPKNS_10shared_ptrIN5Catch22CumulativeReporterBaseINS2_13JunitReporterEE11SectionNodeEEEEEbRKNS_11__wrap_iterIT_EESE_, symObjAddr: 0x68130, symBinAddr: 0x100069734, symSize: 0x48 }
  - { offsetInCU: 0xAAFB4, offset: 0xAAFB4, size: 0x8, addend: 0x0, symName: __ZNSt3__1eqB8ue170006IPKN5Catch14AssertionStatsEEEbRKNS_11__wrap_iterIT_EES9_, symObjAddr: 0x68190, symBinAddr: 0x100069794, symSize: 0x48 }
  - { offsetInCU: 0xAAFFA, offset: 0xAAFFA, size: 0x8, addend: 0x0, symName: __ZNSt3__1eqB8ue170006IPKN5Catch11MessageInfoEEEbRKNS_11__wrap_iterIT_EES9_, symObjAddr: 0x681F0, symBinAddr: 0x1000697F4, symSize: 0x48 }
  - { offsetInCU: 0xAB040, offset: 0xAB040, size: 0x8, addend: 0x0, symName: __ZNSt3__1eqB8ue170006IPNS_10unique_ptrIN5Catch18IStreamingReporterENS_14default_deleteIS3_EEEEEEbRKNS_11__wrap_iterIT_EESC_, symObjAddr: 0x68254, symBinAddr: 0x100069858, symSize: 0x48 }
  - { offsetInCU: 0xAB233, offset: 0xAB233, size: 0x8, addend: 0x0, symName: __ZNSt3__14swapB8ue170006IPKN5Catch7IConfigEEENS_9enable_ifIXaasr21is_move_constructibleIT_EE5valuesr18is_move_assignableIS6_EE5valueEvE4typeERS6_S9_, symObjAddr: 0x69478, symBinAddr: 0x10006AA7C, symSize: 0x3C }
  - { offsetInCU: 0xAB288, offset: 0xAB288, size: 0x8, addend: 0x0, symName: __ZNSt3__112__to_addressB8ue170006INS_10unique_ptrIN5Catch6Detail8EnumInfoENS_14default_deleteIS4_EEEEEEPT_S9_, symObjAddr: 0x69884, symBinAddr: 0x10006AE88, symSize: 0x14 }
  - { offsetInCU: 0xAB2BF, offset: 0xAB2BF, size: 0x8, addend: 0x0, symName: __ZNSt3__17find_ifB8ue170006INS_11__wrap_iterIPNS_10shared_ptrIN5Catch16TestCaseTracking8ITrackerEEEEEZZNS3_10Generators16GeneratorTracker5closeEvENKUlvE_clEvEUlS6_E_EET_SD_SD_T0_, symObjAddr: 0x69E78, symBinAddr: 0x10006B47C, symSize: 0xB8 }
  - { offsetInCU: 0xAB31D, offset: 0xAB31D, size: 0x8, addend: 0x0, symName: __ZNSt3__112__to_addressB8ue170006INS_10unique_ptrIN5Catch18IStreamingReporterENS_14default_deleteIS3_EEEEEEPT_S8_, symObjAddr: 0x6A934, symBinAddr: 0x10006BF38, symSize: 0x14 }
  - { offsetInCU: 0xAB353, offset: 0xAB353, size: 0x8, addend: 0x0, symName: __ZNSt3__116__pad_and_outputB8ue170006IcNS_11char_traitsIcEEEENS_19ostreambuf_iteratorIT_T0_EES6_PKS4_S8_S8_RNS_8ios_baseES4_, symObjAddr: 0x6AE24, symBinAddr: 0x10006C428, symSize: 0x240 }
  - { offsetInCU: 0xAB422, offset: 0xAB422, size: 0x8, addend: 0x0, symName: __ZNSt3__1neB8ue170006ERKNS_21__tree_const_iteratorINS_12__value_typeINS_12basic_stringIcNS_11char_traitsIcEENS_9allocatorIcEEEENS_10shared_ptrIN5Catch16IReporterFactoryEEEEEPNS_11__tree_nodeISC_PvEElEESJ_, symObjAddr: 0x6BCD0, symBinAddr: 0x10006D2D4, symSize: 0x34 }
  - { offsetInCU: 0xAB45F, offset: 0xAB45F, size: 0x8, addend: 0x0, symName: __ZNSt3__17launderB8ue170006IKNS_4pairIKNS_12basic_stringIcNS_11char_traitsIcEENS_9allocatorIcEEEENS_10shared_ptrIN5Catch16IReporterFactoryEEEEEEEPT_SG_, symObjAddr: 0x6BEAC, symBinAddr: 0x10006D4B0, symSize: 0x24 }
  - { offsetInCU: 0xAB496, offset: 0xAB496, size: 0x8, addend: 0x0, symName: __ZNSt3__19__launderB8ue170006IKNS_4pairIKNS_12basic_stringIcNS_11char_traitsIcEENS_9allocatorIcEEEENS_10shared_ptrIN5Catch16IReporterFactoryEEEEEEEPT_SG_, symObjAddr: 0x6BED0, symBinAddr: 0x10006D4D4, symSize: 0x14 }
  - { offsetInCU: 0xAB4CD, offset: 0xAB4CD, size: 0x8, addend: 0x0, symName: __ZNSt3__1eqB8ue170006ERKNS_21__tree_const_iteratorINS_12__value_typeINS_12basic_stringIcNS_11char_traitsIcEENS_9allocatorIcEEEENS_10shared_ptrIN5Catch16IReporterFactoryEEEEEPNS_11__tree_nodeISC_PvEElEESJ_, symObjAddr: 0x6BF28, symBinAddr: 0x10006D52C, symSize: 0x30 }
  - { offsetInCU: 0xAB50B, offset: 0xAB50B, size: 0x8, addend: 0x0, symName: __ZNSt3__122__make_exception_guardB8ue170006INS_6vectorIN5Catch5clara6detail3OptENS_9allocatorIS5_EEE16__destroy_vectorEEENS_28__exception_guard_exceptionsIT_EESB_, symObjAddr: 0x6C57C, symBinAddr: 0x10006DB80, symSize: 0x40 }
  - { offsetInCU: 0xAB542, offset: 0xAB542, size: 0x8, addend: 0x0, symName: __ZNSt3__122__make_exception_guardB8ue170006INS_6vectorIN5Catch5clara6detail3ArgENS_9allocatorIS5_EEE16__destroy_vectorEEENS_28__exception_guard_exceptionsIT_EESB_, symObjAddr: 0x6C898, symBinAddr: 0x10006DE9C, symSize: 0x40 }
  - { offsetInCU: 0xAB578, offset: 0xAB578, size: 0x8, addend: 0x0, symName: __ZNSt3__142__uninitialized_allocator_move_if_noexceptB8ue170006INS_9allocatorIN5Catch5clara6detail3OptEEENS_16reverse_iteratorIPS5_EES9_S9_EET2_RT_T0_T1_SA_, symObjAddr: 0x6CFE8, symBinAddr: 0x10006E5EC, symSize: 0x11C }
  - { offsetInCU: 0xAB619, offset: 0xAB619, size: 0x8, addend: 0x0, symName: __ZNSt3__14swapB8ue170006IPN5Catch5clara6detail3OptEEENS_9enable_ifIXaasr21is_move_constructibleIT_EE5valuesr18is_move_assignableIS7_EE5valueEvE4typeERS7_SA_, symObjAddr: 0x6D104, symBinAddr: 0x10006E708, symSize: 0x3C }
  - { offsetInCU: 0xAB66E, offset: 0xAB66E, size: 0x8, addend: 0x0, symName: __ZNSt3__122__make_exception_guardB8ue170006INS_29_AllocatorDestroyRangeReverseINS_9allocatorIN5Catch5clara6detail3OptEEENS_16reverse_iteratorIPS6_EEEEEENS_28__exception_guard_exceptionsIT_EESD_, symObjAddr: 0x6D140, symBinAddr: 0x10006E744, symSize: 0x4C }
  - { offsetInCU: 0xAB6A5, offset: 0xAB6A5, size: 0x8, addend: 0x0, symName: __ZNSt3__119__allocator_destroyB8ue170006INS_9allocatorIN5Catch5clara6detail3OptEEENS_16reverse_iteratorINS7_IPS5_EEEESA_EEvRT_T0_T1_, symObjAddr: 0x6D604, symBinAddr: 0x10006EC08, symSize: 0x70 }
  - { offsetInCU: 0xAB70B, offset: 0xAB70B, size: 0x8, addend: 0x0, symName: __ZNSt3__1neB8ue170006INS_16reverse_iteratorIPN5Catch5clara6detail3OptEEES7_EEbRKNS1_IT_EERKNS1_IT0_EE, symObjAddr: 0x6D6B0, symBinAddr: 0x10006ECB4, symSize: 0x60 }
  - { offsetInCU: 0xAB75A, offset: 0xAB75A, size: 0x8, addend: 0x0, symName: __ZNSt3__112__to_addressB8ue170006INS_16reverse_iteratorINS1_IPN5Catch5clara6detail3OptEEEEEvEEu7__decayIDTclsr19__to_address_helperIT_EE6__callclsr3stdE7declvalIRKS9_EEEEESB_, symObjAddr: 0x6D710, symBinAddr: 0x10006ED14, symSize: 0x24 }
  - { offsetInCU: 0xAB7BC, offset: 0xAB7BC, size: 0x8, addend: 0x0, symName: '__ZNSt3__111make_sharedB8ue170006IN5Catch5clara6detail11BoundLambdaIZNS1_21makeCommandLineParserERNS1_10ConfigDataEE3$_1EEJRKS7_EvEENS_10shared_ptrIT_EEDpOT0_', symObjAddr: 0x6DD4C, symBinAddr: 0x10006F350, symSize: 0x40 }
  - { offsetInCU: 0xABA22, offset: 0xABA22, size: 0x8, addend: 0x0, symName: '__ZNSt3__115allocate_sharedB8ue170006IN5Catch5clara6detail11BoundLambdaIZNS1_21makeCommandLineParserERNS1_10ConfigDataEE3$_1EENS_9allocatorIS8_EEJRKS7_EvEENS_10shared_ptrIT_EERKT0_DpOT1_', symObjAddr: 0x6DDEC, symBinAddr: 0x10006F3F0, symSize: 0x98 }
  - { offsetInCU: 0xABDF7, offset: 0xABDF7, size: 0x8, addend: 0x0, symName: '__ZNSt3__111make_sharedB8ue170006IN5Catch5clara6detail15BoundFlagLambdaIZNS1_21makeCommandLineParserERNS1_10ConfigDataEE3$_2EEJRKS7_EvEENS_10shared_ptrIT_EEDpOT0_', symObjAddr: 0x6EEEC, symBinAddr: 0x1000704F0, symSize: 0x40 }
  - { offsetInCU: 0xAC05D, offset: 0xAC05D, size: 0x8, addend: 0x0, symName: '__ZNSt3__115allocate_sharedB8ue170006IN5Catch5clara6detail15BoundFlagLambdaIZNS1_21makeCommandLineParserERNS1_10ConfigDataEE3$_2EENS_9allocatorIS8_EEJRKS7_EvEENS_10shared_ptrIT_EERKT0_DpOT1_', symObjAddr: 0x6EF8C, symBinAddr: 0x100070590, symSize: 0x98 }
  - { offsetInCU: 0xAC432, offset: 0xAC432, size: 0x8, addend: 0x0, symName: '__ZNSt3__111make_sharedB8ue170006IN5Catch5clara6detail11BoundLambdaIZNS1_21makeCommandLineParserERNS1_10ConfigDataEE3$_3EEJRKS7_EvEENS_10shared_ptrIT_EEDpOT0_', symObjAddr: 0x6FC18, symBinAddr: 0x10007121C, symSize: 0x40 }
  - { offsetInCU: 0xAC698, offset: 0xAC698, size: 0x8, addend: 0x0, symName: '__ZNSt3__115allocate_sharedB8ue170006IN5Catch5clara6detail11BoundLambdaIZNS1_21makeCommandLineParserERNS1_10ConfigDataEE3$_3EENS_9allocatorIS8_EEJRKS7_EvEENS_10shared_ptrIT_EERKT0_DpOT1_', symObjAddr: 0x6FCB8, symBinAddr: 0x1000712BC, symSize: 0x98 }
  - { offsetInCU: 0xACA6D, offset: 0xACA6D, size: 0x8, addend: 0x0, symName: '__ZNSt3__111make_sharedB8ue170006IN5Catch5clara6detail11BoundLambdaIZNS1_21makeCommandLineParserERNS1_10ConfigDataEE3$_4EEJRKS7_EvEENS_10shared_ptrIT_EEDpOT0_', symObjAddr: 0x70B40, symBinAddr: 0x100072144, symSize: 0x40 }
  - { offsetInCU: 0xACCD3, offset: 0xACCD3, size: 0x8, addend: 0x0, symName: '__ZNSt3__115allocate_sharedB8ue170006IN5Catch5clara6detail11BoundLambdaIZNS1_21makeCommandLineParserERNS1_10ConfigDataEE3$_4EENS_9allocatorIS8_EEJRKS7_EvEENS_10shared_ptrIT_EERKT0_DpOT1_', symObjAddr: 0x70BE0, symBinAddr: 0x1000721E4, symSize: 0x98 }
  - { offsetInCU: 0xAD0A8, offset: 0xAD0A8, size: 0x8, addend: 0x0, symName: '__ZNSt3__111make_sharedB8ue170006IN5Catch5clara6detail11BoundLambdaIZNS1_21makeCommandLineParserERNS1_10ConfigDataEE3$_5EEJRKS7_EvEENS_10shared_ptrIT_EEDpOT0_', symObjAddr: 0x71A8C, symBinAddr: 0x100073090, symSize: 0x40 }
  - { offsetInCU: 0xAD30E, offset: 0xAD30E, size: 0x8, addend: 0x0, symName: '__ZNSt3__115allocate_sharedB8ue170006IN5Catch5clara6detail11BoundLambdaIZNS1_21makeCommandLineParserERNS1_10ConfigDataEE3$_5EENS_9allocatorIS8_EEJRKS7_EvEENS_10shared_ptrIT_EERKT0_DpOT1_', symObjAddr: 0x71B2C, symBinAddr: 0x100073130, symSize: 0x98 }
  - { offsetInCU: 0xAD6AE, offset: 0xAD6AE, size: 0x8, addend: 0x0, symName: __ZNSt3__19transformB8ue170006INS_11__wrap_iterIPcEES3_ZN5Catch5clara6detail11convertIntoERKNS_12basic_stringIcNS_11char_traitsIcEENS_9allocatorIcEEEERbEUlhE_EET0_T_SI_SH_T1_, symObjAddr: 0x72640, symBinAddr: 0x100073C44, symSize: 0x8C }
  - { offsetInCU: 0xAD724, offset: 0xAD724, size: 0x8, addend: 0x0, symName: __ZNSt3__1neB8ue170006IPcEEbRKNS_11__wrap_iterIT_EES6_, symObjAddr: 0x726CC, symBinAddr: 0x100073CD0, symSize: 0x34 }
  - { offsetInCU: 0xAD76A, offset: 0xAD76A, size: 0x8, addend: 0x0, symName: __ZNSt3__1eqB8ue170006IPcEEbRKNS_11__wrap_iterIT_EES6_, symObjAddr: 0x72764, symBinAddr: 0x100073D68, symSize: 0x48 }
  - { offsetInCU: 0xAD7E5, offset: 0xAD7E5, size: 0x8, addend: 0x0, symName: __ZNSt3__111make_sharedB8ue170006IN5Catch5clara6detail13BoundValueRefIdEEJRdEvEENS_10shared_ptrIT_EEDpOT0_, symObjAddr: 0x72C48, symBinAddr: 0x10007424C, symSize: 0x40 }
  - { offsetInCU: 0xADA4A, offset: 0xADA4A, size: 0x8, addend: 0x0, symName: __ZNSt3__115allocate_sharedB8ue170006IN5Catch5clara6detail13BoundValueRefIdEENS_9allocatorIS5_EEJRdEvEENS_10shared_ptrIT_EERKT0_DpOT1_, symObjAddr: 0x72CE8, symBinAddr: 0x1000742EC, symSize: 0x98 }
  - { offsetInCU: 0xADE1F, offset: 0xADE1F, size: 0x8, addend: 0x0, symName: '__ZNSt3__111make_sharedB8ue170006IN5Catch5clara6detail11BoundLambdaIZNS1_21makeCommandLineParserERNS1_10ConfigDataEE3$_6EEJRKS7_EvEENS_10shared_ptrIT_EEDpOT0_', symObjAddr: 0x73A5C, symBinAddr: 0x100075060, symSize: 0x40 }
  - { offsetInCU: 0xAE085, offset: 0xAE085, size: 0x8, addend: 0x0, symName: '__ZNSt3__115allocate_sharedB8ue170006IN5Catch5clara6detail11BoundLambdaIZNS1_21makeCommandLineParserERNS1_10ConfigDataEE3$_6EENS_9allocatorIS8_EEJRKS7_EvEENS_10shared_ptrIT_EERKT0_DpOT1_', symObjAddr: 0x73AFC, symBinAddr: 0x100075100, symSize: 0x98 }
  - { offsetInCU: 0xAE424, offset: 0xAE424, size: 0x8, addend: 0x0, symName: __ZNSt3__17getlineB8ue170006IcNS_11char_traitsIcEENS_9allocatorIcEEEERNS_13basic_istreamIT_T0_EES9_RNS_12basic_stringIS6_S7_T1_EE, symObjAddr: 0x74778, symBinAddr: 0x100075D7C, symSize: 0x5C }
  - { offsetInCU: 0xAE47C, offset: 0xAE47C, size: 0x8, addend: 0x0, symName: __ZNSt3__17getlineB8ue170006IcNS_11char_traitsIcEENS_9allocatorIcEEEERNS_13basic_istreamIT_T0_EES9_RNS_12basic_stringIS6_S7_T1_EES6_, symObjAddr: 0x74970, symBinAddr: 0x100075F74, symSize: 0x238 }
  - { offsetInCU: 0xAE53B, offset: 0xAE53B, size: 0x8, addend: 0x0, symName: __ZNSt3__1miB8ue170006IPKNS_12basic_stringIcNS_11char_traitsIcEENS_9allocatorIcEEEES8_EEDTmicldtfp_4baseEcldtfp0_4baseEERKNS_11__wrap_iterIT_EERKNSA_IT0_EE, symObjAddr: 0x74EC0, symBinAddr: 0x1000764C4, symSize: 0x48 }
  - { offsetInCU: 0xAE58A, offset: 0xAE58A, size: 0x8, addend: 0x0, symName: __ZNSt3__14moveB8ue170006IPNS_12basic_stringIcNS_11char_traitsIcEENS_9allocatorIcEEEES7_EET0_T_S9_S8_, symObjAddr: 0x74F34, symBinAddr: 0x100076538, symSize: 0x40 }
  - { offsetInCU: 0xAE5E8, offset: 0xAE5E8, size: 0x8, addend: 0x0, symName: __ZNSt3__16__moveB8ue170006INS_17_ClassicAlgPolicyEPNS_12basic_stringIcNS_11char_traitsIcEENS_9allocatorIcEEEES8_S8_EENS_4pairIT0_T2_EESA_T1_SB_, symObjAddr: 0x74F74, symBinAddr: 0x100076578, symSize: 0x44 }
  - { offsetInCU: 0xAE658, offset: 0xAE658, size: 0x8, addend: 0x0, symName: __ZNSt3__123__dispatch_copy_or_moveB8ue170006INS_17_ClassicAlgPolicyENS_11__move_loopIS1_EENS_14__move_trivialEPNS_12basic_stringIcNS_11char_traitsIcEENS_9allocatorIcEEEESB_SB_EENS_4pairIT2_T4_EESD_T3_SE_, symObjAddr: 0x74FB8, symBinAddr: 0x1000765BC, symSize: 0x44 }
  - { offsetInCU: 0xAE6DA, offset: 0xAE6DA, size: 0x8, addend: 0x0, symName: __ZNSt3__121__unwrap_and_dispatchB8ue170006INS_10__overloadINS_11__move_loopINS_17_ClassicAlgPolicyEEENS_14__move_trivialEEEPNS_12basic_stringIcNS_11char_traitsIcEENS_9allocatorIcEEEESD_SD_Li0EEENS_4pairIT0_T2_EESF_T1_SG_, symObjAddr: 0x74FFC, symBinAddr: 0x100076600, symSize: 0xB4 }
  - { offsetInCU: 0xAE7CB, offset: 0xAE7CB, size: 0x8, addend: 0x0, symName: '__ZNSt3__111make_sharedB8ue170006IN5Catch5clara6detail11BoundLambdaIZNS1_21makeCommandLineParserERNS1_10ConfigDataEE3$_7EEJRKS7_EvEENS_10shared_ptrIT_EEDpOT0_', symObjAddr: 0x7577C, symBinAddr: 0x100076D80, symSize: 0x40 }
  - { offsetInCU: 0xAEA31, offset: 0xAEA31, size: 0x8, addend: 0x0, symName: '__ZNSt3__115allocate_sharedB8ue170006IN5Catch5clara6detail11BoundLambdaIZNS1_21makeCommandLineParserERNS1_10ConfigDataEE3$_7EENS_9allocatorIS8_EEJRKS7_EvEENS_10shared_ptrIT_EERKT0_DpOT1_', symObjAddr: 0x7581C, symBinAddr: 0x100076E20, symSize: 0x98 }
  - { offsetInCU: 0xAEE06, offset: 0xAEE06, size: 0x8, addend: 0x0, symName: '__ZNSt3__111make_sharedB8ue170006IN5Catch5clara6detail11BoundLambdaIZNS1_21makeCommandLineParserERNS1_10ConfigDataEE3$_8EEJRKS7_EvEENS_10shared_ptrIT_EEDpOT0_', symObjAddr: 0x766D8, symBinAddr: 0x100077CDC, symSize: 0x40 }
  - { offsetInCU: 0xAF06C, offset: 0xAF06C, size: 0x8, addend: 0x0, symName: '__ZNSt3__115allocate_sharedB8ue170006IN5Catch5clara6detail11BoundLambdaIZNS1_21makeCommandLineParserERNS1_10ConfigDataEE3$_8EENS_9allocatorIS8_EEJRKS7_EvEENS_10shared_ptrIT_EERKT0_DpOT1_', symObjAddr: 0x76778, symBinAddr: 0x100077D7C, symSize: 0x98 }
  - { offsetInCU: 0xAF441, offset: 0xAF441, size: 0x8, addend: 0x0, symName: '__ZNSt3__111make_sharedB8ue170006IN5Catch5clara6detail11BoundLambdaIZNS1_21makeCommandLineParserERNS1_10ConfigDataEE3$_9EEJRKS7_EvEENS_10shared_ptrIT_EEDpOT0_', symObjAddr: 0x776C8, symBinAddr: 0x100078CCC, symSize: 0x40 }
  - { offsetInCU: 0xAF6A7, offset: 0xAF6A7, size: 0x8, addend: 0x0, symName: '__ZNSt3__115allocate_sharedB8ue170006IN5Catch5clara6detail11BoundLambdaIZNS1_21makeCommandLineParserERNS1_10ConfigDataEE3$_9EENS_9allocatorIS8_EEJRKS7_EvEENS_10shared_ptrIT_EERKT0_DpOT1_', symObjAddr: 0x77768, symBinAddr: 0x100078D6C, symSize: 0x98 }
  - { offsetInCU: 0xAFA7C, offset: 0xAFA7C, size: 0x8, addend: 0x0, symName: '__ZNSt3__111make_sharedB8ue170006IN5Catch5clara6detail11BoundLambdaIZNS1_21makeCommandLineParserERNS1_10ConfigDataEE4$_10EEJRKS7_EvEENS_10shared_ptrIT_EEDpOT0_', symObjAddr: 0x78674, symBinAddr: 0x100079C78, symSize: 0x40 }
  - { offsetInCU: 0xAFCE2, offset: 0xAFCE2, size: 0x8, addend: 0x0, symName: '__ZNSt3__115allocate_sharedB8ue170006IN5Catch5clara6detail11BoundLambdaIZNS1_21makeCommandLineParserERNS1_10ConfigDataEE4$_10EENS_9allocatorIS8_EEJRKS7_EvEENS_10shared_ptrIT_EERKT0_DpOT1_', symObjAddr: 0x78714, symBinAddr: 0x100079D18, symSize: 0x98 }
  - { offsetInCU: 0xB00B7, offset: 0xB00B7, size: 0x8, addend: 0x0, symName: '__ZNSt3__111make_sharedB8ue170006IN5Catch5clara6detail11BoundLambdaIZNS1_21makeCommandLineParserERNS1_10ConfigDataEE4$_11EEJRKS7_EvEENS_10shared_ptrIT_EEDpOT0_', symObjAddr: 0x795D0, symBinAddr: 0x10007ABD4, symSize: 0x40 }
  - { offsetInCU: 0xB031D, offset: 0xB031D, size: 0x8, addend: 0x0, symName: '__ZNSt3__115allocate_sharedB8ue170006IN5Catch5clara6detail11BoundLambdaIZNS1_21makeCommandLineParserERNS1_10ConfigDataEE4$_11EENS_9allocatorIS8_EEJRKS7_EvEENS_10shared_ptrIT_EERKT0_DpOT1_', symObjAddr: 0x79670, symBinAddr: 0x10007AC74, symSize: 0x98 }
  - { offsetInCU: 0xB06F2, offset: 0xB06F2, size: 0x8, addend: 0x0, symName: __ZNSt3__111make_sharedB8ue170006IN5Catch5clara6detail13BoundValueRefIjEEJRjEvEENS_10shared_ptrIT_EEDpOT0_, symObjAddr: 0x7A55C, symBinAddr: 0x10007BB60, symSize: 0x40 }
  - { offsetInCU: 0xB0957, offset: 0xB0957, size: 0x8, addend: 0x0, symName: __ZNSt3__115allocate_sharedB8ue170006IN5Catch5clara6detail13BoundValueRefIjEENS_9allocatorIS5_EEJRjEvEENS_10shared_ptrIT_EERKT0_DpOT1_, symObjAddr: 0x7A5FC, symBinAddr: 0x10007BC00, symSize: 0x98 }
  - { offsetInCU: 0xB0D2C, offset: 0xB0D2C, size: 0x8, addend: 0x0, symName: __ZNSt3__111make_sharedB8ue170006IN5Catch5clara6detail13BoundValueRefIxEEJRxEvEENS_10shared_ptrIT_EEDpOT0_, symObjAddr: 0x7B20C, symBinAddr: 0x10007C810, symSize: 0x40 }
  - { offsetInCU: 0xB0F91, offset: 0xB0F91, size: 0x8, addend: 0x0, symName: __ZNSt3__115allocate_sharedB8ue170006IN5Catch5clara6detail13BoundValueRefIxEENS_9allocatorIS5_EEJRxEvEENS_10shared_ptrIT_EERKT0_DpOT1_, symObjAddr: 0x7B2AC, symBinAddr: 0x10007C8B0, symSize: 0x98 }
  - { offsetInCU: 0xB1366, offset: 0xB1366, size: 0x8, addend: 0x0, symName: __ZNSt3__142__uninitialized_allocator_move_if_noexceptB8ue170006INS_9allocatorIN5Catch5clara6detail3ArgEEENS_16reverse_iteratorIPS5_EES9_S9_EET2_RT_T0_T1_SA_, symObjAddr: 0x7C504, symBinAddr: 0x10007DB08, symSize: 0x11C }
  - { offsetInCU: 0xB1407, offset: 0xB1407, size: 0x8, addend: 0x0, symName: __ZNSt3__14swapB8ue170006IPN5Catch5clara6detail3ArgEEENS_9enable_ifIXaasr21is_move_constructibleIT_EE5valuesr18is_move_assignableIS7_EE5valueEvE4typeERS7_SA_, symObjAddr: 0x7C620, symBinAddr: 0x10007DC24, symSize: 0x3C }
  - { offsetInCU: 0xB145C, offset: 0xB145C, size: 0x8, addend: 0x0, symName: __ZNSt3__122__make_exception_guardB8ue170006INS_29_AllocatorDestroyRangeReverseINS_9allocatorIN5Catch5clara6detail3ArgEEENS_16reverse_iteratorIPS6_EEEEEENS_28__exception_guard_exceptionsIT_EESD_, symObjAddr: 0x7C65C, symBinAddr: 0x10007DC60, symSize: 0x4C }
  - { offsetInCU: 0xB1493, offset: 0xB1493, size: 0x8, addend: 0x0, symName: __ZNSt3__119__allocator_destroyB8ue170006INS_9allocatorIN5Catch5clara6detail3ArgEEENS_16reverse_iteratorINS7_IPS5_EEEESA_EEvRT_T0_T1_, symObjAddr: 0x7CA98, symBinAddr: 0x10007E09C, symSize: 0x70 }
  - { offsetInCU: 0xB14F9, offset: 0xB14F9, size: 0x8, addend: 0x0, symName: __ZNSt3__1neB8ue170006INS_16reverse_iteratorIPN5Catch5clara6detail3ArgEEES7_EEbRKNS1_IT_EERKNS1_IT0_EE, symObjAddr: 0x7CB44, symBinAddr: 0x10007E148, symSize: 0x60 }
  - { offsetInCU: 0xB1548, offset: 0xB1548, size: 0x8, addend: 0x0, symName: __ZNSt3__112__to_addressB8ue170006INS_16reverse_iteratorINS1_IPN5Catch5clara6detail3ArgEEEEEvEEu7__decayIDTclsr19__to_address_helperIT_EE6__callclsr3stdE7declvalIRKS9_EEEEESB_, symObjAddr: 0x7CBA4, symBinAddr: 0x10007E1A8, symSize: 0x24 }
  - { offsetInCU: 0xB15AB, offset: 0xB15AB, size: 0x8, addend: 0x0, symName: __ZNSt3__112__to_addressB8ue170006IN5Catch9StringRefEEEPT_S4_, symObjAddr: 0x7D86C, symBinAddr: 0x10007EE70, symSize: 0x14 }
  - { offsetInCU: 0xB15E2, offset: 0xB15E2, size: 0x8, addend: 0x0, symName: __ZNSt3__119__allocate_at_leastB8ue170006INS_9allocatorIN5Catch9StringRefEEEEENS_19__allocation_resultINS_16allocator_traitsIT_E7pointerEEERS7_m, symObjAddr: 0x7DEA8, symBinAddr: 0x10007F4AC, symSize: 0x40 }
  - { offsetInCU: 0xB1627, offset: 0xB1627, size: 0x8, addend: 0x0, symName: __ZNSt3__142__uninitialized_allocator_move_if_noexceptB8ue170006INS_9allocatorIN5Catch9StringRefEEENS_16reverse_iteratorIPS3_EES7_S3_vEET1_RT_T0_SB_S8_, symObjAddr: 0x7E070, symBinAddr: 0x10007F674, symSize: 0x78 }
  - { offsetInCU: 0xB16A5, offset: 0xB16A5, size: 0x8, addend: 0x0, symName: __ZNSt3__14swapB8ue170006IPN5Catch9StringRefEEENS_9enable_ifIXaasr21is_move_constructibleIT_EE5valuesr18is_move_assignableIS5_EE5valueEvE4typeERS5_S8_, symObjAddr: 0x7E134, symBinAddr: 0x10007F738, symSize: 0x3C }
  - { offsetInCU: 0xB16FA, offset: 0xB16FA, size: 0x8, addend: 0x0, symName: __ZNSt3__14moveB8ue170006INS_16reverse_iteratorIPN5Catch9StringRefEEES5_EET0_T_S7_S6_, symObjAddr: 0x7E244, symBinAddr: 0x10007F848, symSize: 0x78 }
  - { offsetInCU: 0xB1758, offset: 0xB1758, size: 0x8, addend: 0x0, symName: __ZNSt3__16__moveB8ue170006INS_17_ClassicAlgPolicyENS_16reverse_iteratorIPN5Catch9StringRefEEES6_S6_EENS_4pairIT0_T2_EES8_T1_S9_, symObjAddr: 0x7E2BC, symBinAddr: 0x10007F8C0, symSize: 0x64 }
  - { offsetInCU: 0xB17C8, offset: 0xB17C8, size: 0x8, addend: 0x0, symName: __ZNSt3__123__dispatch_copy_or_moveB8ue170006INS_17_ClassicAlgPolicyENS_11__move_loopIS1_EENS_14__move_trivialENS_16reverse_iteratorIPN5Catch9StringRefEEES9_S9_EENS_4pairIT2_T4_EESB_T3_SC_, symObjAddr: 0x7E320, symBinAddr: 0x10007F924, symSize: 0x64 }
  - { offsetInCU: 0xB184A, offset: 0xB184A, size: 0x8, addend: 0x0, symName: __ZNSt3__121__unwrap_and_dispatchB8ue170006INS_10__overloadINS_11__move_loopINS_17_ClassicAlgPolicyEEENS_14__move_trivialEEENS_16reverse_iteratorIPN5Catch9StringRefEEESB_SB_Li0EEENS_4pairIT0_T2_EESD_T1_SE_, symObjAddr: 0x7E384, symBinAddr: 0x10007F988, symSize: 0x12C }
  - { offsetInCU: 0xB18E1, offset: 0xB18E1, size: 0x8, addend: 0x0, symName: __ZNSt3__114__unwrap_rangeB8ue170006INS_16reverse_iteratorIPN5Catch9StringRefEEES5_EENS_4pairIT0_S7_EET_S9_, symObjAddr: 0x7E4B0, symBinAddr: 0x10007FAB4, symSize: 0x84 }
  - { offsetInCU: 0xB1A0B, offset: 0xB1A0B, size: 0x8, addend: 0x0, symName: __ZNSt3__113__unwrap_iterB8ue170006INS_16reverse_iteratorIPN5Catch9StringRefEEENS_18__unwrap_iter_implIS5_Lb0EEELi0EEEDTclsrT0_8__unwrapclsr3stdE7declvalIT_EEEES9_, symObjAddr: 0x7E5D4, symBinAddr: 0x10007FBD8, symSize: 0x44 }
  - { offsetInCU: 0xB1A51, offset: 0xB1A51, size: 0x8, addend: 0x0, symName: __ZNSt3__19make_pairB8ue170006INS_16reverse_iteratorIPN5Catch9StringRefEEES5_EENS_4pairINS_18__unwrap_ref_decayIT_E4typeENS7_IT0_E4typeEEEOS8_OSB_, symObjAddr: 0x7E618, symBinAddr: 0x10007FC1C, symSize: 0x38 }
  - { offsetInCU: 0xB1AA1, offset: 0xB1AA1, size: 0x8, addend: 0x0, symName: __ZNSt3__114__rewrap_rangeB8ue170006INS_16reverse_iteratorIPN5Catch9StringRefEEES5_EET_S6_T0_, symObjAddr: 0x7E650, symBinAddr: 0x10007FC54, symSize: 0x5C }
  - { offsetInCU: 0xB1AF0, offset: 0xB1AF0, size: 0x8, addend: 0x0, symName: __ZNSt3__113__rewrap_iterB8ue170006INS_16reverse_iteratorIPN5Catch9StringRefEEES5_NS_18__unwrap_iter_implIS5_Lb0EEEEET_S8_T0_, symObjAddr: 0x7E6AC, symBinAddr: 0x10007FCB0, symSize: 0x74 }
  - { offsetInCU: 0xB1B48, offset: 0xB1B48, size: 0x8, addend: 0x0, symName: __ZNSt3__1neB8ue170006IPN5Catch9StringRefES3_EEbRKNS_16reverse_iteratorIT_EERKNS4_IT0_EE, symObjAddr: 0x7E720, symBinAddr: 0x10007FD24, symSize: 0x48 }
  - { offsetInCU: 0xB1C0A, offset: 0xB1C0A, size: 0x8, addend: 0x0, symName: __ZNSt3__112__to_addressB8ue170006INS_4pairIiN5Catch9StringRefEEEEEPT_S6_, symObjAddr: 0x7F214, symBinAddr: 0x100080818, symSize: 0x14 }
  - { offsetInCU: 0xB1C41, offset: 0xB1C41, size: 0x8, addend: 0x0, symName: __ZNSt3__119__allocate_at_leastB8ue170006INS_9allocatorINS_4pairIiN5Catch9StringRefEEEEEEENS_19__allocation_resultINS_16allocator_traitsIT_E7pointerEEERS9_m, symObjAddr: 0x7FA54, symBinAddr: 0x100081058, symSize: 0x40 }
  - { offsetInCU: 0xB1C86, offset: 0xB1C86, size: 0x8, addend: 0x0, symName: __ZNSt3__142__uninitialized_allocator_move_if_noexceptB8ue170006INS_9allocatorINS_4pairIiN5Catch9StringRefEEEEENS_16reverse_iteratorIPS5_EES9_S9_EET2_RT_T0_T1_SA_, symObjAddr: 0x7FC20, symBinAddr: 0x100081224, symSize: 0x12C }
  - { offsetInCU: 0xB1D27, offset: 0xB1D27, size: 0x8, addend: 0x0, symName: __ZNSt3__14swapB8ue170006IPNS_4pairIiN5Catch9StringRefEEEEENS_9enable_ifIXaasr21is_move_constructibleIT_EE5valuesr18is_move_assignableIS7_EE5valueEvE4typeERS7_SA_, symObjAddr: 0x7FD98, symBinAddr: 0x10008139C, symSize: 0x3C }
  - { offsetInCU: 0xB1D7C, offset: 0xB1D7C, size: 0x8, addend: 0x0, symName: __ZNSt3__122__make_exception_guardB8ue170006INS_29_AllocatorDestroyRangeReverseINS_9allocatorINS_4pairIiN5Catch9StringRefEEEEENS_16reverse_iteratorIPS6_EEEEEENS_28__exception_guard_exceptionsIT_EESD_, symObjAddr: 0x7FEC4, symBinAddr: 0x1000814C8, symSize: 0x4C }
  - { offsetInCU: 0xB1DB4, offset: 0xB1DB4, size: 0x8, addend: 0x0, symName: __ZNSt3__1neB8ue170006IPNS_4pairIiN5Catch9StringRefEEES5_EEbRKNS_16reverse_iteratorIT_EERKNS6_IT0_EE, symObjAddr: 0x7FF54, symBinAddr: 0x100081558, symSize: 0x48 }
  - { offsetInCU: 0xB1E03, offset: 0xB1E03, size: 0x8, addend: 0x0, symName: __ZNSt3__112__to_addressB8ue170006INS_16reverse_iteratorIPNS_4pairIiN5Catch9StringRefEEEEEvEEu7__decayIDTclsr19__to_address_helperIT_EE6__callclsr3stdE7declvalIRKS8_EEEEESA_, symObjAddr: 0x7FFD0, symBinAddr: 0x1000815D4, symSize: 0x24 }
  - { offsetInCU: 0xB1E65, offset: 0xB1E65, size: 0x8, addend: 0x0, symName: __ZNSt3__119__allocator_destroyB8ue170006INS_9allocatorINS_4pairIiN5Catch9StringRefEEEEENS_16reverse_iteratorINS7_IPS5_EEEESA_EEvRT_T0_T1_, symObjAddr: 0x802B0, symBinAddr: 0x1000818B4, symSize: 0x70 }
  - { offsetInCU: 0xB1ECB, offset: 0xB1ECB, size: 0x8, addend: 0x0, symName: __ZNSt3__1neB8ue170006INS_16reverse_iteratorIPNS_4pairIiN5Catch9StringRefEEEEES7_EEbRKNS1_IT_EERKNS1_IT0_EE, symObjAddr: 0x8035C, symBinAddr: 0x100081960, symSize: 0x60 }
  - { offsetInCU: 0xB1F1A, offset: 0xB1F1A, size: 0x8, addend: 0x0, symName: __ZNSt3__112__to_addressB8ue170006INS_16reverse_iteratorINS1_IPNS_4pairIiN5Catch9StringRefEEEEEEEvEEu7__decayIDTclsr19__to_address_helperIT_EE6__callclsr3stdE7declvalIRKS9_EEEEESB_, symObjAddr: 0x803BC, symBinAddr: 0x1000819C0, symSize: 0x24 }
  - { offsetInCU: 0xB1F7D, offset: 0xB1F7D, size: 0x8, addend: 0x0, symName: __ZNSt3__119__allocate_at_leastB8ue170006INS_9allocatorINS_10unique_ptrIN5Catch6Detail8EnumInfoENS_14default_deleteIS5_EEEEEEEENS_19__allocation_resultINS_16allocator_traitsIT_E7pointerEEERSC_m, symObjAddr: 0x814D4, symBinAddr: 0x100082AD8, symSize: 0x40 }
  - { offsetInCU: 0xB1FC2, offset: 0xB1FC2, size: 0x8, addend: 0x0, symName: __ZNSt3__142__uninitialized_allocator_move_if_noexceptB8ue170006INS_9allocatorINS_10unique_ptrIN5Catch6Detail8EnumInfoENS_14default_deleteIS5_EEEEEENS_16reverse_iteratorIPS8_EESC_SC_EET2_RT_T0_T1_SD_, symObjAddr: 0x816A4, symBinAddr: 0x100082CA8, symSize: 0x12C }
  - { offsetInCU: 0xB2063, offset: 0xB2063, size: 0x8, addend: 0x0, symName: __ZNSt3__14swapB8ue170006IPNS_10unique_ptrIN5Catch6Detail8EnumInfoENS_14default_deleteIS4_EEEEEENS_9enable_ifIXaasr21is_move_constructibleIT_EE5valuesr18is_move_assignableISA_EE5valueEvE4typeERSA_SD_, symObjAddr: 0x8181C, symBinAddr: 0x100082E20, symSize: 0x3C }
  - { offsetInCU: 0xB20B8, offset: 0xB20B8, size: 0x8, addend: 0x0, symName: __ZNSt3__122__make_exception_guardB8ue170006INS_29_AllocatorDestroyRangeReverseINS_9allocatorINS_10unique_ptrIN5Catch6Detail8EnumInfoENS_14default_deleteIS6_EEEEEENS_16reverse_iteratorIPS9_EEEEEENS_28__exception_guard_exceptionsIT_EESG_, symObjAddr: 0x81904, symBinAddr: 0x100082F08, symSize: 0x4C }
  - { offsetInCU: 0xB20F0, offset: 0xB20F0, size: 0x8, addend: 0x0, symName: __ZNSt3__1neB8ue170006IPNS_10unique_ptrIN5Catch6Detail8EnumInfoENS_14default_deleteIS4_EEEES8_EEbRKNS_16reverse_iteratorIT_EERKNS9_IT0_EE, symObjAddr: 0x81994, symBinAddr: 0x100082F98, symSize: 0x48 }
  - { offsetInCU: 0xB213F, offset: 0xB213F, size: 0x8, addend: 0x0, symName: __ZNSt3__112__to_addressB8ue170006INS_16reverse_iteratorIPNS_10unique_ptrIN5Catch6Detail8EnumInfoENS_14default_deleteIS5_EEEEEEvEEu7__decayIDTclsr19__to_address_helperIT_EE6__callclsr3stdE7declvalIRKSB_EEEEESD_, symObjAddr: 0x819DC, symBinAddr: 0x100082FE0, symSize: 0x24 }
  - { offsetInCU: 0xB21A1, offset: 0xB21A1, size: 0x8, addend: 0x0, symName: __ZNSt3__119__allocator_destroyB8ue170006INS_9allocatorINS_10unique_ptrIN5Catch6Detail8EnumInfoENS_14default_deleteIS5_EEEEEENS_16reverse_iteratorINSA_IPS8_EEEESD_EEvRT_T0_T1_, symObjAddr: 0x81C8C, symBinAddr: 0x100083290, symSize: 0x70 }
  - { offsetInCU: 0xB2207, offset: 0xB2207, size: 0x8, addend: 0x0, symName: __ZNSt3__1neB8ue170006INS_16reverse_iteratorIPNS_10unique_ptrIN5Catch6Detail8EnumInfoENS_14default_deleteIS5_EEEEEESA_EEbRKNS1_IT_EERKNS1_IT0_EE, symObjAddr: 0x81D38, symBinAddr: 0x10008333C, symSize: 0x60 }
  - { offsetInCU: 0xB2256, offset: 0xB2256, size: 0x8, addend: 0x0, symName: __ZNSt3__112__to_addressB8ue170006INS_16reverse_iteratorINS1_IPNS_10unique_ptrIN5Catch6Detail8EnumInfoENS_14default_deleteIS5_EEEEEEEEvEEu7__decayIDTclsr19__to_address_helperIT_EE6__callclsr3stdE7declvalIRKSC_EEEEESE_, symObjAddr: 0x81D98, symBinAddr: 0x10008339C, symSize: 0x24 }
  - { offsetInCU: 0xB22B9, offset: 0xB22B9, size: 0x8, addend: 0x0, symName: __ZNSt3__112__to_addressB8ue170006INS_10unique_ptrIKN5Catch20IExceptionTranslatorENS_14default_deleteIS4_EEEEEEPT_S9_, symObjAddr: 0x8245C, symBinAddr: 0x100083A60, symSize: 0x14 }
  - { offsetInCU: 0xB22F0, offset: 0xB22F0, size: 0x8, addend: 0x0, symName: __ZNSt3__119__allocate_at_leastB8ue170006INS_9allocatorINS_10unique_ptrIKN5Catch20IExceptionTranslatorENS_14default_deleteIS5_EEEEEEEENS_19__allocation_resultINS_16allocator_traitsIT_E7pointerEEERSC_m, symObjAddr: 0x83144, symBinAddr: 0x100084748, symSize: 0x40 }
  - { offsetInCU: 0xB2335, offset: 0xB2335, size: 0x8, addend: 0x0, symName: __ZNSt3__142__uninitialized_allocator_move_if_noexceptB8ue170006INS_9allocatorINS_10unique_ptrIKN5Catch20IExceptionTranslatorENS_14default_deleteIS5_EEEEEENS_16reverse_iteratorIPS8_EESC_SC_EET2_RT_T0_T1_SD_, symObjAddr: 0x83314, symBinAddr: 0x100084918, symSize: 0x12C }
  - { offsetInCU: 0xB23D6, offset: 0xB23D6, size: 0x8, addend: 0x0, symName: __ZNSt3__14swapB8ue170006IPNS_10unique_ptrIKN5Catch20IExceptionTranslatorENS_14default_deleteIS4_EEEEEENS_9enable_ifIXaasr21is_move_constructibleIT_EE5valuesr18is_move_assignableISA_EE5valueEvE4typeERSA_SD_, symObjAddr: 0x8348C, symBinAddr: 0x100084A90, symSize: 0x3C }
  - { offsetInCU: 0xB242B, offset: 0xB242B, size: 0x8, addend: 0x0, symName: __ZNSt3__122__make_exception_guardB8ue170006INS_29_AllocatorDestroyRangeReverseINS_9allocatorINS_10unique_ptrIKN5Catch20IExceptionTranslatorENS_14default_deleteIS6_EEEEEENS_16reverse_iteratorIPS9_EEEEEENS_28__exception_guard_exceptionsIT_EESG_, symObjAddr: 0x83574, symBinAddr: 0x100084B78, symSize: 0x4C }
  - { offsetInCU: 0xB2463, offset: 0xB2463, size: 0x8, addend: 0x0, symName: __ZNSt3__1neB8ue170006IPNS_10unique_ptrIKN5Catch20IExceptionTranslatorENS_14default_deleteIS4_EEEES8_EEbRKNS_16reverse_iteratorIT_EERKNS9_IT0_EE, symObjAddr: 0x83604, symBinAddr: 0x100084C08, symSize: 0x48 }
  - { offsetInCU: 0xB24B2, offset: 0xB24B2, size: 0x8, addend: 0x0, symName: __ZNSt3__112__to_addressB8ue170006INS_16reverse_iteratorIPNS_10unique_ptrIKN5Catch20IExceptionTranslatorENS_14default_deleteIS5_EEEEEEvEEu7__decayIDTclsr19__to_address_helperIT_EE6__callclsr3stdE7declvalIRKSB_EEEEESD_, symObjAddr: 0x8364C, symBinAddr: 0x100084C50, symSize: 0x24 }
  - { offsetInCU: 0xB2514, offset: 0xB2514, size: 0x8, addend: 0x0, symName: __ZNSt3__119__allocator_destroyB8ue170006INS_9allocatorINS_10unique_ptrIKN5Catch20IExceptionTranslatorENS_14default_deleteIS5_EEEEEENS_16reverse_iteratorINSA_IPS8_EEEESD_EEvRT_T0_T1_, symObjAddr: 0x838FC, symBinAddr: 0x100084F00, symSize: 0x70 }
  - { offsetInCU: 0xB257A, offset: 0xB257A, size: 0x8, addend: 0x0, symName: __ZNSt3__1neB8ue170006INS_16reverse_iteratorIPNS_10unique_ptrIKN5Catch20IExceptionTranslatorENS_14default_deleteIS5_EEEEEESA_EEbRKNS1_IT_EERKNS1_IT0_EE, symObjAddr: 0x839A8, symBinAddr: 0x100084FAC, symSize: 0x60 }
  - { offsetInCU: 0xB25C9, offset: 0xB25C9, size: 0x8, addend: 0x0, symName: __ZNSt3__112__to_addressB8ue170006INS_16reverse_iteratorINS1_IPNS_10unique_ptrIKN5Catch20IExceptionTranslatorENS_14default_deleteIS5_EEEEEEEEvEEu7__decayIDTclsr19__to_address_helperIT_EE6__callclsr3stdE7declvalIRKSC_EEEEESE_, symObjAddr: 0x83A08, symBinAddr: 0x10008500C, symSize: 0x24 }
  - { offsetInCU: 0xB262C, offset: 0xB262C, size: 0x8, addend: 0x0, symName: __ZNSt3__122__make_exception_guardB8ue170006INS_6vectorIN5Catch11MessageInfoENS_9allocatorIS3_EEE16__destroy_vectorEEENS_28__exception_guard_exceptionsIT_EES9_, symObjAddr: 0x84200, symBinAddr: 0x100085804, symSize: 0x40 }
  - { offsetInCU: 0xB2663, offset: 0xB2663, size: 0x8, addend: 0x0, symName: __ZNSt3__119__allocate_at_leastB8ue170006INS_9allocatorIN5Catch11MessageInfoEEEEENS_19__allocation_resultINS_16allocator_traitsIT_E7pointerEEERS7_m, symObjAddr: 0x844E8, symBinAddr: 0x100085AEC, symSize: 0x40 }
  - { offsetInCU: 0xB26A9, offset: 0xB26A9, size: 0x8, addend: 0x0, symName: __ZNSt3__112__to_addressB8ue170006IN5Catch11MessageInfoEEEPT_S4_, symObjAddr: 0x847AC, symBinAddr: 0x100085DB0, symSize: 0x14 }
  - { offsetInCU: 0xB26DF, offset: 0xB26DF, size: 0x8, addend: 0x0, symName: __ZNSt3__130__uninitialized_allocator_copyB8ue170006INS_9allocatorIN5Catch11MessageInfoEEEPS3_S5_S5_EET2_RT_T0_T1_S6_, symObjAddr: 0x8485C, symBinAddr: 0x100085E60, symSize: 0x80 }
  - { offsetInCU: 0xB277D, offset: 0xB277D, size: 0x8, addend: 0x0, symName: __ZNSt3__114__unwrap_rangeB8ue170006IPN5Catch11MessageInfoES3_EENS_4pairIT0_S5_EET_S7_, symObjAddr: 0x8494C, symBinAddr: 0x100085F50, symSize: 0x60 }
  - { offsetInCU: 0xB27CB, offset: 0xB27CB, size: 0x8, addend: 0x0, symName: __ZNSt3__135__uninitialized_allocator_copy_implB8ue170006INS_9allocatorIN5Catch11MessageInfoEEEPS3_S5_S5_EET2_RT_T0_T1_S6_, symObjAddr: 0x849AC, symBinAddr: 0x100085FB0, symSize: 0xF4 }
  - { offsetInCU: 0xB286A, offset: 0xB286A, size: 0x8, addend: 0x0, symName: __ZNSt3__113__unwrap_iterB8ue170006IPN5Catch11MessageInfoENS_18__unwrap_iter_implIS3_Lb1EEELi0EEEDTclsrT0_8__unwrapclsr3stdE7declvalIT_EEEES7_, symObjAddr: 0x84AA0, symBinAddr: 0x1000860A4, symSize: 0x24 }
  - { offsetInCU: 0xB28B1, offset: 0xB28B1, size: 0x8, addend: 0x0, symName: __ZNSt3__113__rewrap_iterB8ue170006IPN5Catch11MessageInfoES3_NS_18__unwrap_iter_implIS3_Lb1EEEEET_S6_T0_, symObjAddr: 0x84AC4, symBinAddr: 0x1000860C8, symSize: 0x3C }
  - { offsetInCU: 0xB2908, offset: 0xB2908, size: 0x8, addend: 0x0, symName: __ZNSt3__19make_pairB8ue170006IPN5Catch11MessageInfoES3_EENS_4pairINS_18__unwrap_ref_decayIT_E4typeENS5_IT0_E4typeEEEOS6_OS9_, symObjAddr: 0x84B00, symBinAddr: 0x100086104, symSize: 0x38 }
  - { offsetInCU: 0xB2A33, offset: 0xB2A33, size: 0x8, addend: 0x0, symName: __ZNSt3__122__make_exception_guardB8ue170006INS_29_AllocatorDestroyRangeReverseINS_9allocatorIN5Catch11MessageInfoEEEPS4_EEEENS_28__exception_guard_exceptionsIT_EES9_, symObjAddr: 0x84BA8, symBinAddr: 0x1000861AC, symSize: 0x4C }
  - { offsetInCU: 0xB2A6A, offset: 0xB2A6A, size: 0x8, addend: 0x0, symName: __ZNSt3__119__allocator_destroyB8ue170006INS_9allocatorIN5Catch11MessageInfoEEENS_16reverse_iteratorIPS3_EES7_EEvRT_T0_T1_, symObjAddr: 0x84E38, symBinAddr: 0x10008643C, symSize: 0x70 }
  - { offsetInCU: 0xB2ACE, offset: 0xB2ACE, size: 0x8, addend: 0x0, symName: __ZNSt3__1neB8ue170006IPN5Catch11MessageInfoES3_EEbRKNS_16reverse_iteratorIT_EERKNS4_IT0_EE, symObjAddr: 0x84EDC, symBinAddr: 0x1000864E0, symSize: 0x48 }
  - { offsetInCU: 0xB2B1D, offset: 0xB2B1D, size: 0x8, addend: 0x0, symName: __ZNSt3__112__to_addressB8ue170006INS_16reverse_iteratorIPN5Catch11MessageInfoEEEvEEu7__decayIDTclsr19__to_address_helperIT_EE6__callclsr3stdE7declvalIRKS6_EEEEES8_, symObjAddr: 0x84F50, symBinAddr: 0x100086554, symSize: 0x24 }
  - { offsetInCU: 0xB2BD7, offset: 0xB2BD7, size: 0x8, addend: 0x0, symName: __ZNSt3__142__uninitialized_allocator_move_if_noexceptB8ue170006INS_9allocatorIN5Catch11MessageInfoEEENS_16reverse_iteratorIPS3_EES7_S7_EET2_RT_T0_T1_S8_, symObjAddr: 0x85A40, symBinAddr: 0x100087044, symSize: 0x11C }
  - { offsetInCU: 0xB2C78, offset: 0xB2C78, size: 0x8, addend: 0x0, symName: __ZNSt3__14swapB8ue170006IPN5Catch11MessageInfoEEENS_9enable_ifIXaasr21is_move_constructibleIT_EE5valuesr18is_move_assignableIS5_EE5valueEvE4typeERS5_S8_, symObjAddr: 0x85B5C, symBinAddr: 0x100087160, symSize: 0x3C }
  - { offsetInCU: 0xB2CCD, offset: 0xB2CCD, size: 0x8, addend: 0x0, symName: __ZNSt3__122__make_exception_guardB8ue170006INS_29_AllocatorDestroyRangeReverseINS_9allocatorIN5Catch11MessageInfoEEENS_16reverse_iteratorIPS4_EEEEEENS_28__exception_guard_exceptionsIT_EESB_, symObjAddr: 0x85B98, symBinAddr: 0x10008719C, symSize: 0x4C }
  - { offsetInCU: 0xB2D04, offset: 0xB2D04, size: 0x8, addend: 0x0, symName: __ZNSt3__119__allocator_destroyB8ue170006INS_9allocatorIN5Catch11MessageInfoEEENS_16reverse_iteratorINS5_IPS3_EEEES8_EEvRT_T0_T1_, symObjAddr: 0x85F04, symBinAddr: 0x100087508, symSize: 0x70 }
  - { offsetInCU: 0xB2D6A, offset: 0xB2D6A, size: 0x8, addend: 0x0, symName: __ZNSt3__1neB8ue170006INS_16reverse_iteratorIPN5Catch11MessageInfoEEES5_EEbRKNS1_IT_EERKNS1_IT0_EE, symObjAddr: 0x85FB0, symBinAddr: 0x1000875B4, symSize: 0x60 }
  - { offsetInCU: 0xB2DB9, offset: 0xB2DB9, size: 0x8, addend: 0x0, symName: __ZNSt3__112__to_addressB8ue170006INS_16reverse_iteratorINS1_IPN5Catch11MessageInfoEEEEEvEEu7__decayIDTclsr19__to_address_helperIT_EE6__callclsr3stdE7declvalIRKS7_EEEEES9_, symObjAddr: 0x86010, symBinAddr: 0x100087614, symSize: 0x24 }
  - { offsetInCU: 0xB2E1C, offset: 0xB2E1C, size: 0x8, addend: 0x0, symName: __ZNSt3__112__to_addressB8ue170006IN5Catch8TestCaseEEEPT_S4_, symObjAddr: 0x866C8, symBinAddr: 0x100087CCC, symSize: 0x14 }
  - { offsetInCU: 0xB2E99, offset: 0xB2E99, size: 0x8, addend: 0x0, symName: __ZNSt3__1eqB8ue170006ERKNS_21__tree_const_iteratorINS_12basic_stringIcNS_11char_traitsIcEENS_9allocatorIcEEEEPNS_11__tree_nodeIS6_PvEElEESD_, symObjAddr: 0x87684, symBinAddr: 0x100088C88, symSize: 0x30 }
  - { offsetInCU: 0xB2ED6, offset: 0xB2ED6, size: 0x8, addend: 0x0, symName: __ZNSt3__17launderB8ue170006INS_4pairIKNS_12basic_stringIcNS_11char_traitsIcEENS_9allocatorIcEEEEN5Catch7TagInfoEEEEEPT_SD_, symObjAddr: 0x87C90, symBinAddr: 0x100089294, symSize: 0x24 }
  - { offsetInCU: 0xB2F0D, offset: 0xB2F0D, size: 0x8, addend: 0x0, symName: __ZNSt3__19__launderB8ue170006INS_4pairIKNS_12basic_stringIcNS_11char_traitsIcEENS_9allocatorIcEEEEN5Catch7TagInfoEEEEEPT_SD_, symObjAddr: 0x87CB4, symBinAddr: 0x1000892B8, symSize: 0x14 }
  - { offsetInCU: 0xB2F44, offset: 0xB2F44, size: 0x8, addend: 0x0, symName: __ZNSt3__1neB8ue170006ERKNS_15__tree_iteratorINS_12__value_typeINS_12basic_stringIcNS_11char_traitsIcEENS_9allocatorIcEEEEN5Catch7TagInfoEEEPNS_11__tree_nodeISA_PvEElEESH_, symObjAddr: 0x87F2C, symBinAddr: 0x100089530, symSize: 0x34 }
  - { offsetInCU: 0xB2F81, offset: 0xB2F81, size: 0x8, addend: 0x0, symName: __ZNSt3__17launderB8ue170006IKNS_4pairIKNS_12basic_stringIcNS_11char_traitsIcEENS_9allocatorIcEEEEN5Catch7TagInfoEEEEEPT_SE_, symObjAddr: 0x880D4, symBinAddr: 0x1000896D8, symSize: 0x24 }
  - { offsetInCU: 0xB2FB8, offset: 0xB2FB8, size: 0x8, addend: 0x0, symName: __ZNSt3__19__launderB8ue170006IKNS_4pairIKNS_12basic_stringIcNS_11char_traitsIcEENS_9allocatorIcEEEEN5Catch7TagInfoEEEEEPT_SE_, symObjAddr: 0x880F8, symBinAddr: 0x1000896FC, symSize: 0x14 }
  - { offsetInCU: 0xB2FEF, offset: 0xB2FEF, size: 0x8, addend: 0x0, symName: __ZNSt3__1eqB8ue170006ERKNS_15__tree_iteratorINS_12__value_typeINS_12basic_stringIcNS_11char_traitsIcEENS_9allocatorIcEEEEN5Catch7TagInfoEEEPNS_11__tree_nodeISA_PvEElEESH_, symObjAddr: 0x8812C, symBinAddr: 0x100089730, symSize: 0x30 }
  - { offsetInCU: 0xB30F8, offset: 0xB30F8, size: 0x8, addend: 0x0, symName: __ZNSt3__110scientificB8ue170006ERNS_8ios_baseE, symObjAddr: 0x8932C, symBinAddr: 0x10008A930, symSize: 0x30 }
  - { offsetInCU: 0xB3127, offset: 0xB3127, size: 0x8, addend: 0x0, symName: __ZNSt3__19use_facetB8ue170006INS_7collateIcEEEERKT_RKNS_6localeE, symObjAddr: 0x89604, symBinAddr: 0x10008AC08, symSize: 0x2C }
  - { offsetInCU: 0xB315D, offset: 0xB315D, size: 0x8, addend: 0x0, symName: __ZNSt3__119__throw_regex_errorB8ue170006ILNS_15regex_constants10error_typeE17EEEvv, symObjAddr: 0x89900, symBinAddr: 0x10008AF04, symSize: 0x60 }
  - { offsetInCU: 0xB3614, offset: 0xB3614, size: 0x8, addend: 0x0, symName: __ZNSt3__119__throw_regex_errorB8ue170006ILNS_15regex_constants10error_typeE14EEEvv, symObjAddr: 0x8A2A4, symBinAddr: 0x10008B8A8, symSize: 0x60 }
  - { offsetInCU: 0xB425F, offset: 0xB425F, size: 0x8, addend: 0x0, symName: __ZNSt3__14swapB8ue170006IPNS_13__empty_stateIcEEEENS_9enable_ifIXaasr21is_move_constructibleIT_EE5valuesr18is_move_assignableIS5_EE5valueEvE4typeERS5_S8_, symObjAddr: 0x8B174, symBinAddr: 0x10008C778, symSize: 0x3C }
  - { offsetInCU: 0xB42B4, offset: 0xB42B4, size: 0x8, addend: 0x0, symName: __ZNSt3__14nextB8ue170006INS_11__wrap_iterIPKcEEEENS_9enable_ifIXsr29__has_input_iterator_categoryIT_EE5valueES6_E4typeES6_NS_15iterator_traitsIS6_E15difference_typeE, symObjAddr: 0x8CA30, symBinAddr: 0x10008E034, symSize: 0x3C }
  - { offsetInCU: 0xB42F9, offset: 0xB42F9, size: 0x8, addend: 0x0, symName: __ZNSt3__119__throw_regex_errorB8ue170006ILNS_15regex_constants10error_typeE6EEEvv, symObjAddr: 0x8CC2C, symBinAddr: 0x10008E230, symSize: 0x60 }
  - { offsetInCU: 0xB43A5, offset: 0xB43A5, size: 0x8, addend: 0x0, symName: __ZNSt3__18__is_eolB8ue170006IcEEbT_, symObjAddr: 0x8CF80, symBinAddr: 0x10008E584, symSize: 0x48 }
  - { offsetInCU: 0xB43DD, offset: 0xB43DD, size: 0x8, addend: 0x0, symName: __ZNSt3__14prevB8ue170006IPKcEENS_9enable_ifIXsr29__has_input_iterator_categoryIT_EE5valueES4_E4typeES4_NS_15iterator_traitsIS4_E15difference_typeE, symObjAddr: 0x8CFC8, symBinAddr: 0x10008E5CC, symSize: 0x3C }
  - { offsetInCU: 0xB4423, offset: 0xB4423, size: 0x8, addend: 0x0, symName: __ZNSt3__19__advanceB8ue170006IPKcEEvRT_NS_15iterator_traitsIS3_E15difference_typeENS_26random_access_iterator_tagE, symObjAddr: 0x8D03C, symBinAddr: 0x10008E640, symSize: 0x28 }
  - { offsetInCU: 0xB44F6, offset: 0xB44F6, size: 0x8, addend: 0x0, symName: __ZNSt3__19__advanceB8ue170006INS_11__wrap_iterIPKcEEEEvRT_NS_15iterator_traitsIS5_E15difference_typeENS_26random_access_iterator_tagE, symObjAddr: 0x8D2BC, symBinAddr: 0x10008E8C0, symSize: 0x2C }
  - { offsetInCU: 0xB49AC, offset: 0xB49AC, size: 0x8, addend: 0x0, symName: __ZNSt3__112__to_addressB8ue170006INS_9sub_matchIPKcEEEEPT_S6_, symObjAddr: 0x8ECA8, symBinAddr: 0x1000902AC, symSize: 0x14 }
  - { offsetInCU: 0xB49E3, offset: 0xB49E3, size: 0x8, addend: 0x0, symName: __ZNSt3__16fill_nB8ue170006IPNS_9sub_matchIPKcEEmS4_EET_S6_T0_RKT1_, symObjAddr: 0x8EF2C, symBinAddr: 0x100090530, symSize: 0x44 }
  - { offsetInCU: 0xB4A4A, offset: 0xB4A4A, size: 0x8, addend: 0x0, symName: __ZNSt3__18__fill_nB8ue170006IPNS_9sub_matchIPKcEEmS4_EET_S6_T0_RKT1_, symObjAddr: 0x8F288, symBinAddr: 0x10009088C, symSize: 0x6C }
  - { offsetInCU: 0xB4AB1, offset: 0xB4AB1, size: 0x8, addend: 0x0, symName: __ZNSt3__119__allocate_at_leastB8ue170006INS_9allocatorINS_9sub_matchIPKcEEEEEENS_19__allocation_resultINS_16allocator_traitsIT_E7pointerEEERS9_m, symObjAddr: 0x8F61C, symBinAddr: 0x100090C20, symSize: 0x40 }
  - { offsetInCU: 0xB4AF6, offset: 0xB4AF6, size: 0x8, addend: 0x0, symName: __ZNSt3__119__throw_regex_errorB8ue170006ILNS_15regex_constants10error_typeE12EEEvv, symObjAddr: 0x8FA78, symBinAddr: 0x10009107C, symSize: 0x60 }
  - { offsetInCU: 0xB4B1D, offset: 0xB4B1D, size: 0x8, addend: 0x0, symName: __ZNSt3__14nextB8ue170006IPKcEENS_9enable_ifIXsr29__has_input_iterator_categoryIT_EE5valueES4_E4typeES4_NS_15iterator_traitsIS4_E15difference_typeE, symObjAddr: 0x8FB04, symBinAddr: 0x100091108, symSize: 0x34 }
  - { offsetInCU: 0xB4B62, offset: 0xB4B62, size: 0x8, addend: 0x0, symName: __ZNSt3__119__throw_regex_errorB8ue170006ILNS_15regex_constants10error_typeE16EEEvv, symObjAddr: 0x8FB6C, symBinAddr: 0x100091170, symSize: 0x60 }
  - { offsetInCU: 0xB4B89, offset: 0xB4B89, size: 0x8, addend: 0x0, symName: __ZNSt3__112__to_addressB8ue170006INS_7__stateIcEEEEPT_S4_, symObjAddr: 0x8FFD0, symBinAddr: 0x1000915D4, symSize: 0x14 }
  - { offsetInCU: 0xB4BC0, offset: 0xB4BC0, size: 0x8, addend: 0x0, symName: __ZNSt3__119__allocate_at_leastB8ue170006INS_9allocatorINS_7__stateIcEEEEEENS_19__allocation_resultINS_16allocator_traitsIT_E7pointerEEERS7_m, symObjAddr: 0x90ABC, symBinAddr: 0x1000920C0, symSize: 0x40 }
  - { offsetInCU: 0xB4C05, offset: 0xB4C05, size: 0x8, addend: 0x0, symName: __ZNSt3__142__uninitialized_allocator_move_if_noexceptB8ue170006INS_9allocatorINS_7__stateIcEEEENS_16reverse_iteratorIPS3_EES7_S7_EET2_RT_T0_T1_S8_, symObjAddr: 0x90D48, symBinAddr: 0x10009234C, symSize: 0x12C }
  - { offsetInCU: 0xB4CA6, offset: 0xB4CA6, size: 0x8, addend: 0x0, symName: __ZNSt3__14swapB8ue170006IPNS_7__stateIcEEEENS_9enable_ifIXaasr21is_move_constructibleIT_EE5valuesr18is_move_assignableIS5_EE5valueEvE4typeERS5_S8_, symObjAddr: 0x90EC0, symBinAddr: 0x1000924C4, symSize: 0x3C }
  - { offsetInCU: 0xB4CFB, offset: 0xB4CFB, size: 0x8, addend: 0x0, symName: __ZNSt3__122__make_exception_guardB8ue170006INS_29_AllocatorDestroyRangeReverseINS_9allocatorINS_7__stateIcEEEENS_16reverse_iteratorIPS4_EEEEEENS_28__exception_guard_exceptionsIT_EESB_, symObjAddr: 0x9100C, symBinAddr: 0x100092610, symSize: 0x4C }
  - { offsetInCU: 0xB4D33, offset: 0xB4D33, size: 0x8, addend: 0x0, symName: __ZNSt3__1neB8ue170006IPNS_7__stateIcEES3_EEbRKNS_16reverse_iteratorIT_EERKNS4_IT0_EE, symObjAddr: 0x9109C, symBinAddr: 0x1000926A0, symSize: 0x48 }
  - { offsetInCU: 0xB4D82, offset: 0xB4D82, size: 0x8, addend: 0x0, symName: __ZNSt3__112__to_addressB8ue170006INS_16reverse_iteratorIPNS_7__stateIcEEEEvEEu7__decayIDTclsr19__to_address_helperIT_EE6__callclsr3stdE7declvalIRKS6_EEEEES8_, symObjAddr: 0x910E4, symBinAddr: 0x1000926E8, symSize: 0x24 }
  - { offsetInCU: 0xB4DE4, offset: 0xB4DE4, size: 0x8, addend: 0x0, symName: __ZNSt3__119__allocator_destroyB8ue170006INS_9allocatorINS_7__stateIcEEEENS_16reverse_iteratorINS5_IPS3_EEEES8_EEvRT_T0_T1_, symObjAddr: 0x91394, symBinAddr: 0x100092998, symSize: 0x70 }
  - { offsetInCU: 0xB4E4A, offset: 0xB4E4A, size: 0x8, addend: 0x0, symName: __ZNSt3__1neB8ue170006INS_16reverse_iteratorIPNS_7__stateIcEEEES5_EEbRKNS1_IT_EERKNS1_IT0_EE, symObjAddr: 0x91440, symBinAddr: 0x100092A44, symSize: 0x60 }
  - { offsetInCU: 0xB4E99, offset: 0xB4E99, size: 0x8, addend: 0x0, symName: __ZNSt3__112__to_addressB8ue170006INS_16reverse_iteratorINS1_IPNS_7__stateIcEEEEEEvEEu7__decayIDTclsr19__to_address_helperIT_EE6__callclsr3stdE7declvalIRKS7_EEEEES9_, symObjAddr: 0x914CC, symBinAddr: 0x100092AD0, symSize: 0x24 }
  - { offsetInCU: 0xB4EFC, offset: 0xB4EFC, size: 0x8, addend: 0x0, symName: __ZNSt3__112__to_addressB8ue170006INS_4pairImPKcEEEEPT_S6_, symObjAddr: 0x91F44, symBinAddr: 0x100093548, symSize: 0x14 }
  - { offsetInCU: 0xB4F32, offset: 0xB4F32, size: 0x8, addend: 0x0, symName: __ZNSt3__142__uninitialized_allocator_move_if_noexceptB8ue170006INS_9allocatorINS_9sub_matchIPKcEEEENS_16reverse_iteratorIPS5_EES9_S9_EET2_RT_T0_T1_SA_, symObjAddr: 0x926D8, symBinAddr: 0x100093CDC, symSize: 0x12C }
  - { offsetInCU: 0xB4FD3, offset: 0xB4FD3, size: 0x8, addend: 0x0, symName: __ZNSt3__14swapB8ue170006IPNS_9sub_matchIPKcEEEENS_9enable_ifIXaasr21is_move_constructibleIT_EE5valuesr18is_move_assignableIS7_EE5valueEvE4typeERS7_SA_, symObjAddr: 0x92850, symBinAddr: 0x100093E54, symSize: 0x3C }
  - { offsetInCU: 0xB5028, offset: 0xB5028, size: 0x8, addend: 0x0, symName: __ZNSt3__122__make_exception_guardB8ue170006INS_29_AllocatorDestroyRangeReverseINS_9allocatorINS_9sub_matchIPKcEEEENS_16reverse_iteratorIPS6_EEEEEENS_28__exception_guard_exceptionsIT_EESD_, symObjAddr: 0x9288C, symBinAddr: 0x100093E90, symSize: 0x4C }
  - { offsetInCU: 0xB5060, offset: 0xB5060, size: 0x8, addend: 0x0, symName: __ZNSt3__1neB8ue170006IPNS_9sub_matchIPKcEES5_EEbRKNS_16reverse_iteratorIT_EERKNS6_IT0_EE, symObjAddr: 0x9291C, symBinAddr: 0x100093F20, symSize: 0x48 }
  - { offsetInCU: 0xB50AF, offset: 0xB50AF, size: 0x8, addend: 0x0, symName: __ZNSt3__112__to_addressB8ue170006INS_16reverse_iteratorIPNS_9sub_matchIPKcEEEEvEEu7__decayIDTclsr19__to_address_helperIT_EE6__callclsr3stdE7declvalIRKS8_EEEEESA_, symObjAddr: 0x92998, symBinAddr: 0x100093F9C, symSize: 0x24 }
  - { offsetInCU: 0xB5111, offset: 0xB5111, size: 0x8, addend: 0x0, symName: __ZNSt3__119__allocator_destroyB8ue170006INS_9allocatorINS_9sub_matchIPKcEEEENS_16reverse_iteratorINS7_IPS5_EEEESA_EEvRT_T0_T1_, symObjAddr: 0x92C78, symBinAddr: 0x10009427C, symSize: 0x70 }
  - { offsetInCU: 0xB5177, offset: 0xB5177, size: 0x8, addend: 0x0, symName: __ZNSt3__1neB8ue170006INS_16reverse_iteratorIPNS_9sub_matchIPKcEEEES7_EEbRKNS1_IT_EERKNS1_IT0_EE, symObjAddr: 0x92D24, symBinAddr: 0x100094328, symSize: 0x60 }
  - { offsetInCU: 0xB51C6, offset: 0xB51C6, size: 0x8, addend: 0x0, symName: __ZNSt3__112__to_addressB8ue170006INS_16reverse_iteratorINS1_IPNS_9sub_matchIPKcEEEEEEvEEu7__decayIDTclsr19__to_address_helperIT_EE6__callclsr3stdE7declvalIRKS9_EEEEESB_, symObjAddr: 0x92D84, symBinAddr: 0x100094388, symSize: 0x24 }
  - { offsetInCU: 0xB5229, offset: 0xB5229, size: 0x8, addend: 0x0, symName: __ZNSt3__119__allocate_at_leastB8ue170006INS_9allocatorINS_4pairImPKcEEEEEENS_19__allocation_resultINS_16allocator_traitsIT_E7pointerEEERS9_m, symObjAddr: 0x9397C, symBinAddr: 0x100094F80, symSize: 0x40 }
  - { offsetInCU: 0xB526E, offset: 0xB526E, size: 0x8, addend: 0x0, symName: __ZNSt3__142__uninitialized_allocator_move_if_noexceptB8ue170006INS_9allocatorINS_4pairImPKcEEEENS_16reverse_iteratorIPS5_EES9_S9_EET2_RT_T0_T1_SA_, symObjAddr: 0x93BFC, symBinAddr: 0x100095200, symSize: 0x12C }
  - { offsetInCU: 0xB530F, offset: 0xB530F, size: 0x8, addend: 0x0, symName: __ZNSt3__14swapB8ue170006IPNS_4pairImPKcEEEENS_9enable_ifIXaasr21is_move_constructibleIT_EE5valuesr18is_move_assignableIS7_EE5valueEvE4typeERS7_SA_, symObjAddr: 0x93D74, symBinAddr: 0x100095378, symSize: 0x3C }
  - { offsetInCU: 0xB5364, offset: 0xB5364, size: 0x8, addend: 0x0, symName: __ZNSt3__122__make_exception_guardB8ue170006INS_29_AllocatorDestroyRangeReverseINS_9allocatorINS_4pairImPKcEEEENS_16reverse_iteratorIPS6_EEEEEENS_28__exception_guard_exceptionsIT_EESD_, symObjAddr: 0x93E5C, symBinAddr: 0x100095460, symSize: 0x4C }
  - { offsetInCU: 0xB539C, offset: 0xB539C, size: 0x8, addend: 0x0, symName: __ZNSt3__1neB8ue170006IPNS_4pairImPKcEES5_EEbRKNS_16reverse_iteratorIT_EERKNS6_IT0_EE, symObjAddr: 0x93EEC, symBinAddr: 0x1000954F0, symSize: 0x48 }
  - { offsetInCU: 0xB53EB, offset: 0xB53EB, size: 0x8, addend: 0x0, symName: __ZNSt3__112__to_addressB8ue170006INS_16reverse_iteratorIPNS_4pairImPKcEEEEvEEu7__decayIDTclsr19__to_address_helperIT_EE6__callclsr3stdE7declvalIRKS8_EEEEESA_, symObjAddr: 0x93F68, symBinAddr: 0x10009556C, symSize: 0x24 }
  - { offsetInCU: 0xB544D, offset: 0xB544D, size: 0x8, addend: 0x0, symName: __ZNSt3__119__allocator_destroyB8ue170006INS_9allocatorINS_4pairImPKcEEEENS_16reverse_iteratorINS7_IPS5_EEEESA_EEvRT_T0_T1_, symObjAddr: 0x94240, symBinAddr: 0x100095844, symSize: 0x70 }
  - { offsetInCU: 0xB54B3, offset: 0xB54B3, size: 0x8, addend: 0x0, symName: __ZNSt3__1neB8ue170006INS_16reverse_iteratorIPNS_4pairImPKcEEEES7_EEbRKNS1_IT_EERKNS1_IT0_EE, symObjAddr: 0x942EC, symBinAddr: 0x1000958F0, symSize: 0x60 }
  - { offsetInCU: 0xB5502, offset: 0xB5502, size: 0x8, addend: 0x0, symName: __ZNSt3__112__to_addressB8ue170006INS_16reverse_iteratorINS1_IPNS_4pairImPKcEEEEEEvEEu7__decayIDTclsr19__to_address_helperIT_EE6__callclsr3stdE7declvalIRKS9_EEEEESB_, symObjAddr: 0x9434C, symBinAddr: 0x100095950, symSize: 0x24 }
  - { offsetInCU: 0xB5565, offset: 0xB5565, size: 0x8, addend: 0x0, symName: __ZNSt3__122__make_exception_guardB8ue170006INS_6vectorINS_9sub_matchIPKcEENS_9allocatorIS5_EEE16__destroy_vectorEEENS_28__exception_guard_exceptionsIT_EESB_, symObjAddr: 0x94B78, symBinAddr: 0x10009617C, symSize: 0x40 }
  - { offsetInCU: 0xB559B, offset: 0xB559B, size: 0x8, addend: 0x0, symName: __ZNSt3__130__uninitialized_allocator_copyB8ue170006INS_9allocatorINS_9sub_matchIPKcEEEEPS5_S7_S7_EET2_RT_T0_T1_S8_, symObjAddr: 0x94CE4, symBinAddr: 0x1000962E8, symSize: 0x80 }
  - { offsetInCU: 0xB5639, offset: 0xB5639, size: 0x8, addend: 0x0, symName: __ZNSt3__114__unwrap_rangeB8ue170006IPNS_9sub_matchIPKcEES5_EENS_4pairIT0_S7_EET_S9_, symObjAddr: 0x94D64, symBinAddr: 0x100096368, symSize: 0x60 }
  - { offsetInCU: 0xB5687, offset: 0xB5687, size: 0x8, addend: 0x0, symName: __ZNSt3__135__uninitialized_allocator_copy_implB8ue170006INS_9allocatorINS_9sub_matchIPKcEEEEPS5_S7_S7_EET2_RT_T0_T1_S8_, symObjAddr: 0x94DC4, symBinAddr: 0x1000963C8, symSize: 0xF4 }
  - { offsetInCU: 0xB5726, offset: 0xB5726, size: 0x8, addend: 0x0, symName: __ZNSt3__113__unwrap_iterB8ue170006IPNS_9sub_matchIPKcEENS_18__unwrap_iter_implIS5_Lb1EEELi0EEEDTclsrT0_8__unwrapclsr3stdE7declvalIT_EEEES9_, symObjAddr: 0x94EB8, symBinAddr: 0x1000964BC, symSize: 0x24 }
  - { offsetInCU: 0xB576D, offset: 0xB576D, size: 0x8, addend: 0x0, symName: __ZNSt3__113__rewrap_iterB8ue170006IPNS_9sub_matchIPKcEES5_NS_18__unwrap_iter_implIS5_Lb1EEEEET_S8_T0_, symObjAddr: 0x94EDC, symBinAddr: 0x1000964E0, symSize: 0x3C }
  - { offsetInCU: 0xB57C4, offset: 0xB57C4, size: 0x8, addend: 0x0, symName: __ZNSt3__19make_pairB8ue170006IPNS_9sub_matchIPKcEES5_EENS_4pairINS_18__unwrap_ref_decayIT_E4typeENS7_IT0_E4typeEEEOS8_OSB_, symObjAddr: 0x94F18, symBinAddr: 0x10009651C, symSize: 0x38 }
  - { offsetInCU: 0xB58EF, offset: 0xB58EF, size: 0x8, addend: 0x0, symName: __ZNSt3__122__make_exception_guardB8ue170006INS_29_AllocatorDestroyRangeReverseINS_9allocatorINS_9sub_matchIPKcEEEEPS6_EEEENS_28__exception_guard_exceptionsIT_EESB_, symObjAddr: 0x94FC0, symBinAddr: 0x1000965C4, symSize: 0x4C }
  - { offsetInCU: 0xB5926, offset: 0xB5926, size: 0x8, addend: 0x0, symName: __ZNSt3__119__allocator_destroyB8ue170006INS_9allocatorINS_9sub_matchIPKcEEEENS_16reverse_iteratorIPS5_EES9_EEvRT_T0_T1_, symObjAddr: 0x95250, symBinAddr: 0x100096854, symSize: 0x70 }
  - { offsetInCU: 0xB59E2, offset: 0xB59E2, size: 0x8, addend: 0x0, symName: __ZNSt3__122__make_exception_guardB8ue170006INS_6vectorINS_4pairImPKcEENS_9allocatorIS5_EEE16__destroy_vectorEEENS_28__exception_guard_exceptionsIT_EESB_, symObjAddr: 0x954E0, symBinAddr: 0x100096AE4, symSize: 0x40 }
  - { offsetInCU: 0xB5A18, offset: 0xB5A18, size: 0x8, addend: 0x0, symName: __ZNSt3__130__uninitialized_allocator_copyB8ue170006INS_9allocatorINS_4pairImPKcEEEEPS5_S7_S7_EET2_RT_T0_T1_S8_, symObjAddr: 0x956F8, symBinAddr: 0x100096CFC, symSize: 0x80 }
  - { offsetInCU: 0xB5AB6, offset: 0xB5AB6, size: 0x8, addend: 0x0, symName: __ZNSt3__114__unwrap_rangeB8ue170006IPNS_4pairImPKcEES5_EENS1_IT0_S6_EET_S8_, symObjAddr: 0x95778, symBinAddr: 0x100096D7C, symSize: 0x60 }
  - { offsetInCU: 0xB5B04, offset: 0xB5B04, size: 0x8, addend: 0x0, symName: __ZNSt3__135__uninitialized_allocator_copy_implB8ue170006INS_9allocatorINS_4pairImPKcEEEEPS5_S7_S7_EET2_RT_T0_T1_S8_, symObjAddr: 0x957D8, symBinAddr: 0x100096DDC, symSize: 0xF4 }
  - { offsetInCU: 0xB5BA3, offset: 0xB5BA3, size: 0x8, addend: 0x0, symName: __ZNSt3__113__unwrap_iterB8ue170006IPNS_4pairImPKcEENS_18__unwrap_iter_implIS5_Lb1EEELi0EEEDTclsrT0_8__unwrapclsr3stdE7declvalIT_EEEES9_, symObjAddr: 0x958CC, symBinAddr: 0x100096ED0, symSize: 0x24 }
  - { offsetInCU: 0xB5BEA, offset: 0xB5BEA, size: 0x8, addend: 0x0, symName: __ZNSt3__113__rewrap_iterB8ue170006IPNS_4pairImPKcEES5_NS_18__unwrap_iter_implIS5_Lb1EEEEET_S8_T0_, symObjAddr: 0x958F0, symBinAddr: 0x100096EF4, symSize: 0x3C }
  - { offsetInCU: 0xB5C41, offset: 0xB5C41, size: 0x8, addend: 0x0, symName: __ZNSt3__19make_pairB8ue170006IPNS_4pairImPKcEES5_EENS1_INS_18__unwrap_ref_decayIT_E4typeENS6_IT0_E4typeEEEOS7_OSA_, symObjAddr: 0x9592C, symBinAddr: 0x100096F30, symSize: 0x38 }
  - { offsetInCU: 0xB5D6C, offset: 0xB5D6C, size: 0x8, addend: 0x0, symName: __ZNSt3__122__make_exception_guardB8ue170006INS_29_AllocatorDestroyRangeReverseINS_9allocatorINS_4pairImPKcEEEEPS6_EEEENS_28__exception_guard_exceptionsIT_EESB_, symObjAddr: 0x959D4, symBinAddr: 0x100096FD8, symSize: 0x4C }
  - { offsetInCU: 0xB5DA3, offset: 0xB5DA3, size: 0x8, addend: 0x0, symName: __ZNSt3__119__allocator_destroyB8ue170006INS_9allocatorINS_4pairImPKcEEEENS_16reverse_iteratorIPS5_EES9_EEvRT_T0_T1_, symObjAddr: 0x95C5C, symBinAddr: 0x100097260, symSize: 0x70 }
  - { offsetInCU: 0xB5E5E, offset: 0xB5E5E, size: 0x8, addend: 0x0, symName: __ZNSt3__119__throw_regex_errorB8ue170006ILNS_15regex_constants10error_typeE11EEEvv, symObjAddr: 0x96530, symBinAddr: 0x100097B34, symSize: 0x60 }
  - { offsetInCU: 0xB5EF8, offset: 0xB5EF8, size: 0x8, addend: 0x0, symName: __ZNSt3__119__throw_regex_errorB8ue170006ILNS_15regex_constants10error_typeE3EEEvv, symObjAddr: 0x968BC, symBinAddr: 0x100097EC0, symSize: 0x60 }
  - { offsetInCU: 0xB5F1E, offset: 0xB5F1E, size: 0x8, addend: 0x0, symName: __ZNSt3__119__throw_regex_errorB8ue170006ILNS_15regex_constants10error_typeE4EEEvv, symObjAddr: 0x976BC, symBinAddr: 0x100098CC0, symSize: 0x60 }
  - { offsetInCU: 0xB635F, offset: 0xB635F, size: 0x8, addend: 0x0, symName: __ZNSt3__15equalB8ue170006IPKcS2_EEbT_S3_T0_, symObjAddr: 0x98838, symBinAddr: 0x100099E3C, symSize: 0x38 }
  - { offsetInCU: 0xB63BD, offset: 0xB63BD, size: 0x8, addend: 0x0, symName: __ZNSt3__15equalB8ue170006IPKcS2_NS_10__equal_toEEEbT_S4_T0_T1_, symObjAddr: 0x98870, symBinAddr: 0x100099E74, symSize: 0x5C }
  - { offsetInCU: 0xB6433, offset: 0xB6433, size: 0x8, addend: 0x0, symName: __ZNSt3__117__equal_iter_implB8ue170006IKcS1_NS_10__equal_toELi0EEEbPT_S4_PT0_RT1_, symObjAddr: 0x988CC, symBinAddr: 0x100099ED0, symSize: 0x44 }
  - { offsetInCU: 0xB64AC, offset: 0xB64AC, size: 0x8, addend: 0x0, symName: __ZNSt3__124__constexpr_memcmp_equalB8ue170006IccEEbPKT_PKT0_NS_15__element_countE, symObjAddr: 0x98910, symBinAddr: 0x100099F14, symSize: 0x4C }
  - { offsetInCU: 0xB6519, offset: 0xB6519, size: 0x8, addend: 0x0, symName: __ZNSt3__112__to_addressB8ue170006INS_4pairIccEEEEPT_S4_, symObjAddr: 0x99EE0, symBinAddr: 0x10009B4E4, symSize: 0x14 }
  - { offsetInCU: 0xB6550, offset: 0xB6550, size: 0x8, addend: 0x0, symName: __ZNSt3__112__to_addressB8ue170006INS_4pairINS_12basic_stringIcNS_11char_traitsIcEENS_9allocatorIcEEEES7_EEEEPT_SA_, symObjAddr: 0x9A3C8, symBinAddr: 0x10009B9CC, symSize: 0x14 }
  - { offsetInCU: 0xB6586, offset: 0xB6586, size: 0x8, addend: 0x0, symName: __ZNSt3__1eqB8ue170006IccccEEbRKNS_4pairIT_T0_EERKNS1_IT1_T2_EE, symObjAddr: 0x9AA94, symBinAddr: 0x10009C098, symSize: 0x64 }
  - { offsetInCU: 0xB65E7, offset: 0xB65E7, size: 0x8, addend: 0x0, symName: __ZNSt3__1leB8ue170006IcNS_11char_traitsIcEENS_9allocatorIcEEEEbRKNS_12basic_stringIT_T0_T1_EESB_, symObjAddr: 0x9AC34, symBinAddr: 0x10009C238, symSize: 0x34 }
  - { offsetInCU: 0xB6640, offset: 0xB6640, size: 0x8, addend: 0x0, symName: __ZNSt3__14findB8ue170006INS_11__wrap_iterIPKcEEcEET_S5_S5_RKT0_, symObjAddr: 0x9AD20, symBinAddr: 0x10009C324, symSize: 0x78 }
  - { offsetInCU: 0xB66AD, offset: 0xB66AD, size: 0x8, addend: 0x0, symName: __ZNSt3__18distanceB8ue170006IPcEENS_15iterator_traitsIT_E15difference_typeES3_S3_, symObjAddr: 0x9B128, symBinAddr: 0x10009C72C, symSize: 0x2C }
  - { offsetInCU: 0xB66F3, offset: 0xB66F3, size: 0x8, addend: 0x0, symName: __ZNSt3__110__distanceB8ue170006IPcEENS_15iterator_traitsIT_E15difference_typeES3_S3_NS_26random_access_iterator_tagE, symObjAddr: 0x9B298, symBinAddr: 0x10009C89C, symSize: 0x20 }
  - { offsetInCU: 0xB6744, offset: 0xB6744, size: 0x8, addend: 0x0, symName: __ZNSt3__119__allocate_at_leastB8ue170006INS_9allocatorIcEEEENS_19__allocation_resultINS_16allocator_traitsIT_E7pointerEEERS5_m, symObjAddr: 0x9B2B8, symBinAddr: 0x10009C8BC, symSize: 0x40 }
  - { offsetInCU: 0xB678A, offset: 0xB678A, size: 0x8, addend: 0x0, symName: __ZNSt3__113__rewrap_iterB8ue170006INS_11__wrap_iterIPKcEES3_NS_18__unwrap_iter_implIS4_Lb1EEEEET_S7_T0_, symObjAddr: 0x9B494, symBinAddr: 0x10009CA98, symSize: 0x4C }
  - { offsetInCU: 0xB67E2, offset: 0xB67E2, size: 0x8, addend: 0x0, symName: __ZNSt3__111__find_implB8ue170006IKccNS_10__identityELi0EEEPT_S4_S4_RKT0_RT1_, symObjAddr: 0x9B4E0, symBinAddr: 0x10009CAE4, symSize: 0x78 }
  - { offsetInCU: 0xB6870, offset: 0xB6870, size: 0x8, addend: 0x0, symName: __ZNSt3__113__unwrap_iterB8ue170006INS_11__wrap_iterIPKcEENS_18__unwrap_iter_implIS4_Lb1EEELi0EEEDTclsrT0_8__unwrapclsr3stdE7declvalIT_EEEES8_, symObjAddr: 0x9B558, symBinAddr: 0x10009CB5C, symSize: 0x2C }
  - { offsetInCU: 0xB690F, offset: 0xB690F, size: 0x8, addend: 0x0, symName: __ZNSt3__112__to_addressB8ue170006INS_11__wrap_iterIPKcEEvEEu7__decayIDTclsr19__to_address_helperIT_EE6__callclsr3stdE7declvalIRKS5_EEEEES7_, symObjAddr: 0x9B614, symBinAddr: 0x10009CC18, symSize: 0x24 }
  - { offsetInCU: 0xB69B3, offset: 0xB69B3, size: 0x8, addend: 0x0, symName: __ZNSt3__142__uninitialized_allocator_move_if_noexceptB8ue170006INS_9allocatorIcEENS_16reverse_iteratorIPcEES5_cvEET1_RT_T0_S9_S6_, symObjAddr: 0x9C030, symBinAddr: 0x10009D634, symSize: 0x78 }
  - { offsetInCU: 0xB6A31, offset: 0xB6A31, size: 0x8, addend: 0x0, symName: __ZNSt3__14swapB8ue170006IPcEENS_9enable_ifIXaasr21is_move_constructibleIT_EE5valuesr18is_move_assignableIS3_EE5valueEvE4typeERS3_S6_, symObjAddr: 0x9C0F4, symBinAddr: 0x10009D6F8, symSize: 0x3C }
  - { offsetInCU: 0xB6A86, offset: 0xB6A86, size: 0x8, addend: 0x0, symName: __ZNSt3__14moveB8ue170006INS_16reverse_iteratorIPcEES3_EET0_T_S5_S4_, symObjAddr: 0x9C1DC, symBinAddr: 0x10009D7E0, symSize: 0x78 }
  - { offsetInCU: 0xB6AE4, offset: 0xB6AE4, size: 0x8, addend: 0x0, symName: __ZNSt3__16__moveB8ue170006INS_17_ClassicAlgPolicyENS_16reverse_iteratorIPcEES4_S4_EENS_4pairIT0_T2_EES6_T1_S7_, symObjAddr: 0x9C254, symBinAddr: 0x10009D858, symSize: 0x64 }
  - { offsetInCU: 0xB6B54, offset: 0xB6B54, size: 0x8, addend: 0x0, symName: __ZNSt3__123__dispatch_copy_or_moveB8ue170006INS_17_ClassicAlgPolicyENS_11__move_loopIS1_EENS_14__move_trivialENS_16reverse_iteratorIPcEES7_S7_EENS_4pairIT2_T4_EES9_T3_SA_, symObjAddr: 0x9C2B8, symBinAddr: 0x10009D8BC, symSize: 0x64 }
  - { offsetInCU: 0xB6BD6, offset: 0xB6BD6, size: 0x8, addend: 0x0, symName: __ZNSt3__121__unwrap_and_dispatchB8ue170006INS_10__overloadINS_11__move_loopINS_17_ClassicAlgPolicyEEENS_14__move_trivialEEENS_16reverse_iteratorIPcEES9_S9_Li0EEENS_4pairIT0_T2_EESB_T1_SC_, symObjAddr: 0x9C31C, symBinAddr: 0x10009D920, symSize: 0x12C }
  - { offsetInCU: 0xB6C6D, offset: 0xB6C6D, size: 0x8, addend: 0x0, symName: __ZNSt3__114__unwrap_rangeB8ue170006INS_16reverse_iteratorIPcEES3_EENS_4pairIT0_S5_EET_S7_, symObjAddr: 0x9C448, symBinAddr: 0x10009DA4C, symSize: 0x84 }
  - { offsetInCU: 0xB6D97, offset: 0xB6D97, size: 0x8, addend: 0x0, symName: __ZNSt3__113__unwrap_iterB8ue170006INS_16reverse_iteratorIPcEENS_18__unwrap_iter_implIS3_Lb0EEELi0EEEDTclsrT0_8__unwrapclsr3stdE7declvalIT_EEEES7_, symObjAddr: 0x9C56C, symBinAddr: 0x10009DB70, symSize: 0x44 }
  - { offsetInCU: 0xB6DDD, offset: 0xB6DDD, size: 0x8, addend: 0x0, symName: __ZNSt3__19make_pairB8ue170006INS_16reverse_iteratorIPcEES3_EENS_4pairINS_18__unwrap_ref_decayIT_E4typeENS5_IT0_E4typeEEEOS6_OS9_, symObjAddr: 0x9C5B0, symBinAddr: 0x10009DBB4, symSize: 0x38 }
  - { offsetInCU: 0xB6E2D, offset: 0xB6E2D, size: 0x8, addend: 0x0, symName: __ZNSt3__114__rewrap_rangeB8ue170006INS_16reverse_iteratorIPcEES3_EET_S4_T0_, symObjAddr: 0x9C5E8, symBinAddr: 0x10009DBEC, symSize: 0x5C }
  - { offsetInCU: 0xB6E7C, offset: 0xB6E7C, size: 0x8, addend: 0x0, symName: __ZNSt3__113__rewrap_iterB8ue170006INS_16reverse_iteratorIPcEES3_NS_18__unwrap_iter_implIS3_Lb0EEEEET_S6_T0_, symObjAddr: 0x9C644, symBinAddr: 0x10009DC48, symSize: 0x74 }
  - { offsetInCU: 0xB6ED4, offset: 0xB6ED4, size: 0x8, addend: 0x0, symName: __ZNSt3__1neB8ue170006IPcS1_EEbRKNS_16reverse_iteratorIT_EERKNS2_IT0_EE, symObjAddr: 0x9C6B8, symBinAddr: 0x10009DCBC, symSize: 0x48 }
  - { offsetInCU: 0xB6F95, offset: 0xB6F95, size: 0x8, addend: 0x0, symName: __ZNSt3__17__is_07B8ue170006Eh, symObjAddr: 0x9CD94, symBinAddr: 0x10009E398, symSize: 0x24 }
  - { offsetInCU: 0xB6FC3, offset: 0xB6FC3, size: 0x8, addend: 0x0, symName: __ZNSt3__17__is_89B8ue170006Eh, symObjAddr: 0x9CDB8, symBinAddr: 0x10009E3BC, symSize: 0x24 }
  - { offsetInCU: 0xB6FF1, offset: 0xB6FF1, size: 0x8, addend: 0x0, symName: __ZNSt3__110__to_lowerB8ue170006Eh, symObjAddr: 0x9CDDC, symBinAddr: 0x10009E3E0, symSize: 0x1C }
  - { offsetInCU: 0xB701F, offset: 0xB701F, size: 0x8, addend: 0x0, symName: __ZNSt3__119__throw_regex_errorB8ue170006ILNS_15regex_constants10error_typeE5EEEvv, symObjAddr: 0x9CDF8, symBinAddr: 0x10009E3FC, symSize: 0x60 }
  - { offsetInCU: 0xB7046, offset: 0xB7046, size: 0x8, addend: 0x0, symName: __ZNSt3__16searchB8ue170006INS_11__wrap_iterIPKcEEPcEET_S6_S6_T0_S7_, symObjAddr: 0x9EA40, symBinAddr: 0x1000A0044, symSize: 0x54 }
  - { offsetInCU: 0xB70B2, offset: 0xB70B2, size: 0x8, addend: 0x0, symName: __ZNSt3__119__throw_regex_errorB8ue170006ILNS_15regex_constants10error_typeE1EEEvv, symObjAddr: 0x9EAE4, symBinAddr: 0x1000A00E8, symSize: 0x60 }
  - { offsetInCU: 0xB70D9, offset: 0xB70D9, size: 0x8, addend: 0x0, symName: __ZNSt3__16searchB8ue170006INS_11__wrap_iterIPKcEEPcNS_10__equal_toEEET_S7_S7_T0_S8_T1_, symObjAddr: 0x9EBC4, symBinAddr: 0x1000A01C8, symSize: 0x7C }
  - { offsetInCU: 0xB716D, offset: 0xB716D, size: 0x8, addend: 0x0, symName: __ZNSt3__113__search_implB8ue170006INS_11__wrap_iterIPKcEES4_PcS5_NS_10__equal_toENS_10__identityES7_EENS_4pairIT_S9_EES9_T0_T1_T2_RT3_RT4_RT5_PNS_9enable_ifIXaasr37__has_random_access_iterator_categoryIS9_EE5valuesr37__has_random_access_iterator_categoryISC_EE5valueEvE4typeE, symObjAddr: 0x9EC40, symBinAddr: 0x1000A0244, symSize: 0x108 }
  - { offsetInCU: 0xB725D, offset: 0xB725D, size: 0x8, addend: 0x0, symName: __ZNSt3__19make_pairB8ue170006IRNS_11__wrap_iterIPKcEES5_EENS_4pairINS_18__unwrap_ref_decayIT_E4typeENS7_IT0_E4typeEEEOS8_OSB_, symObjAddr: 0x9ED48, symBinAddr: 0x1000A034C, symSize: 0x38 }
  - { offsetInCU: 0xB72AD, offset: 0xB72AD, size: 0x8, addend: 0x0, symName: __ZNSt3__1miB8ue170006IPKcS2_EEDTmicldtfp_4baseEcldtfp0_4baseEERKNS_11__wrap_iterIT_EERKNS4_IT0_EE, symObjAddr: 0x9ED80, symBinAddr: 0x1000A0384, symSize: 0x40 }
  - { offsetInCU: 0xB72FC, offset: 0xB72FC, size: 0x8, addend: 0x0, symName: __ZNSt3__127__search_random_access_implB8ue170006INS_17_ClassicAlgPolicyENS_11__wrap_iterIPKcEES5_PcS6_NS_10__equal_toENS_10__identityES8_llEENS_4pairIT0_SA_EESA_T1_T2_T3_RT4_RT5_RT6_T7_T8_, symObjAddr: 0x9EDC0, symBinAddr: 0x1000A03C4, symSize: 0x1F0 }
  - { offsetInCU: 0xB743C, offset: 0xB743C, size: 0x8, addend: 0x0, symName: __ZNSt3__18__invokeB8ue170006IRNS_10__equal_toEJRKcRcEEEDTclclsr3stdE7declvalIT_EEspclsr3stdE7declvalIT0_EEEEOS6_DpOS7_, symObjAddr: 0x9F07C, symBinAddr: 0x1000A0680, symSize: 0x38 }
  - { offsetInCU: 0xB74A4, offset: 0xB74A4, size: 0x8, addend: 0x0, symName: __ZNSt3__18__invokeB8ue170006IRNS_10__identityEJRKcEEEDTclclsr3stdE7declvalIT_EEspclsr3stdE7declvalIT0_EEEEOS5_DpOS6_, symObjAddr: 0x9F0B4, symBinAddr: 0x1000A06B8, symSize: 0x2C }
  - { offsetInCU: 0xB74F7, offset: 0xB74F7, size: 0x8, addend: 0x0, symName: __ZNSt3__18__invokeB8ue170006IRNS_10__identityEJRcEEEDTclclsr3stdE7declvalIT_EEspclsr3stdE7declvalIT0_EEEEOS4_DpOS5_, symObjAddr: 0x9F0E0, symBinAddr: 0x1000A06E4, symSize: 0x2C }
  - { offsetInCU: 0xB754A, offset: 0xB754A, size: 0x8, addend: 0x0, symName: __ZNSt3__19make_pairB8ue170006IRNS_11__wrap_iterIPKcEES4_EENS_4pairINS_18__unwrap_ref_decayIT_E4typeENS7_IT0_E4typeEEEOS8_OSB_, symObjAddr: 0x9F10C, symBinAddr: 0x1000A0710, symSize: 0x38 }
  - { offsetInCU: 0xB7635, offset: 0xB7635, size: 0x8, addend: 0x0, symName: __ZNSt3__18distanceB8ue170006INS_11__wrap_iterIPKcEEEENS_15iterator_traitsIT_E15difference_typeES6_S6_, symObjAddr: 0x9F554, symBinAddr: 0x1000A0B58, symSize: 0x3C }
  - { offsetInCU: 0xB767B, offset: 0xB767B, size: 0x8, addend: 0x0, symName: __ZNSt3__110__distanceB8ue170006INS_11__wrap_iterIPKcEEEENS_15iterator_traitsIT_E15difference_typeES6_S6_NS_26random_access_iterator_tagE, symObjAddr: 0x9F6DC, symBinAddr: 0x1000A0CE0, symSize: 0x30 }
  - { offsetInCU: 0xB76CC, offset: 0xB76CC, size: 0x8, addend: 0x0, symName: __ZNSt3__18distanceB8ue170006INS_11__wrap_iterIPcEEEENS_15iterator_traitsIT_E15difference_typeES5_S5_, symObjAddr: 0x9F9C4, symBinAddr: 0x1000A0FC8, symSize: 0x3C }
  - { offsetInCU: 0xB7712, offset: 0xB7712, size: 0x8, addend: 0x0, symName: __ZNSt3__110__distanceB8ue170006INS_11__wrap_iterIPcEEEENS_15iterator_traitsIT_E15difference_typeES5_S5_NS_26random_access_iterator_tagE, symObjAddr: 0x9FB4C, symBinAddr: 0x1000A1150, symSize: 0x30 }
  - { offsetInCU: 0xB7763, offset: 0xB7763, size: 0x8, addend: 0x0, symName: __ZNSt3__1miB8ue170006IPcS1_EEDTmicldtfp_4baseEcldtfp0_4baseEERKNS_11__wrap_iterIT_EERKNS3_IT0_EE, symObjAddr: 0x9FB7C, symBinAddr: 0x1000A1180, symSize: 0x40 }
  - { offsetInCU: 0xB77B1, offset: 0xB77B1, size: 0x8, addend: 0x0, symName: __ZNSt3__119__throw_regex_errorB8ue170006ILNS_15regex_constants10error_typeE2EEEvv, symObjAddr: 0x9FC18, symBinAddr: 0x1000A121C, symSize: 0x60 }
  - { offsetInCU: 0xB77D7, offset: 0xB77D7, size: 0x8, addend: 0x0, symName: __ZNSt3__19make_pairB8ue170006INS_12basic_stringIcNS_11char_traitsIcEENS_9allocatorIcEEEES6_EENS_4pairINS_18__unwrap_ref_decayIT_E4typeENS8_IT0_E4typeEEEOS9_OSC_, symObjAddr: 0x9FF38, symBinAddr: 0x1000A153C, symSize: 0x40 }
  - { offsetInCU: 0xB7826, offset: 0xB7826, size: 0x8, addend: 0x0, symName: __ZNSt3__119__throw_regex_errorB8ue170006ILNS_15regex_constants10error_typeE9EEEvv, symObjAddr: 0xA0078, symBinAddr: 0x1000A167C, symSize: 0x60 }
  - { offsetInCU: 0xB784D, offset: 0xB784D, size: 0x8, addend: 0x0, symName: __ZNSt3__119__allocate_at_leastB8ue170006INS_9allocatorINS_4pairINS_12basic_stringIcNS_11char_traitsIcEENS1_IcEEEES7_EEEEEENS_19__allocation_resultINS_16allocator_traitsIT_E7pointerEEERSC_m, symObjAddr: 0xA08BC, symBinAddr: 0x1000A1EC0, symSize: 0x40 }
  - { offsetInCU: 0xB7892, offset: 0xB7892, size: 0x8, addend: 0x0, symName: __ZNSt3__142__uninitialized_allocator_move_if_noexceptB8ue170006INS_9allocatorINS_4pairINS_12basic_stringIcNS_11char_traitsIcEENS1_IcEEEES7_EEEENS_16reverse_iteratorIPS8_EESC_SC_EET2_RT_T0_T1_SD_, symObjAddr: 0xA0A74, symBinAddr: 0x1000A2078, symSize: 0x12C }
  - { offsetInCU: 0xB7933, offset: 0xB7933, size: 0x8, addend: 0x0, symName: __ZNSt3__14swapB8ue170006IPNS_4pairINS_12basic_stringIcNS_11char_traitsIcEENS_9allocatorIcEEEES7_EEEENS_9enable_ifIXaasr21is_move_constructibleIT_EE5valuesr18is_move_assignableISB_EE5valueEvE4typeERSB_SE_, symObjAddr: 0xA0BEC, symBinAddr: 0x1000A21F0, symSize: 0x3C }
  - { offsetInCU: 0xB7988, offset: 0xB7988, size: 0x8, addend: 0x0, symName: __ZNSt3__122__make_exception_guardB8ue170006INS_29_AllocatorDestroyRangeReverseINS_9allocatorINS_4pairINS_12basic_stringIcNS_11char_traitsIcEENS2_IcEEEES8_EEEENS_16reverse_iteratorIPS9_EEEEEENS_28__exception_guard_exceptionsIT_EESG_, symObjAddr: 0xA0CF0, symBinAddr: 0x1000A22F4, symSize: 0x4C }
  - { offsetInCU: 0xB79C0, offset: 0xB79C0, size: 0x8, addend: 0x0, symName: __ZNSt3__1neB8ue170006IPNS_4pairINS_12basic_stringIcNS_11char_traitsIcEENS_9allocatorIcEEEES7_EES9_EEbRKNS_16reverse_iteratorIT_EERKNSA_IT0_EE, symObjAddr: 0xA0D80, symBinAddr: 0x1000A2384, symSize: 0x48 }
  - { offsetInCU: 0xB7A0F, offset: 0xB7A0F, size: 0x8, addend: 0x0, symName: __ZNSt3__112__to_addressB8ue170006INS_16reverse_iteratorIPNS_4pairINS_12basic_stringIcNS_11char_traitsIcEENS_9allocatorIcEEEES8_EEEEvEEu7__decayIDTclsr19__to_address_helperIT_EE6__callclsr3stdE7declvalIRKSC_EEEEESE_, symObjAddr: 0xA0DC8, symBinAddr: 0x1000A23CC, symSize: 0x24 }
  - { offsetInCU: 0xB7A71, offset: 0xB7A71, size: 0x8, addend: 0x0, symName: __ZNSt3__119__allocator_destroyB8ue170006INS_9allocatorINS_4pairINS_12basic_stringIcNS_11char_traitsIcEENS1_IcEEEES7_EEEENS_16reverse_iteratorINSA_IPS8_EEEESD_EEvRT_T0_T1_, symObjAddr: 0xA1078, symBinAddr: 0x1000A267C, symSize: 0x70 }
  - { offsetInCU: 0xB7AD7, offset: 0xB7AD7, size: 0x8, addend: 0x0, symName: __ZNSt3__1neB8ue170006INS_16reverse_iteratorIPNS_4pairINS_12basic_stringIcNS_11char_traitsIcEENS_9allocatorIcEEEES8_EEEESB_EEbRKNS1_IT_EERKNS1_IT0_EE, symObjAddr: 0xA1124, symBinAddr: 0x1000A2728, symSize: 0x60 }
  - { offsetInCU: 0xB7B26, offset: 0xB7B26, size: 0x8, addend: 0x0, symName: __ZNSt3__112__to_addressB8ue170006INS_16reverse_iteratorINS1_IPNS_4pairINS_12basic_stringIcNS_11char_traitsIcEENS_9allocatorIcEEEES8_EEEEEEvEEu7__decayIDTclsr19__to_address_helperIT_EE6__callclsr3stdE7declvalIRKSD_EEEEESF_, symObjAddr: 0xA1184, symBinAddr: 0x1000A2788, symSize: 0x24 }
  - { offsetInCU: 0xB7B88, offset: 0xB7B88, size: 0x8, addend: 0x0, symName: __ZNSt3__19make_pairB8ue170006IccEENS_4pairINS_18__unwrap_ref_decayIT_E4typeENS2_IT0_E4typeEEEOS3_OS6_, symObjAddr: 0xA15DC, symBinAddr: 0x1000A2BE0, symSize: 0x34 }
  - { offsetInCU: 0xB7BD7, offset: 0xB7BD7, size: 0x8, addend: 0x0, symName: __ZNSt3__19make_pairB8ue170006IRcS1_EENS_4pairINS_18__unwrap_ref_decayIT_E4typeENS3_IT0_E4typeEEEOS4_OS7_, symObjAddr: 0xA1610, symBinAddr: 0x1000A2C14, symSize: 0x34 }
  - { offsetInCU: 0xB7C27, offset: 0xB7C27, size: 0x8, addend: 0x0, symName: __ZNSt3__119__allocate_at_leastB8ue170006INS_9allocatorINS_4pairIccEEEEEENS_19__allocation_resultINS_16allocator_traitsIT_E7pointerEEERS7_m, symObjAddr: 0xA1D8C, symBinAddr: 0x1000A3390, symSize: 0x40 }
  - { offsetInCU: 0xB7C6C, offset: 0xB7C6C, size: 0x8, addend: 0x0, symName: __ZNSt3__142__uninitialized_allocator_move_if_noexceptB8ue170006INS_9allocatorINS_4pairIccEEEENS_16reverse_iteratorIPS3_EES7_S7_EET2_RT_T0_T1_S8_, symObjAddr: 0xA1F40, symBinAddr: 0x1000A3544, symSize: 0x12C }
  - { offsetInCU: 0xB7D0D, offset: 0xB7D0D, size: 0x8, addend: 0x0, symName: __ZNSt3__14swapB8ue170006IPNS_4pairIccEEEENS_9enable_ifIXaasr21is_move_constructibleIT_EE5valuesr18is_move_assignableIS5_EE5valueEvE4typeERS5_S8_, symObjAddr: 0xA20B8, symBinAddr: 0x1000A36BC, symSize: 0x3C }
  - { offsetInCU: 0xB7D62, offset: 0xB7D62, size: 0x8, addend: 0x0, symName: __ZNSt3__122__make_exception_guardB8ue170006INS_29_AllocatorDestroyRangeReverseINS_9allocatorINS_4pairIccEEEENS_16reverse_iteratorIPS4_EEEEEENS_28__exception_guard_exceptionsIT_EESB_, symObjAddr: 0xA21A0, symBinAddr: 0x1000A37A4, symSize: 0x4C }
  - { offsetInCU: 0xB7D9A, offset: 0xB7D9A, size: 0x8, addend: 0x0, symName: __ZNSt3__1neB8ue170006IPNS_4pairIccEES3_EEbRKNS_16reverse_iteratorIT_EERKNS4_IT0_EE, symObjAddr: 0xA2230, symBinAddr: 0x1000A3834, symSize: 0x48 }
  - { offsetInCU: 0xB7DE9, offset: 0xB7DE9, size: 0x8, addend: 0x0, symName: __ZNSt3__112__to_addressB8ue170006INS_16reverse_iteratorIPNS_4pairIccEEEEvEEu7__decayIDTclsr19__to_address_helperIT_EE6__callclsr3stdE7declvalIRKS6_EEEEES8_, symObjAddr: 0xA2278, symBinAddr: 0x1000A387C, symSize: 0x24 }
  - { offsetInCU: 0xB7E4B, offset: 0xB7E4B, size: 0x8, addend: 0x0, symName: __ZNSt3__119__allocator_destroyB8ue170006INS_9allocatorINS_4pairIccEEEENS_16reverse_iteratorINS5_IPS3_EEEES8_EEvRT_T0_T1_, symObjAddr: 0xA2528, symBinAddr: 0x1000A3B2C, symSize: 0x70 }
  - { offsetInCU: 0xB7EB1, offset: 0xB7EB1, size: 0x8, addend: 0x0, symName: __ZNSt3__1neB8ue170006INS_16reverse_iteratorIPNS_4pairIccEEEES5_EEbRKNS1_IT_EERKNS1_IT0_EE, symObjAddr: 0xA25D4, symBinAddr: 0x1000A3BD8, symSize: 0x60 }
  - { offsetInCU: 0xB7F00, offset: 0xB7F00, size: 0x8, addend: 0x0, symName: __ZNSt3__112__to_addressB8ue170006INS_16reverse_iteratorINS1_IPNS_4pairIccEEEEEEvEEu7__decayIDTclsr19__to_address_helperIT_EE6__callclsr3stdE7declvalIRKS7_EEEEES9_, symObjAddr: 0xA2634, symBinAddr: 0x1000A3C38, symSize: 0x24 }
  - { offsetInCU: 0xB806E, offset: 0xB806E, size: 0x8, addend: 0x0, symName: __ZNSt3__119__throw_regex_errorB8ue170006ILNS_15regex_constants10error_typeE8EEEvv, symObjAddr: 0xA3258, symBinAddr: 0x1000A485C, symSize: 0x60 }
  - { offsetInCU: 0xB8094, offset: 0xB8094, size: 0x8, addend: 0x0, symName: __ZNSt3__119__throw_regex_errorB8ue170006ILNS_15regex_constants10error_typeE7EEEvv, symObjAddr: 0xA32B8, symBinAddr: 0x1000A48BC, symSize: 0x60 }
  - { offsetInCU: 0xB8A03, offset: 0xB8A03, size: 0x8, addend: 0x0, symName: __ZNSt3__119__throw_regex_errorB8ue170006ILNS_15regex_constants10error_typeE15EEEvv, symObjAddr: 0xA4314, symBinAddr: 0x1000A5918, symSize: 0x60 }
  - { offsetInCU: 0xB8A9D, offset: 0xB8A9D, size: 0x8, addend: 0x0, symName: __ZNSt3__111regex_matchB8ue170006INS_11__wrap_iterIPKcEEcNS_12regex_traitsIcEEEEbT_S7_RKNS_11basic_regexIT0_T1_EENS_15regex_constants15match_flag_typeE, symObjAddr: 0xA5DE8, symBinAddr: 0x1000A73EC, symSize: 0xA0 }
  - { offsetInCU: 0xB8E36, offset: 0xB8E36, size: 0x8, addend: 0x0, symName: __ZNSt3__111regex_matchB8ue170006INS_11__wrap_iterIPKcEENS_9allocatorINS_9sub_matchIS4_EEEEcNS_12regex_traitsIcEEEEbT_SB_RNS_13match_resultsISB_T0_EERKNS_11basic_regexIT1_T2_EENS_15regex_constants15match_flag_typeE, symObjAddr: 0xA5EC8, symBinAddr: 0x1000A74CC, symSize: 0xD0 }
  - { offsetInCU: 0xB8EE0, offset: 0xB8EE0, size: 0x8, addend: 0x0, symName: __ZNSt3__112__to_addressB8ue170006INS_9sub_matchINS_11__wrap_iterIPKcEEEEEEPT_S8_, symObjAddr: 0xA666C, symBinAddr: 0x1000A7C70, symSize: 0x14 }
  - { offsetInCU: 0xB8F16, offset: 0xB8F16, size: 0x8, addend: 0x0, symName: __ZNSt3__112regex_searchB8ue170006IPKcNS_9allocatorINS_9sub_matchINS_11__wrap_iterIS2_EEEEEEcNS_12regex_traitsIcEEEEbNS5_IT_EESC_RNS_13match_resultsISC_T0_EERKNS_11basic_regexIT1_T2_EENS_15regex_constants15match_flag_typeE, symObjAddr: 0xA67E0, symBinAddr: 0x1000A7DE4, symSize: 0x124 }
  - { offsetInCU: 0xB8FC5, offset: 0xB8FC5, size: 0x8, addend: 0x0, symName: __ZNSt3__18distanceB8ue170006IPKcEENS_15iterator_traitsIT_E15difference_typeES4_S4_, symObjAddr: 0xA7EA0, symBinAddr: 0x1000A94A4, symSize: 0x2C }
  - { offsetInCU: 0xB900B, offset: 0xB900B, size: 0x8, addend: 0x0, symName: __ZNSt3__110__distanceB8ue170006IPKcEENS_15iterator_traitsIT_E15difference_typeES4_S4_NS_26random_access_iterator_tagE, symObjAddr: 0xA8CF4, symBinAddr: 0x1000AA2F8, symSize: 0x20 }
  - { offsetInCU: 0xB9422, offset: 0xB9422, size: 0x8, addend: 0x0, symName: __ZNSt3__14swapB8ue170006IPPNS_7__stateIcEEEENS_9enable_ifIXaasr21is_move_constructibleIT_EE5valuesr18is_move_assignableIS6_EE5valueEvE4typeERS6_S9_, symObjAddr: 0xAA200, symBinAddr: 0x1000AB804, symSize: 0x3C }
  - { offsetInCU: 0xB9477, offset: 0xB9477, size: 0x8, addend: 0x0, symName: __ZNSt3__14moveB8ue170006IPPNS_7__stateIcEES4_EET0_T_S6_S5_, symObjAddr: 0xAA330, symBinAddr: 0x1000AB934, symSize: 0x40 }
  - { offsetInCU: 0xB94D5, offset: 0xB94D5, size: 0x8, addend: 0x0, symName: __ZNSt3__112__to_addressB8ue170006IPNS_7__stateIcEEEEPT_S5_, symObjAddr: 0xAA438, symBinAddr: 0x1000ABA3C, symSize: 0x14 }
  - { offsetInCU: 0xB950C, offset: 0xB950C, size: 0x8, addend: 0x0, symName: __ZNSt3__16__moveB8ue170006INS_17_ClassicAlgPolicyEPPNS_7__stateIcEES5_S5_EENS_4pairIT0_T2_EES7_T1_S8_, symObjAddr: 0xAA44C, symBinAddr: 0x1000ABA50, symSize: 0x44 }
  - { offsetInCU: 0xB957C, offset: 0xB957C, size: 0x8, addend: 0x0, symName: __ZNSt3__123__dispatch_copy_or_moveB8ue170006INS_17_ClassicAlgPolicyENS_11__move_loopIS1_EENS_14__move_trivialEPPNS_7__stateIcEES8_S8_EENS_4pairIT2_T4_EESA_T3_SB_, symObjAddr: 0xAA490, symBinAddr: 0x1000ABA94, symSize: 0x44 }
  - { offsetInCU: 0xB95FE, offset: 0xB95FE, size: 0x8, addend: 0x0, symName: __ZNSt3__121__unwrap_and_dispatchB8ue170006INS_10__overloadINS_11__move_loopINS_17_ClassicAlgPolicyEEENS_14__move_trivialEEEPPNS_7__stateIcEESA_SA_Li0EEENS_4pairIT0_T2_EESC_T1_SD_, symObjAddr: 0xAA4D4, symBinAddr: 0x1000ABAD8, symSize: 0xB4 }
  - { offsetInCU: 0xB9693, offset: 0xB9693, size: 0x8, addend: 0x0, symName: __ZNSt3__114__unwrap_rangeB8ue170006IPPNS_7__stateIcEES4_EENS_4pairIT0_S6_EET_S8_, symObjAddr: 0xAA588, symBinAddr: 0x1000ABB8C, symSize: 0x60 }
  - { offsetInCU: 0xB98A6, offset: 0xB98A6, size: 0x8, addend: 0x0, symName: __ZNSt3__113__unwrap_iterB8ue170006IPPNS_7__stateIcEENS_18__unwrap_iter_implIS4_Lb1EEELi0EEEDTclsrT0_8__unwrapclsr3stdE7declvalIT_EEEES8_, symObjAddr: 0xAA630, symBinAddr: 0x1000ABC34, symSize: 0x24 }
  - { offsetInCU: 0xB98EC, offset: 0xB98EC, size: 0x8, addend: 0x0, symName: __ZNSt3__19make_pairB8ue170006IPPNS_7__stateIcEES4_EENS_4pairINS_18__unwrap_ref_decayIT_E4typeENS6_IT0_E4typeEEEOS7_OSA_, symObjAddr: 0xAA654, symBinAddr: 0x1000ABC58, symSize: 0x38 }
  - { offsetInCU: 0xB993C, offset: 0xB993C, size: 0x8, addend: 0x0, symName: __ZNSt3__114__rewrap_rangeB8ue170006IPPNS_7__stateIcEES4_EET_S5_T0_, symObjAddr: 0xAA68C, symBinAddr: 0x1000ABC90, symSize: 0x2C }
  - { offsetInCU: 0xB998B, offset: 0xB998B, size: 0x8, addend: 0x0, symName: __ZNSt3__113__rewrap_iterB8ue170006IPPNS_7__stateIcEES4_NS_18__unwrap_iter_implIS4_Lb1EEEEET_S7_T0_, symObjAddr: 0xAA6B8, symBinAddr: 0x1000ABCBC, symSize: 0x3C }
  - { offsetInCU: 0xB99E3, offset: 0xB99E3, size: 0x8, addend: 0x0, symName: __ZNSt3__119__copy_trivial_implB8ue170006IPNS_7__stateIcEES3_EENS_4pairIPT_PT0_EES6_S6_S8_, symObjAddr: 0xAA6F4, symBinAddr: 0x1000ABCF8, symSize: 0x80 }
  - { offsetInCU: 0xB9A50, offset: 0xB9A50, size: 0x8, addend: 0x0, symName: __ZNSt3__119__constexpr_memmoveB8ue170006IPNS_7__stateIcEES3_Li0EEEPT_S5_PT0_NS_15__element_countE, symObjAddr: 0xAA774, symBinAddr: 0x1000ABD78, symSize: 0x64 }
  - { offsetInCU: 0xB9AC3, offset: 0xB9AC3, size: 0x8, addend: 0x0, symName: __ZNSt3__19make_pairB8ue170006IRPPNS_7__stateIcEES4_EENS_4pairINS_18__unwrap_ref_decayIT_E4typeENS7_IT0_E4typeEEEOS8_OSB_, symObjAddr: 0xAA7D8, symBinAddr: 0x1000ABDDC, symSize: 0x38 }
  - { offsetInCU: 0xB9B6B, offset: 0xB9B6B, size: 0x8, addend: 0x0, symName: __ZNSt3__18distanceB8ue170006INS_13move_iteratorIPPNS_7__stateIcEEEEEENS_15iterator_traitsIT_E15difference_typeES8_S8_, symObjAddr: 0xAAA40, symBinAddr: 0x1000AC044, symSize: 0x3C }
  - { offsetInCU: 0xB9BB1, offset: 0xB9BB1, size: 0x8, addend: 0x0, symName: __ZNSt3__110__distanceB8ue170006INS_13move_iteratorIPPNS_7__stateIcEEEEEENS_15iterator_traitsIT_E15difference_typeES8_S8_NS_26random_access_iterator_tagE, symObjAddr: 0xAAC44, symBinAddr: 0x1000AC248, symSize: 0x30 }
  - { offsetInCU: 0xB9C01, offset: 0xB9C01, size: 0x8, addend: 0x0, symName: __ZNSt3__1miB8ue170006IPPNS_7__stateIcEES4_EEDTmicldtfp_4baseEcldtfp0_4baseEERKNS_13move_iteratorIT_EERKNS6_IT0_EE, symObjAddr: 0xAAC74, symBinAddr: 0x1000AC278, symSize: 0x48 }
  - { offsetInCU: 0xB9C51, offset: 0xB9C51, size: 0x8, addend: 0x0, symName: __ZNSt3__113move_backwardB8ue170006IPPNS_7__stateIcEES4_EET0_T_S6_S5_, symObjAddr: 0xAAD7C, symBinAddr: 0x1000AC380, symSize: 0x40 }
  - { offsetInCU: 0xB9CAF, offset: 0xB9CAF, size: 0x8, addend: 0x0, symName: __ZNSt3__115__move_backwardB8ue170006INS_17_ClassicAlgPolicyEPPNS_7__stateIcEES5_S5_EENS_4pairIT0_T2_EES7_T1_S8_, symObjAddr: 0xAADBC, symBinAddr: 0x1000AC3C0, symSize: 0x44 }
  - { offsetInCU: 0xB9D1F, offset: 0xB9D1F, size: 0x8, addend: 0x0, symName: __ZNSt3__123__dispatch_copy_or_moveB8ue170006INS_17_ClassicAlgPolicyENS_20__move_backward_loopIS1_EENS_23__move_backward_trivialEPPNS_7__stateIcEES8_S8_EENS_4pairIT2_T4_EESA_T3_SB_, symObjAddr: 0xAAE00, symBinAddr: 0x1000AC404, symSize: 0x44 }
  - { offsetInCU: 0xB9DA1, offset: 0xB9DA1, size: 0x8, addend: 0x0, symName: __ZNSt3__121__unwrap_and_dispatchB8ue170006INS_10__overloadINS_20__move_backward_loopINS_17_ClassicAlgPolicyEEENS_23__move_backward_trivialEEEPPNS_7__stateIcEESA_SA_Li0EEENS_4pairIT0_T2_EESC_T1_SD_, symObjAddr: 0xAAE44, symBinAddr: 0x1000AC448, symSize: 0xB4 }
  - { offsetInCU: 0xB9EBD, offset: 0xB9EBD, size: 0x8, addend: 0x0, symName: __ZNSt3__128__copy_backward_trivial_implB8ue170006IPNS_7__stateIcEES3_EENS_4pairIPT_PT0_EES6_S6_S8_, symObjAddr: 0xAAF40, symBinAddr: 0x1000AC544, symSize: 0x90 }
  - { offsetInCU: 0xB9F29, offset: 0xB9F29, size: 0x8, addend: 0x0, symName: __ZNSt3__19make_pairB8ue170006IRPPNS_7__stateIcEES5_EENS_4pairINS_18__unwrap_ref_decayIT_E4typeENS7_IT0_E4typeEEEOS8_OSB_, symObjAddr: 0xAAFD0, symBinAddr: 0x1000AC5D4, symSize: 0x38 }
  - { offsetInCU: 0xB9F79, offset: 0xB9F79, size: 0x8, addend: 0x0, symName: __ZNSt3__119__allocate_at_leastB8ue170006INS_9allocatorIPNS_7__stateIcEEEEEENS_19__allocation_resultINS_16allocator_traitsIT_E7pointerEEERS8_m, symObjAddr: 0xAB204, symBinAddr: 0x1000AC808, symSize: 0x40 }
  - { offsetInCU: 0xB9FBE, offset: 0xB9FBE, size: 0x8, addend: 0x0, symName: __ZNSt3__1neB8ue170006ERKNS_16__deque_iteratorINS_7__stateIcEEPS2_RS2_PS3_lLl42EEES8_, symObjAddr: 0xABD90, symBinAddr: 0x1000AD394, symSize: 0x34 }
  - { offsetInCU: 0xB9FFB, offset: 0xB9FFB, size: 0x8, addend: 0x0, symName: __ZNSt3__1eqB8ue170006ERKNS_16__deque_iteratorINS_7__stateIcEEPS2_RS2_PS3_lLl42EEES8_, symObjAddr: 0xABE34, symBinAddr: 0x1000AD438, symSize: 0x30 }
  - { offsetInCU: 0xBA039, offset: 0xBA039, size: 0x8, addend: 0x0, symName: __ZNSt3__18distanceB8ue170006IPNS_9sub_matchIPKcEEEENS_15iterator_traitsIT_E15difference_typeES7_S7_, symObjAddr: 0xACC98, symBinAddr: 0x1000AE29C, symSize: 0x2C }
  - { offsetInCU: 0xBA07F, offset: 0xBA07F, size: 0x8, addend: 0x0, symName: __ZNSt3__14nextB8ue170006IPNS_9sub_matchIPKcEEEENS_9enable_ifIXsr29__has_input_iterator_categoryIT_EE5valueES7_E4typeES7_NS_15iterator_traitsIS7_E15difference_typeE, symObjAddr: 0xACCC4, symBinAddr: 0x1000AE2C8, symSize: 0x34 }
  - { offsetInCU: 0xBA0C5, offset: 0xBA0C5, size: 0x8, addend: 0x0, symName: __ZNSt3__14copyB8ue170006IPNS_9sub_matchIPKcEES5_EET0_T_S7_S6_, symObjAddr: 0xACCF8, symBinAddr: 0x1000AE2FC, symSize: 0x40 }
  - { offsetInCU: 0xBA123, offset: 0xBA123, size: 0x8, addend: 0x0, symName: __ZNSt3__16__copyB8ue170006INS_17_ClassicAlgPolicyEPNS_9sub_matchIPKcEES6_S6_EENS_4pairIT0_T2_EES8_T1_S9_, symObjAddr: 0xACD38, symBinAddr: 0x1000AE33C, symSize: 0x44 }
  - { offsetInCU: 0xBA193, offset: 0xBA193, size: 0x8, addend: 0x0, symName: __ZNSt3__19__advanceB8ue170006IPNS_9sub_matchIPKcEEEEvRT_NS_15iterator_traitsIS6_E15difference_typeENS_26random_access_iterator_tagE, symObjAddr: 0xACDB4, symBinAddr: 0x1000AE3B8, symSize: 0x30 }
  - { offsetInCU: 0xBA1E0, offset: 0xBA1E0, size: 0x8, addend: 0x0, symName: __ZNSt3__123__dispatch_copy_or_moveB8ue170006INS_17_ClassicAlgPolicyENS_11__copy_loopIS1_EENS_14__copy_trivialEPNS_9sub_matchIPKcEES9_S9_EENS_4pairIT2_T4_EESB_T3_SC_, symObjAddr: 0xACDE4, symBinAddr: 0x1000AE3E8, symSize: 0x44 }
  - { offsetInCU: 0xBA262, offset: 0xBA262, size: 0x8, addend: 0x0, symName: __ZNSt3__121__unwrap_and_dispatchB8ue170006INS_10__overloadINS_11__copy_loopINS_17_ClassicAlgPolicyEEENS_14__copy_trivialEEEPNS_9sub_matchIPKcEESB_SB_Li0EEENS_4pairIT0_T2_EESD_T1_SE_, symObjAddr: 0xACE28, symBinAddr: 0x1000AE42C, symSize: 0xB4 }
  - { offsetInCU: 0xBA2F7, offset: 0xBA2F7, size: 0x8, addend: 0x0, symName: __ZNSt3__114__rewrap_rangeB8ue170006IPNS_9sub_matchIPKcEES5_EET_S6_T0_, symObjAddr: 0xACF64, symBinAddr: 0x1000AE568, symSize: 0x2C }
  - { offsetInCU: 0xBA346, offset: 0xBA346, size: 0x8, addend: 0x0, symName: __ZNSt3__110__distanceB8ue170006IPNS_9sub_matchIPKcEEEENS_15iterator_traitsIT_E15difference_typeES7_S7_NS_26random_access_iterator_tagE, symObjAddr: 0xACF90, symBinAddr: 0x1000AE594, symSize: 0x28 }
  - { offsetInCU: 0xBA397, offset: 0xBA397, size: 0x8, addend: 0x0, symName: __ZNSt3__18distanceB8ue170006IPNS_4pairImPKcEEEENS_15iterator_traitsIT_E15difference_typeES7_S7_, symObjAddr: 0xAD1B8, symBinAddr: 0x1000AE7BC, symSize: 0x2C }
  - { offsetInCU: 0xBA3DD, offset: 0xBA3DD, size: 0x8, addend: 0x0, symName: __ZNSt3__14nextB8ue170006IPNS_4pairImPKcEEEENS_9enable_ifIXsr29__has_input_iterator_categoryIT_EE5valueES7_E4typeES7_NS_15iterator_traitsIS7_E15difference_typeE, symObjAddr: 0xAD1E4, symBinAddr: 0x1000AE7E8, symSize: 0x34 }
  - { offsetInCU: 0xBA423, offset: 0xBA423, size: 0x8, addend: 0x0, symName: __ZNSt3__14copyB8ue170006IPNS_4pairImPKcEES5_EET0_T_S7_S6_, symObjAddr: 0xAD218, symBinAddr: 0x1000AE81C, symSize: 0x40 }
  - { offsetInCU: 0xBA481, offset: 0xBA481, size: 0x8, addend: 0x0, symName: __ZNSt3__16__copyB8ue170006INS_17_ClassicAlgPolicyEPNS_4pairImPKcEES6_S6_EENS2_IT0_T2_EES7_T1_S8_, symObjAddr: 0xAD258, symBinAddr: 0x1000AE85C, symSize: 0x44 }
  - { offsetInCU: 0xBA4F1, offset: 0xBA4F1, size: 0x8, addend: 0x0, symName: __ZNSt3__19__advanceB8ue170006IPNS_4pairImPKcEEEEvRT_NS_15iterator_traitsIS6_E15difference_typeENS_26random_access_iterator_tagE, symObjAddr: 0xAD368, symBinAddr: 0x1000AE96C, symSize: 0x28 }
  - { offsetInCU: 0xBA53E, offset: 0xBA53E, size: 0x8, addend: 0x0, symName: __ZNSt3__123__dispatch_copy_or_moveB8ue170006INS_17_ClassicAlgPolicyENS_11__copy_loopIS1_EENS_14__copy_trivialEPNS_4pairImPKcEES9_S9_EENS5_IT2_T4_EESA_T3_SB_, symObjAddr: 0xAD390, symBinAddr: 0x1000AE994, symSize: 0x44 }
  - { offsetInCU: 0xBA5C0, offset: 0xBA5C0, size: 0x8, addend: 0x0, symName: __ZNSt3__121__unwrap_and_dispatchB8ue170006INS_10__overloadINS_11__copy_loopINS_17_ClassicAlgPolicyEEENS_14__copy_trivialEEEPNS_4pairImPKcEESB_SB_Li0EEENS7_IT0_T2_EESC_T1_SD_, symObjAddr: 0xAD3D4, symBinAddr: 0x1000AE9D8, symSize: 0xB4 }
  - { offsetInCU: 0xBA655, offset: 0xBA655, size: 0x8, addend: 0x0, symName: __ZNSt3__114__rewrap_rangeB8ue170006IPNS_4pairImPKcEES5_EET_S6_T0_, symObjAddr: 0xAD510, symBinAddr: 0x1000AEB14, symSize: 0x2C }
  - { offsetInCU: 0xBA6A4, offset: 0xBA6A4, size: 0x8, addend: 0x0, symName: __ZNSt3__110__distanceB8ue170006IPNS_4pairImPKcEEEENS_15iterator_traitsIT_E15difference_typeES7_S7_NS_26random_access_iterator_tagE, symObjAddr: 0xAD5B0, symBinAddr: 0x1000AEBB4, symSize: 0x28 }
  - { offsetInCU: 0xBA6F5, offset: 0xBA6F5, size: 0x8, addend: 0x0, symName: __ZNSt3__119__allocate_at_leastB8ue170006INS_9allocatorINS_9sub_matchINS_11__wrap_iterIPKcEEEEEEEENS_19__allocation_resultINS_16allocator_traitsIT_E7pointerEEERSB_m, symObjAddr: 0xADFD8, symBinAddr: 0x1000AF5DC, symSize: 0x40 }
  - { offsetInCU: 0xBA73A, offset: 0xBA73A, size: 0x8, addend: 0x0, symName: __ZNSt3__142__uninitialized_allocator_move_if_noexceptB8ue170006INS_9allocatorINS_9sub_matchINS_11__wrap_iterIPKcEEEEEENS_16reverse_iteratorIPS7_EESB_SB_EET2_RT_T0_T1_SC_, symObjAddr: 0xAE264, symBinAddr: 0x1000AF868, symSize: 0x12C }
  - { offsetInCU: 0xBA7DB, offset: 0xBA7DB, size: 0x8, addend: 0x0, symName: __ZNSt3__14swapB8ue170006IPNS_9sub_matchINS_11__wrap_iterIPKcEEEEEENS_9enable_ifIXaasr21is_move_constructibleIT_EE5valuesr18is_move_assignableIS9_EE5valueEvE4typeERS9_SC_, symObjAddr: 0xAE3DC, symBinAddr: 0x1000AF9E0, symSize: 0x3C }
  - { offsetInCU: 0xBA830, offset: 0xBA830, size: 0x8, addend: 0x0, symName: __ZNSt3__122__make_exception_guardB8ue170006INS_29_AllocatorDestroyRangeReverseINS_9allocatorINS_9sub_matchINS_11__wrap_iterIPKcEEEEEENS_16reverse_iteratorIPS8_EEEEEENS_28__exception_guard_exceptionsIT_EESF_, symObjAddr: 0xAE4E0, symBinAddr: 0x1000AFAE4, symSize: 0x4C }
  - { offsetInCU: 0xBA868, offset: 0xBA868, size: 0x8, addend: 0x0, symName: __ZNSt3__1neB8ue170006IPNS_9sub_matchINS_11__wrap_iterIPKcEEEES7_EEbRKNS_16reverse_iteratorIT_EERKNS8_IT0_EE, symObjAddr: 0xAE570, symBinAddr: 0x1000AFB74, symSize: 0x48 }
  - { offsetInCU: 0xBA8B7, offset: 0xBA8B7, size: 0x8, addend: 0x0, symName: __ZNSt3__112__to_addressB8ue170006INS_16reverse_iteratorIPNS_9sub_matchINS_11__wrap_iterIPKcEEEEEEvEEu7__decayIDTclsr19__to_address_helperIT_EE6__callclsr3stdE7declvalIRKSA_EEEEESC_, symObjAddr: 0xAE5EC, symBinAddr: 0x1000AFBF0, symSize: 0x24 }
  - { offsetInCU: 0xBA919, offset: 0xBA919, size: 0x8, addend: 0x0, symName: __ZNSt3__119__allocator_destroyB8ue170006INS_9allocatorINS_9sub_matchINS_11__wrap_iterIPKcEEEEEENS_16reverse_iteratorINS9_IPS7_EEEESC_EEvRT_T0_T1_, symObjAddr: 0xAE8CC, symBinAddr: 0x1000AFED0, symSize: 0x70 }
  - { offsetInCU: 0xBA97F, offset: 0xBA97F, size: 0x8, addend: 0x0, symName: __ZNSt3__1neB8ue170006INS_16reverse_iteratorIPNS_9sub_matchINS_11__wrap_iterIPKcEEEEEES9_EEbRKNS1_IT_EERKNS1_IT0_EE, symObjAddr: 0xAE978, symBinAddr: 0x1000AFF7C, symSize: 0x60 }
  - { offsetInCU: 0xBA9CE, offset: 0xBA9CE, size: 0x8, addend: 0x0, symName: __ZNSt3__112__to_addressB8ue170006INS_16reverse_iteratorINS1_IPNS_9sub_matchINS_11__wrap_iterIPKcEEEEEEEEvEEu7__decayIDTclsr19__to_address_helperIT_EE6__callclsr3stdE7declvalIRKSB_EEEEESD_, symObjAddr: 0xAE9D8, symBinAddr: 0x1000AFFDC, symSize: 0x24 }
  - { offsetInCU: 0xBADF7, offset: 0xBADF7, size: 0x8, addend: 0x0, symName: __ZNSt3__14swapB8ue170006IPPcEENS_9enable_ifIXaasr21is_move_constructibleIT_EE5valuesr18is_move_assignableIS4_EE5valueEvE4typeERS4_S7_, symObjAddr: 0xB04A0, symBinAddr: 0x1000B1AA4, symSize: 0x3C }
  - { offsetInCU: 0xBAE4C, offset: 0xBAE4C, size: 0x8, addend: 0x0, symName: __ZNSt3__14moveB8ue170006IPPcS2_EET0_T_S4_S3_, symObjAddr: 0xB0584, symBinAddr: 0x1000B1B88, symSize: 0x40 }
  - { offsetInCU: 0xBAEAA, offset: 0xBAEAA, size: 0x8, addend: 0x0, symName: __ZNSt3__16__moveB8ue170006INS_17_ClassicAlgPolicyEPPcS3_S3_EENS_4pairIT0_T2_EES5_T1_S6_, symObjAddr: 0xB068C, symBinAddr: 0x1000B1C90, symSize: 0x44 }
  - { offsetInCU: 0xBAF1A, offset: 0xBAF1A, size: 0x8, addend: 0x0, symName: __ZNSt3__123__dispatch_copy_or_moveB8ue170006INS_17_ClassicAlgPolicyENS_11__move_loopIS1_EENS_14__move_trivialEPPcS6_S6_EENS_4pairIT2_T4_EES8_T3_S9_, symObjAddr: 0xB06D0, symBinAddr: 0x1000B1CD4, symSize: 0x44 }
  - { offsetInCU: 0xBAF9C, offset: 0xBAF9C, size: 0x8, addend: 0x0, symName: __ZNSt3__121__unwrap_and_dispatchB8ue170006INS_10__overloadINS_11__move_loopINS_17_ClassicAlgPolicyEEENS_14__move_trivialEEEPPcS8_S8_Li0EEENS_4pairIT0_T2_EESA_T1_SB_, symObjAddr: 0xB0714, symBinAddr: 0x1000B1D18, symSize: 0xB4 }
  - { offsetInCU: 0xBB031, offset: 0xBB031, size: 0x8, addend: 0x0, symName: __ZNSt3__114__unwrap_rangeB8ue170006IPPcS2_EENS_4pairIT0_S4_EET_S6_, symObjAddr: 0xB07C8, symBinAddr: 0x1000B1DCC, symSize: 0x60 }
  - { offsetInCU: 0xBB1BD, offset: 0xBB1BD, size: 0x8, addend: 0x0, symName: __ZNSt3__113__unwrap_iterB8ue170006IPPcNS_18__unwrap_iter_implIS2_Lb1EEELi0EEEDTclsrT0_8__unwrapclsr3stdE7declvalIT_EEEES6_, symObjAddr: 0xB0870, symBinAddr: 0x1000B1E74, symSize: 0x24 }
  - { offsetInCU: 0xBB203, offset: 0xBB203, size: 0x8, addend: 0x0, symName: __ZNSt3__19make_pairB8ue170006IPPcS2_EENS_4pairINS_18__unwrap_ref_decayIT_E4typeENS4_IT0_E4typeEEEOS5_OS8_, symObjAddr: 0xB0894, symBinAddr: 0x1000B1E98, symSize: 0x38 }
  - { offsetInCU: 0xBB253, offset: 0xBB253, size: 0x8, addend: 0x0, symName: __ZNSt3__114__rewrap_rangeB8ue170006IPPcS2_EET_S3_T0_, symObjAddr: 0xB08CC, symBinAddr: 0x1000B1ED0, symSize: 0x2C }
  - { offsetInCU: 0xBB2A2, offset: 0xBB2A2, size: 0x8, addend: 0x0, symName: __ZNSt3__113__rewrap_iterB8ue170006IPPcS2_NS_18__unwrap_iter_implIS2_Lb1EEEEET_S5_T0_, symObjAddr: 0xB08F8, symBinAddr: 0x1000B1EFC, symSize: 0x3C }
  - { offsetInCU: 0xBB2FA, offset: 0xBB2FA, size: 0x8, addend: 0x0, symName: __ZNSt3__119__copy_trivial_implB8ue170006IPcS1_EENS_4pairIPT_PT0_EES4_S4_S6_, symObjAddr: 0xB0934, symBinAddr: 0x1000B1F38, symSize: 0x80 }
  - { offsetInCU: 0xBB367, offset: 0xBB367, size: 0x8, addend: 0x0, symName: __ZNSt3__119__constexpr_memmoveB8ue170006IPcS1_Li0EEEPT_S3_PT0_NS_15__element_countE, symObjAddr: 0xB09B4, symBinAddr: 0x1000B1FB8, symSize: 0x64 }
  - { offsetInCU: 0xBB3DA, offset: 0xBB3DA, size: 0x8, addend: 0x0, symName: __ZNSt3__19make_pairB8ue170006IRPPcS2_EENS_4pairINS_18__unwrap_ref_decayIT_E4typeENS5_IT0_E4typeEEEOS6_OS9_, symObjAddr: 0xB0A18, symBinAddr: 0x1000B201C, symSize: 0x38 }
  - { offsetInCU: 0xBB482, offset: 0xBB482, size: 0x8, addend: 0x0, symName: __ZNSt3__18distanceB8ue170006INS_13move_iteratorIPPcEEEENS_15iterator_traitsIT_E15difference_typeES6_S6_, symObjAddr: 0xB0C80, symBinAddr: 0x1000B2284, symSize: 0x3C }
  - { offsetInCU: 0xBB4C8, offset: 0xBB4C8, size: 0x8, addend: 0x0, symName: __ZNSt3__110__distanceB8ue170006INS_13move_iteratorIPPcEEEENS_15iterator_traitsIT_E15difference_typeES6_S6_NS_26random_access_iterator_tagE, symObjAddr: 0xB0E84, symBinAddr: 0x1000B2488, symSize: 0x30 }
  - { offsetInCU: 0xBB518, offset: 0xBB518, size: 0x8, addend: 0x0, symName: __ZNSt3__1miB8ue170006IPPcS2_EEDTmicldtfp_4baseEcldtfp0_4baseEERKNS_13move_iteratorIT_EERKNS4_IT0_EE, symObjAddr: 0xB0EB4, symBinAddr: 0x1000B24B8, symSize: 0x48 }
  - { offsetInCU: 0xBB568, offset: 0xBB568, size: 0x8, addend: 0x0, symName: __ZNSt3__113move_backwardB8ue170006IPPcS2_EET0_T_S4_S3_, symObjAddr: 0xB0F5C, symBinAddr: 0x1000B2560, symSize: 0x40 }
  - { offsetInCU: 0xBB5C6, offset: 0xBB5C6, size: 0x8, addend: 0x0, symName: __ZNSt3__115__move_backwardB8ue170006INS_17_ClassicAlgPolicyEPPcS3_S3_EENS_4pairIT0_T2_EES5_T1_S6_, symObjAddr: 0xB0F9C, symBinAddr: 0x1000B25A0, symSize: 0x44 }
  - { offsetInCU: 0xBB636, offset: 0xBB636, size: 0x8, addend: 0x0, symName: __ZNSt3__123__dispatch_copy_or_moveB8ue170006INS_17_ClassicAlgPolicyENS_20__move_backward_loopIS1_EENS_23__move_backward_trivialEPPcS6_S6_EENS_4pairIT2_T4_EES8_T3_S9_, symObjAddr: 0xB0FE0, symBinAddr: 0x1000B25E4, symSize: 0x44 }
  - { offsetInCU: 0xBB6B8, offset: 0xBB6B8, size: 0x8, addend: 0x0, symName: __ZNSt3__121__unwrap_and_dispatchB8ue170006INS_10__overloadINS_20__move_backward_loopINS_17_ClassicAlgPolicyEEENS_23__move_backward_trivialEEEPPcS8_S8_Li0EEENS_4pairIT0_T2_EESA_T1_SB_, symObjAddr: 0xB1024, symBinAddr: 0x1000B2628, symSize: 0xB4 }
  - { offsetInCU: 0xBB74D, offset: 0xBB74D, size: 0x8, addend: 0x0, symName: __ZNSt3__128__copy_backward_trivial_implB8ue170006IPcS1_EENS_4pairIPT_PT0_EES4_S4_S6_, symObjAddr: 0xB1120, symBinAddr: 0x1000B2724, symSize: 0x90 }
  - { offsetInCU: 0xBB7B9, offset: 0xBB7B9, size: 0x8, addend: 0x0, symName: __ZNSt3__19make_pairB8ue170006IRPPcS3_EENS_4pairINS_18__unwrap_ref_decayIT_E4typeENS5_IT0_E4typeEEEOS6_OS9_, symObjAddr: 0xB11B0, symBinAddr: 0x1000B27B4, symSize: 0x38 }
  - { offsetInCU: 0xBB809, offset: 0xBB809, size: 0x8, addend: 0x0, symName: __ZNSt3__119__allocate_at_leastB8ue170006INS_9allocatorIPcEEEENS_19__allocation_resultINS_16allocator_traitsIT_E7pointerEEERS6_m, symObjAddr: 0xB1368, symBinAddr: 0x1000B296C, symSize: 0x40 }
  - { offsetInCU: 0xBB84F, offset: 0xBB84F, size: 0x8, addend: 0x0, symName: __ZNSt3__112__to_addressB8ue170006ISt13exception_ptrEEPT_S3_, symObjAddr: 0xB3A44, symBinAddr: 0x1000B5048, symSize: 0x14 }
  - { offsetInCU: 0xBB885, offset: 0xBB885, size: 0x8, addend: 0x0, symName: __ZNSt3__17launderB8ue170006INS_4pairIKNS_12basic_stringIcNS_11char_traitsIcEENS_9allocatorIcEEEENS_10shared_ptrIN5Catch16IReporterFactoryEEEEEEEPT_SF_, symObjAddr: 0xB3F24, symBinAddr: 0x1000B5528, symSize: 0x24 }
  - { offsetInCU: 0xBB8BC, offset: 0xBB8BC, size: 0x8, addend: 0x0, symName: __ZNSt3__19__launderB8ue170006INS_4pairIKNS_12basic_stringIcNS_11char_traitsIcEENS_9allocatorIcEEEENS_10shared_ptrIN5Catch16IReporterFactoryEEEEEEEPT_SF_, symObjAddr: 0xB3F48, symBinAddr: 0x1000B554C, symSize: 0x14 }
  - { offsetInCU: 0xBB8F4, offset: 0xBB8F4, size: 0x8, addend: 0x0, symName: __ZNSt3__112__to_addressB8ue170006INS_10shared_ptrIN5Catch16IReporterFactoryEEEEEPT_S6_, symObjAddr: 0xB42FC, symBinAddr: 0x1000B5900, symSize: 0x14 }
  - { offsetInCU: 0xBB9A8, offset: 0xBB9A8, size: 0x8, addend: 0x0, symName: __ZNSt3__119__allocate_at_leastB8ue170006INS_9allocatorINS_10shared_ptrIN5Catch16IReporterFactoryEEEEEEENS_19__allocation_resultINS_16allocator_traitsIT_E7pointerEEERS9_m, symObjAddr: 0xB5A00, symBinAddr: 0x1000B7004, symSize: 0x40 }
  - { offsetInCU: 0xBB9ED, offset: 0xBB9ED, size: 0x8, addend: 0x0, symName: __ZNSt3__142__uninitialized_allocator_move_if_noexceptB8ue170006INS_9allocatorINS_10shared_ptrIN5Catch16IReporterFactoryEEEEENS_16reverse_iteratorIPS5_EES9_S9_EET2_RT_T0_T1_SA_, symObjAddr: 0xB5BB4, symBinAddr: 0x1000B71B8, symSize: 0x12C }
  - { offsetInCU: 0xBBA8E, offset: 0xBBA8E, size: 0x8, addend: 0x0, symName: __ZNSt3__14swapB8ue170006IPNS_10shared_ptrIN5Catch16IReporterFactoryEEEEENS_9enable_ifIXaasr21is_move_constructibleIT_EE5valuesr18is_move_assignableIS7_EE5valueEvE4typeERS7_SA_, symObjAddr: 0xB5D2C, symBinAddr: 0x1000B7330, symSize: 0x3C }
  - { offsetInCU: 0xBBAE3, offset: 0xBBAE3, size: 0x8, addend: 0x0, symName: __ZNSt3__122__make_exception_guardB8ue170006INS_29_AllocatorDestroyRangeReverseINS_9allocatorINS_10shared_ptrIN5Catch16IReporterFactoryEEEEENS_16reverse_iteratorIPS6_EEEEEENS_28__exception_guard_exceptionsIT_EESD_, symObjAddr: 0xB5E14, symBinAddr: 0x1000B7418, symSize: 0x4C }
  - { offsetInCU: 0xBBB1B, offset: 0xBBB1B, size: 0x8, addend: 0x0, symName: __ZNSt3__1neB8ue170006IPNS_10shared_ptrIN5Catch16IReporterFactoryEEES5_EEbRKNS_16reverse_iteratorIT_EERKNS6_IT0_EE, symObjAddr: 0xB5EA4, symBinAddr: 0x1000B74A8, symSize: 0x48 }
  - { offsetInCU: 0xBBB6A, offset: 0xBBB6A, size: 0x8, addend: 0x0, symName: __ZNSt3__112__to_addressB8ue170006INS_16reverse_iteratorIPNS_10shared_ptrIN5Catch16IReporterFactoryEEEEEvEEu7__decayIDTclsr19__to_address_helperIT_EE6__callclsr3stdE7declvalIRKS8_EEEEESA_, symObjAddr: 0xB5F20, symBinAddr: 0x1000B7524, symSize: 0x24 }
  - { offsetInCU: 0xBBBCC, offset: 0xBBBCC, size: 0x8, addend: 0x0, symName: __ZNSt3__119__allocator_destroyB8ue170006INS_9allocatorINS_10shared_ptrIN5Catch16IReporterFactoryEEEEENS_16reverse_iteratorINS7_IPS5_EEEESA_EEvRT_T0_T1_, symObjAddr: 0xB6274, symBinAddr: 0x1000B7878, symSize: 0x70 }
  - { offsetInCU: 0xBBC32, offset: 0xBBC32, size: 0x8, addend: 0x0, symName: __ZNSt3__1neB8ue170006INS_16reverse_iteratorIPNS_10shared_ptrIN5Catch16IReporterFactoryEEEEES7_EEbRKNS1_IT_EERKNS1_IT0_EE, symObjAddr: 0xB6320, symBinAddr: 0x1000B7924, symSize: 0x60 }
  - { offsetInCU: 0xBBC81, offset: 0xBBC81, size: 0x8, addend: 0x0, symName: __ZNSt3__112__to_addressB8ue170006INS_16reverse_iteratorINS1_IPNS_10shared_ptrIN5Catch16IReporterFactoryEEEEEEEvEEu7__decayIDTclsr19__to_address_helperIT_EE6__callclsr3stdE7declvalIRKS9_EEEEESB_, symObjAddr: 0xB6380, symBinAddr: 0x1000B7984, symSize: 0x24 }
  - { offsetInCU: 0xBBCE4, offset: 0xBBCE4, size: 0x8, addend: 0x0, symName: __ZNSt3__113__rewrap_iterB8ue170006INS_11__wrap_iterIPKNS_12basic_stringIcNS_11char_traitsIcEENS_9allocatorIcEEEEEES9_NS_18__unwrap_iter_implISA_Lb1EEEEET_SD_T0_, symObjAddr: 0xB67F0, symBinAddr: 0x1000B7DF4, symSize: 0x4C }
  - { offsetInCU: 0xBBD3C, offset: 0xBBD3C, size: 0x8, addend: 0x0, symName: __ZNSt3__111__find_implB8ue170006IPKNS_12basic_stringIcNS_11char_traitsIcEENS_9allocatorIcEEEES8_S6_NS_10__identityEEET_SA_T0_RKT1_RT2_, symObjAddr: 0xB683C, symBinAddr: 0x1000B7E40, symSize: 0x7C }
  - { offsetInCU: 0xBBDBB, offset: 0xBBDBB, size: 0x8, addend: 0x0, symName: __ZNSt3__113__unwrap_iterB8ue170006INS_11__wrap_iterIPKNS_12basic_stringIcNS_11char_traitsIcEENS_9allocatorIcEEEEEENS_18__unwrap_iter_implISA_Lb1EEELi0EEEDTclsrT0_8__unwrapclsr3stdE7declvalIT_EEEESE_, symObjAddr: 0xB68B8, symBinAddr: 0x1000B7EBC, symSize: 0x2C }
  - { offsetInCU: 0xBBE5A, offset: 0xBBE5A, size: 0x8, addend: 0x0, symName: __ZNSt3__112__to_addressB8ue170006INS_11__wrap_iterIPKNS_12basic_stringIcNS_11char_traitsIcEENS_9allocatorIcEEEEEEvEEu7__decayIDTclsr19__to_address_helperIT_EE6__callclsr3stdE7declvalIRKSB_EEEEESD_, symObjAddr: 0xB6940, symBinAddr: 0x1000B7F44, symSize: 0x24 }
  - { offsetInCU: 0xBBF40, offset: 0xBBF40, size: 0x8, addend: 0x0, symName: __ZNSt3__18__invokeB8ue170006IRNS_10__identityEJRKNS_12basic_stringIcNS_11char_traitsIcEENS_9allocatorIcEEEEEEEDTclclsr3stdE7declvalIT_EEspclsr3stdE7declvalIT0_EEEEOSB_DpOSC_, symObjAddr: 0xB69C0, symBinAddr: 0x1000B7FC4, symSize: 0x2C }
  - { offsetInCU: 0xBBF94, offset: 0xBBF94, size: 0x8, addend: 0x0, symName: __ZNSt3__112__to_addressB8ue170006IN5Catch13ScopedMessageEEEPT_S4_, symObjAddr: 0xB73EC, symBinAddr: 0x1000B89F0, symSize: 0x14 }
  - { offsetInCU: 0xBBFCB, offset: 0xBBFCB, size: 0x8, addend: 0x0, symName: __ZNSt3__112__to_addressB8ue170006IN5Catch14SectionEndInfoEEEPT_S4_, symObjAddr: 0xB78EC, symBinAddr: 0x1000B8EF0, symSize: 0x14 }
  - { offsetInCU: 0xBC002, offset: 0xBC002, size: 0x8, addend: 0x0, symName: __ZNSt3__112__to_addressB8ue170006IPN5Catch16TestCaseTracking8ITrackerEEEPT_S6_, symObjAddr: 0xB7DD0, symBinAddr: 0x1000B93D4, symSize: 0x14 }
  - { offsetInCU: 0xBC039, offset: 0xBC039, size: 0x8, addend: 0x0, symName: __ZNSt3__119__allocate_at_leastB8ue170006INS_9allocatorIPN5Catch16TestCaseTracking8ITrackerEEEEENS_19__allocation_resultINS_16allocator_traitsIT_E7pointerEEERS9_m, symObjAddr: 0xB8758, symBinAddr: 0x1000B9D5C, symSize: 0x40 }
  - { offsetInCU: 0xBC07E, offset: 0xBC07E, size: 0x8, addend: 0x0, symName: __ZNSt3__142__uninitialized_allocator_move_if_noexceptB8ue170006INS_9allocatorIPN5Catch16TestCaseTracking8ITrackerEEENS_16reverse_iteratorIPS5_EES9_S5_vEET1_RT_T0_SD_SA_, symObjAddr: 0xB890C, symBinAddr: 0x1000B9F10, symSize: 0x78 }
  - { offsetInCU: 0xBC0FC, offset: 0xBC0FC, size: 0x8, addend: 0x0, symName: __ZNSt3__14swapB8ue170006IPPN5Catch16TestCaseTracking8ITrackerEEENS_9enable_ifIXaasr21is_move_constructibleIT_EE5valuesr18is_move_assignableIS7_EE5valueEvE4typeERS7_SA_, symObjAddr: 0xB89D0, symBinAddr: 0x1000B9FD4, symSize: 0x3C }
  - { offsetInCU: 0xBC151, offset: 0xBC151, size: 0x8, addend: 0x0, symName: __ZNSt3__14moveB8ue170006INS_16reverse_iteratorIPPN5Catch16TestCaseTracking8ITrackerEEES7_EET0_T_S9_S8_, symObjAddr: 0xB8AB8, symBinAddr: 0x1000BA0BC, symSize: 0x78 }
  - { offsetInCU: 0xBC1AF, offset: 0xBC1AF, size: 0x8, addend: 0x0, symName: __ZNSt3__16__moveB8ue170006INS_17_ClassicAlgPolicyENS_16reverse_iteratorIPPN5Catch16TestCaseTracking8ITrackerEEES8_S8_EENS_4pairIT0_T2_EESA_T1_SB_, symObjAddr: 0xB8B30, symBinAddr: 0x1000BA134, symSize: 0x64 }
  - { offsetInCU: 0xBC21F, offset: 0xBC21F, size: 0x8, addend: 0x0, symName: __ZNSt3__123__dispatch_copy_or_moveB8ue170006INS_17_ClassicAlgPolicyENS_11__move_loopIS1_EENS_14__move_trivialENS_16reverse_iteratorIPPN5Catch16TestCaseTracking8ITrackerEEESB_SB_EENS_4pairIT2_T4_EESD_T3_SE_, symObjAddr: 0xB8B94, symBinAddr: 0x1000BA198, symSize: 0x64 }
  - { offsetInCU: 0xBC2A1, offset: 0xBC2A1, size: 0x8, addend: 0x0, symName: __ZNSt3__121__unwrap_and_dispatchB8ue170006INS_10__overloadINS_11__move_loopINS_17_ClassicAlgPolicyEEENS_14__move_trivialEEENS_16reverse_iteratorIPPN5Catch16TestCaseTracking8ITrackerEEESD_SD_Li0EEENS_4pairIT0_T2_EESF_T1_SG_, symObjAddr: 0xB8BF8, symBinAddr: 0x1000BA1FC, symSize: 0x12C }
  - { offsetInCU: 0xBC338, offset: 0xBC338, size: 0x8, addend: 0x0, symName: __ZNSt3__114__unwrap_rangeB8ue170006INS_16reverse_iteratorIPPN5Catch16TestCaseTracking8ITrackerEEES7_EENS_4pairIT0_S9_EET_SB_, symObjAddr: 0xB8D24, symBinAddr: 0x1000BA328, symSize: 0x84 }
  - { offsetInCU: 0xBC462, offset: 0xBC462, size: 0x8, addend: 0x0, symName: __ZNSt3__113__unwrap_iterB8ue170006INS_16reverse_iteratorIPPN5Catch16TestCaseTracking8ITrackerEEENS_18__unwrap_iter_implIS7_Lb0EEELi0EEEDTclsrT0_8__unwrapclsr3stdE7declvalIT_EEEESB_, symObjAddr: 0xB8E48, symBinAddr: 0x1000BA44C, symSize: 0x44 }
  - { offsetInCU: 0xBC4A8, offset: 0xBC4A8, size: 0x8, addend: 0x0, symName: __ZNSt3__19make_pairB8ue170006INS_16reverse_iteratorIPPN5Catch16TestCaseTracking8ITrackerEEES7_EENS_4pairINS_18__unwrap_ref_decayIT_E4typeENS9_IT0_E4typeEEEOSA_OSD_, symObjAddr: 0xB8E8C, symBinAddr: 0x1000BA490, symSize: 0x38 }
  - { offsetInCU: 0xBC4F8, offset: 0xBC4F8, size: 0x8, addend: 0x0, symName: __ZNSt3__114__rewrap_rangeB8ue170006INS_16reverse_iteratorIPPN5Catch16TestCaseTracking8ITrackerEEES7_EET_S8_T0_, symObjAddr: 0xB8EC4, symBinAddr: 0x1000BA4C8, symSize: 0x5C }
  - { offsetInCU: 0xBC547, offset: 0xBC547, size: 0x8, addend: 0x0, symName: __ZNSt3__113__rewrap_iterB8ue170006INS_16reverse_iteratorIPPN5Catch16TestCaseTracking8ITrackerEEES7_NS_18__unwrap_iter_implIS7_Lb0EEEEET_SA_T0_, symObjAddr: 0xB8F20, symBinAddr: 0x1000BA524, symSize: 0x74 }
  - { offsetInCU: 0xBC59F, offset: 0xBC59F, size: 0x8, addend: 0x0, symName: __ZNSt3__1neB8ue170006IPPN5Catch16TestCaseTracking8ITrackerES5_EEbRKNS_16reverse_iteratorIT_EERKNS6_IT0_EE, symObjAddr: 0xB8F94, symBinAddr: 0x1000BA598, symSize: 0x48 }
  - { offsetInCU: 0xBC661, offset: 0xBC661, size: 0x8, addend: 0x0, symName: __ZNSt3__119__allocate_at_leastB8ue170006INS_9allocatorIN5Catch14SectionEndInfoEEEEENS_19__allocation_resultINS_16allocator_traitsIT_E7pointerEEERS7_m, symObjAddr: 0xB9CBC, symBinAddr: 0x1000BB2C0, symSize: 0x40 }
  - { offsetInCU: 0xBC6A6, offset: 0xBC6A6, size: 0x8, addend: 0x0, symName: __ZNSt3__142__uninitialized_allocator_move_if_noexceptB8ue170006INS_9allocatorIN5Catch14SectionEndInfoEEENS_16reverse_iteratorIPS3_EES7_S7_EET2_RT_T0_T1_S8_, symObjAddr: 0xB9E74, symBinAddr: 0x1000BB478, symSize: 0x12C }
  - { offsetInCU: 0xBC747, offset: 0xBC747, size: 0x8, addend: 0x0, symName: __ZNSt3__14swapB8ue170006IPN5Catch14SectionEndInfoEEENS_9enable_ifIXaasr21is_move_constructibleIT_EE5valuesr18is_move_assignableIS5_EE5valueEvE4typeERS5_S8_, symObjAddr: 0xB9FEC, symBinAddr: 0x1000BB5F0, symSize: 0x3C }
  - { offsetInCU: 0xBC79C, offset: 0xBC79C, size: 0x8, addend: 0x0, symName: __ZNSt3__122__make_exception_guardB8ue170006INS_29_AllocatorDestroyRangeReverseINS_9allocatorIN5Catch14SectionEndInfoEEENS_16reverse_iteratorIPS4_EEEEEENS_28__exception_guard_exceptionsIT_EESB_, symObjAddr: 0xBA0F0, symBinAddr: 0x1000BB6F4, symSize: 0x4C }
  - { offsetInCU: 0xBC7D4, offset: 0xBC7D4, size: 0x8, addend: 0x0, symName: __ZNSt3__1neB8ue170006IPN5Catch14SectionEndInfoES3_EEbRKNS_16reverse_iteratorIT_EERKNS4_IT0_EE, symObjAddr: 0xBA180, symBinAddr: 0x1000BB784, symSize: 0x48 }
  - { offsetInCU: 0xBC823, offset: 0xBC823, size: 0x8, addend: 0x0, symName: __ZNSt3__112__to_addressB8ue170006INS_16reverse_iteratorIPN5Catch14SectionEndInfoEEEvEEu7__decayIDTclsr19__to_address_helperIT_EE6__callclsr3stdE7declvalIRKS6_EEEEES8_, symObjAddr: 0xBA1FC, symBinAddr: 0x1000BB800, symSize: 0x24 }
  - { offsetInCU: 0xBC885, offset: 0xBC885, size: 0x8, addend: 0x0, symName: __ZNSt3__119__allocator_destroyB8ue170006INS_9allocatorIN5Catch14SectionEndInfoEEENS_16reverse_iteratorINS5_IPS3_EEEES8_EEvRT_T0_T1_, symObjAddr: 0xBA5E0, symBinAddr: 0x1000BBBE4, symSize: 0x70 }
  - { offsetInCU: 0xBC8EB, offset: 0xBC8EB, size: 0x8, addend: 0x0, symName: __ZNSt3__1neB8ue170006INS_16reverse_iteratorIPN5Catch14SectionEndInfoEEES5_EEbRKNS1_IT_EERKNS1_IT0_EE, symObjAddr: 0xBA68C, symBinAddr: 0x1000BBC90, symSize: 0x60 }
  - { offsetInCU: 0xBC93A, offset: 0xBC93A, size: 0x8, addend: 0x0, symName: __ZNSt3__112__to_addressB8ue170006INS_16reverse_iteratorINS1_IPN5Catch14SectionEndInfoEEEEEvEEu7__decayIDTclsr19__to_address_helperIT_EE6__callclsr3stdE7declvalIRKS7_EEEEES9_, symObjAddr: 0xBA6EC, symBinAddr: 0x1000BBCF0, symSize: 0x24 }
  - { offsetInCU: 0xBC99D, offset: 0xBC99D, size: 0x8, addend: 0x0, symName: __ZNSt3__14findB8ue170006INS_11__wrap_iterIPN5Catch11MessageInfoEEES3_EET_S6_S6_RKT0_, symObjAddr: 0xBAAD8, symBinAddr: 0x1000BC0DC, symSize: 0x78 }
  - { offsetInCU: 0xBCA0A, offset: 0xBCA0A, size: 0x8, addend: 0x0, symName: __ZNSt3__1neB8ue170006IPN5Catch11MessageInfoEEEbRKNS_11__wrap_iterIT_EES8_, symObjAddr: 0xBAB50, symBinAddr: 0x1000BC154, symSize: 0x34 }
  - { offsetInCU: 0xBCA50, offset: 0xBCA50, size: 0x8, addend: 0x0, symName: __ZNSt3__113__rewrap_iterB8ue170006INS_11__wrap_iterIPN5Catch11MessageInfoEEES4_NS_18__unwrap_iter_implIS5_Lb1EEEEET_S8_T0_, symObjAddr: 0xBAC18, symBinAddr: 0x1000BC21C, symSize: 0x4C }
  - { offsetInCU: 0xBCAA8, offset: 0xBCAA8, size: 0x8, addend: 0x0, symName: __ZNSt3__111__find_implB8ue170006IPN5Catch11MessageInfoES3_S2_NS_10__identityEEET_S5_T0_RKT1_RT2_, symObjAddr: 0xBAC64, symBinAddr: 0x1000BC268, symSize: 0x7C }
  - { offsetInCU: 0xBCB27, offset: 0xBCB27, size: 0x8, addend: 0x0, symName: __ZNSt3__113__unwrap_iterB8ue170006INS_11__wrap_iterIPN5Catch11MessageInfoEEENS_18__unwrap_iter_implIS5_Lb1EEELi0EEEDTclsrT0_8__unwrapclsr3stdE7declvalIT_EEEES9_, symObjAddr: 0xBACE0, symBinAddr: 0x1000BC2E4, symSize: 0x2C }
  - { offsetInCU: 0xBCBC6, offset: 0xBCBC6, size: 0x8, addend: 0x0, symName: __ZNSt3__112__to_addressB8ue170006INS_11__wrap_iterIPN5Catch11MessageInfoEEEvEEu7__decayIDTclsr19__to_address_helperIT_EE6__callclsr3stdE7declvalIRKS6_EEEEES8_, symObjAddr: 0xBADA4, symBinAddr: 0x1000BC3A8, symSize: 0x24 }
  - { offsetInCU: 0xBCCAC, offset: 0xBCCAC, size: 0x8, addend: 0x0, symName: __ZNSt3__18__invokeB8ue170006IRNS_10__identityEJRN5Catch11MessageInfoEEEEDTclclsr3stdE7declvalIT_EEspclsr3stdE7declvalIT0_EEEEOS6_DpOS7_, symObjAddr: 0xBAE4C, symBinAddr: 0x1000BC450, symSize: 0x2C }
  - { offsetInCU: 0xBCD00, offset: 0xBCD00, size: 0x8, addend: 0x0, symName: __ZNSt3__1eqB8ue170006IPN5Catch11MessageInfoEEEbRKNS_11__wrap_iterIT_EES8_, symObjAddr: 0xBAEB8, symBinAddr: 0x1000BC4BC, symSize: 0x48 }
  - { offsetInCU: 0xBCD46, offset: 0xBCD46, size: 0x8, addend: 0x0, symName: __ZNSt3__1miB8ue170006IPKN5Catch11MessageInfoEPS2_EEDTmicldtfp_4baseEcldtfp0_4baseEERKNS_11__wrap_iterIT_EERKNS7_IT0_EE, symObjAddr: 0xBAF00, symBinAddr: 0x1000BC504, symSize: 0x48 }
  - { offsetInCU: 0xBCD95, offset: 0xBCD95, size: 0x8, addend: 0x0, symName: __ZNSt3__14moveB8ue170006IPN5Catch11MessageInfoES3_EET0_T_S5_S4_, symObjAddr: 0xBAF94, symBinAddr: 0x1000BC598, symSize: 0x40 }
  - { offsetInCU: 0xBCDF3, offset: 0xBCDF3, size: 0x8, addend: 0x0, symName: __ZNSt3__16__moveB8ue170006INS_17_ClassicAlgPolicyEPN5Catch11MessageInfoES4_S4_EENS_4pairIT0_T2_EES6_T1_S7_, symObjAddr: 0xBAFD4, symBinAddr: 0x1000BC5D8, symSize: 0x44 }
  - { offsetInCU: 0xBCE63, offset: 0xBCE63, size: 0x8, addend: 0x0, symName: __ZNSt3__123__dispatch_copy_or_moveB8ue170006INS_17_ClassicAlgPolicyENS_11__move_loopIS1_EENS_14__move_trivialEPN5Catch11MessageInfoES7_S7_EENS_4pairIT2_T4_EES9_T3_SA_, symObjAddr: 0xBB018, symBinAddr: 0x1000BC61C, symSize: 0x44 }
  - { offsetInCU: 0xBCEE5, offset: 0xBCEE5, size: 0x8, addend: 0x0, symName: __ZNSt3__121__unwrap_and_dispatchB8ue170006INS_10__overloadINS_11__move_loopINS_17_ClassicAlgPolicyEEENS_14__move_trivialEEEPN5Catch11MessageInfoES9_S9_Li0EEENS_4pairIT0_T2_EESB_T1_SC_, symObjAddr: 0xBB05C, symBinAddr: 0x1000BC660, symSize: 0xB4 }
  - { offsetInCU: 0xBCF7A, offset: 0xBCF7A, size: 0x8, addend: 0x0, symName: __ZNSt3__114__rewrap_rangeB8ue170006IPN5Catch11MessageInfoES3_EET_S4_T0_, symObjAddr: 0xBB1A0, symBinAddr: 0x1000BC7A4, symSize: 0x2C }
  - { offsetInCU: 0xBCFF0, offset: 0xBCFF0, size: 0x8, addend: 0x0, symName: __ZNSt3__119__allocate_at_leastB8ue170006INS_9allocatorIN5Catch13ScopedMessageEEEEENS_19__allocation_resultINS_16allocator_traitsIT_E7pointerEEERS7_m, symObjAddr: 0xBB984, symBinAddr: 0x1000BCF88, symSize: 0x40 }
  - { offsetInCU: 0xBD035, offset: 0xBD035, size: 0x8, addend: 0x0, symName: __ZNSt3__142__uninitialized_allocator_move_if_noexceptB8ue170006INS_9allocatorIN5Catch13ScopedMessageEEENS_16reverse_iteratorIPS3_EES7_S7_EET2_RT_T0_T1_S8_, symObjAddr: 0xBBB3C, symBinAddr: 0x1000BD140, symSize: 0x12C }
  - { offsetInCU: 0xBD0D6, offset: 0xBD0D6, size: 0x8, addend: 0x0, symName: __ZNSt3__14swapB8ue170006IPN5Catch13ScopedMessageEEENS_9enable_ifIXaasr21is_move_constructibleIT_EE5valuesr18is_move_assignableIS5_EE5valueEvE4typeERS5_S8_, symObjAddr: 0xBBCB4, symBinAddr: 0x1000BD2B8, symSize: 0x3C }
  - { offsetInCU: 0xBD12B, offset: 0xBD12B, size: 0x8, addend: 0x0, symName: __ZNSt3__122__make_exception_guardB8ue170006INS_29_AllocatorDestroyRangeReverseINS_9allocatorIN5Catch13ScopedMessageEEENS_16reverse_iteratorIPS4_EEEEEENS_28__exception_guard_exceptionsIT_EESB_, symObjAddr: 0xBBDB8, symBinAddr: 0x1000BD3BC, symSize: 0x4C }
  - { offsetInCU: 0xBD163, offset: 0xBD163, size: 0x8, addend: 0x0, symName: __ZNSt3__1neB8ue170006IPN5Catch13ScopedMessageES3_EEbRKNS_16reverse_iteratorIT_EERKNS4_IT0_EE, symObjAddr: 0xBBE48, symBinAddr: 0x1000BD44C, symSize: 0x48 }
  - { offsetInCU: 0xBD1B2, offset: 0xBD1B2, size: 0x8, addend: 0x0, symName: __ZNSt3__112__to_addressB8ue170006INS_16reverse_iteratorIPN5Catch13ScopedMessageEEEvEEu7__decayIDTclsr19__to_address_helperIT_EE6__callclsr3stdE7declvalIRKS6_EEEEES8_, symObjAddr: 0xBBEC4, symBinAddr: 0x1000BD4C8, symSize: 0x24 }
  - { offsetInCU: 0xBD214, offset: 0xBD214, size: 0x8, addend: 0x0, symName: __ZNSt3__119__allocator_destroyB8ue170006INS_9allocatorIN5Catch13ScopedMessageEEENS_16reverse_iteratorINS5_IPS3_EEEES8_EEvRT_T0_T1_, symObjAddr: 0xBC1A4, symBinAddr: 0x1000BD7A8, symSize: 0x70 }
  - { offsetInCU: 0xBD27A, offset: 0xBD27A, size: 0x8, addend: 0x0, symName: __ZNSt3__1neB8ue170006INS_16reverse_iteratorIPN5Catch13ScopedMessageEEES5_EEbRKNS1_IT_EERKNS1_IT0_EE, symObjAddr: 0xBC250, symBinAddr: 0x1000BD854, symSize: 0x60 }
  - { offsetInCU: 0xBD2C9, offset: 0xBD2C9, size: 0x8, addend: 0x0, symName: __ZNSt3__112__to_addressB8ue170006INS_16reverse_iteratorINS1_IPN5Catch13ScopedMessageEEEEEvEEu7__decayIDTclsr19__to_address_helperIT_EE6__callclsr3stdE7declvalIRKS7_EEEEES9_, symObjAddr: 0xBC2B0, symBinAddr: 0x1000BD8B4, symSize: 0x24 }
  - { offsetInCU: 0xBD32C, offset: 0xBD32C, size: 0x8, addend: 0x0, symName: __ZNSt3__14swapB8ue170006IPN5Catch6ConfigEEENS_9enable_ifIXaasr21is_move_constructibleIT_EE5valuesr18is_move_assignableIS5_EE5valueEvE4typeERS5_S8_, symObjAddr: 0xBCAF0, symBinAddr: 0x1000BE0F4, symSize: 0x3C }
  - { offsetInCU: 0xBD380, offset: 0xBD380, size: 0x8, addend: 0x0, symName: __ZNSt3__115allocate_sharedB8ue170006IN5Catch6ConfigENS_9allocatorIS2_EEJRNS1_10ConfigDataEEvEENS_10shared_ptrIT_EERKT0_DpOT1_, symObjAddr: 0xBCB44, symBinAddr: 0x1000BE148, symSize: 0x98 }
  - { offsetInCU: 0xBD756, offset: 0xBD756, size: 0x8, addend: 0x0, symName: __ZNSt3__112__to_addressB8ue170006IPN5Catch10ISingletonEEEPT_S5_, symObjAddr: 0xBD6F0, symBinAddr: 0x1000BECF4, symSize: 0x14 }
  - { offsetInCU: 0xBD78D, offset: 0xBD78D, size: 0x8, addend: 0x0, symName: __ZNSt3__119__allocate_at_leastB8ue170006INS_9allocatorIPN5Catch10ISingletonEEEEENS_19__allocation_resultINS_16allocator_traitsIT_E7pointerEEERS8_m, symObjAddr: 0xBDD14, symBinAddr: 0x1000BF318, symSize: 0x40 }
  - { offsetInCU: 0xBD7D2, offset: 0xBD7D2, size: 0x8, addend: 0x0, symName: __ZNSt3__142__uninitialized_allocator_move_if_noexceptB8ue170006INS_9allocatorIPN5Catch10ISingletonEEENS_16reverse_iteratorIPS4_EES8_S4_vEET1_RT_T0_SC_S9_, symObjAddr: 0xBDF80, symBinAddr: 0x1000BF584, symSize: 0x78 }
  - { offsetInCU: 0xBD850, offset: 0xBD850, size: 0x8, addend: 0x0, symName: __ZNSt3__14swapB8ue170006IPPN5Catch10ISingletonEEENS_9enable_ifIXaasr21is_move_constructibleIT_EE5valuesr18is_move_assignableIS6_EE5valueEvE4typeERS6_S9_, symObjAddr: 0xBE044, symBinAddr: 0x1000BF648, symSize: 0x3C }
  - { offsetInCU: 0xBD8A5, offset: 0xBD8A5, size: 0x8, addend: 0x0, symName: __ZNSt3__14moveB8ue170006INS_16reverse_iteratorIPPN5Catch10ISingletonEEES6_EET0_T_S8_S7_, symObjAddr: 0xBE174, symBinAddr: 0x1000BF778, symSize: 0x78 }
  - { offsetInCU: 0xBD903, offset: 0xBD903, size: 0x8, addend: 0x0, symName: __ZNSt3__16__moveB8ue170006INS_17_ClassicAlgPolicyENS_16reverse_iteratorIPPN5Catch10ISingletonEEES7_S7_EENS_4pairIT0_T2_EES9_T1_SA_, symObjAddr: 0xBE1EC, symBinAddr: 0x1000BF7F0, symSize: 0x64 }
  - { offsetInCU: 0xBD973, offset: 0xBD973, size: 0x8, addend: 0x0, symName: __ZNSt3__123__dispatch_copy_or_moveB8ue170006INS_17_ClassicAlgPolicyENS_11__move_loopIS1_EENS_14__move_trivialENS_16reverse_iteratorIPPN5Catch10ISingletonEEESA_SA_EENS_4pairIT2_T4_EESC_T3_SD_, symObjAddr: 0xBE250, symBinAddr: 0x1000BF854, symSize: 0x64 }
  - { offsetInCU: 0xBD9F5, offset: 0xBD9F5, size: 0x8, addend: 0x0, symName: __ZNSt3__121__unwrap_and_dispatchB8ue170006INS_10__overloadINS_11__move_loopINS_17_ClassicAlgPolicyEEENS_14__move_trivialEEENS_16reverse_iteratorIPPN5Catch10ISingletonEEESC_SC_Li0EEENS_4pairIT0_T2_EESE_T1_SF_, symObjAddr: 0xBE2B4, symBinAddr: 0x1000BF8B8, symSize: 0x12C }
  - { offsetInCU: 0xBDA8C, offset: 0xBDA8C, size: 0x8, addend: 0x0, symName: __ZNSt3__114__unwrap_rangeB8ue170006INS_16reverse_iteratorIPPN5Catch10ISingletonEEES6_EENS_4pairIT0_S8_EET_SA_, symObjAddr: 0xBE3E0, symBinAddr: 0x1000BF9E4, symSize: 0x84 }
  - { offsetInCU: 0xBDBB6, offset: 0xBDBB6, size: 0x8, addend: 0x0, symName: __ZNSt3__113__unwrap_iterB8ue170006INS_16reverse_iteratorIPPN5Catch10ISingletonEEENS_18__unwrap_iter_implIS6_Lb0EEELi0EEEDTclsrT0_8__unwrapclsr3stdE7declvalIT_EEEESA_, symObjAddr: 0xBE504, symBinAddr: 0x1000BFB08, symSize: 0x44 }
  - { offsetInCU: 0xBDBFC, offset: 0xBDBFC, size: 0x8, addend: 0x0, symName: __ZNSt3__19make_pairB8ue170006INS_16reverse_iteratorIPPN5Catch10ISingletonEEES6_EENS_4pairINS_18__unwrap_ref_decayIT_E4typeENS8_IT0_E4typeEEEOS9_OSC_, symObjAddr: 0xBE548, symBinAddr: 0x1000BFB4C, symSize: 0x38 }
  - { offsetInCU: 0xBDC4C, offset: 0xBDC4C, size: 0x8, addend: 0x0, symName: __ZNSt3__114__rewrap_rangeB8ue170006INS_16reverse_iteratorIPPN5Catch10ISingletonEEES6_EET_S7_T0_, symObjAddr: 0xBE580, symBinAddr: 0x1000BFB84, symSize: 0x5C }
  - { offsetInCU: 0xBDC9B, offset: 0xBDC9B, size: 0x8, addend: 0x0, symName: __ZNSt3__113__rewrap_iterB8ue170006INS_16reverse_iteratorIPPN5Catch10ISingletonEEES6_NS_18__unwrap_iter_implIS6_Lb0EEEEET_S9_T0_, symObjAddr: 0xBE5DC, symBinAddr: 0x1000BFBE0, symSize: 0x74 }
  - { offsetInCU: 0xBDCF3, offset: 0xBDCF3, size: 0x8, addend: 0x0, symName: __ZNSt3__1neB8ue170006IPPN5Catch10ISingletonES4_EEbRKNS_16reverse_iteratorIT_EERKNS5_IT0_EE, symObjAddr: 0xBE650, symBinAddr: 0x1000BFC54, symSize: 0x48 }
  - { offsetInCU: 0xBDDB5, offset: 0xBDDB5, size: 0x8, addend: 0x0, symName: __ZNSt3__119__allocate_at_leastB8ue170006INS_9allocatorISt13exception_ptrEEEENS_19__allocation_resultINS_16allocator_traitsIT_E7pointerEEERS6_m, symObjAddr: 0xBF444, symBinAddr: 0x1000C0A48, symSize: 0x40 }
  - { offsetInCU: 0xBDDFA, offset: 0xBDDFA, size: 0x8, addend: 0x0, symName: __ZNSt3__142__uninitialized_allocator_move_if_noexceptB8ue170006INS_9allocatorISt13exception_ptrEENS_16reverse_iteratorIPS2_EES6_S6_EET2_RT_T0_T1_S7_, symObjAddr: 0xBF5F8, symBinAddr: 0x1000C0BFC, symSize: 0x12C }
  - { offsetInCU: 0xBDE9B, offset: 0xBDE9B, size: 0x8, addend: 0x0, symName: __ZNSt3__14swapB8ue170006IPSt13exception_ptrEENS_9enable_ifIXaasr21is_move_constructibleIT_EE5valuesr18is_move_assignableIS4_EE5valueEvE4typeERS4_S7_, symObjAddr: 0xBF770, symBinAddr: 0x1000C0D74, symSize: 0x3C }
  - { offsetInCU: 0xBDEF0, offset: 0xBDEF0, size: 0x8, addend: 0x0, symName: __ZNSt3__122__make_exception_guardB8ue170006INS_29_AllocatorDestroyRangeReverseINS_9allocatorISt13exception_ptrEENS_16reverse_iteratorIPS3_EEEEEENS_28__exception_guard_exceptionsIT_EESA_, symObjAddr: 0xBF858, symBinAddr: 0x1000C0E5C, symSize: 0x4C }
  - { offsetInCU: 0xBDF28, offset: 0xBDF28, size: 0x8, addend: 0x0, symName: __ZNSt3__1neB8ue170006IPSt13exception_ptrS2_EEbRKNS_16reverse_iteratorIT_EERKNS3_IT0_EE, symObjAddr: 0xBF8E8, symBinAddr: 0x1000C0EEC, symSize: 0x48 }
  - { offsetInCU: 0xBDF77, offset: 0xBDF77, size: 0x8, addend: 0x0, symName: __ZNSt3__112__to_addressB8ue170006INS_16reverse_iteratorIPSt13exception_ptrEEvEEu7__decayIDTclsr19__to_address_helperIT_EE6__callclsr3stdE7declvalIRKS5_EEEEES7_, symObjAddr: 0xBF964, symBinAddr: 0x1000C0F68, symSize: 0x24 }
  - { offsetInCU: 0xBDFD9, offset: 0xBDFD9, size: 0x8, addend: 0x0, symName: __ZNSt3__119__allocator_destroyB8ue170006INS_9allocatorISt13exception_ptrEENS_16reverse_iteratorINS4_IPS2_EEEES7_EEvRT_T0_T1_, symObjAddr: 0xBFC44, symBinAddr: 0x1000C1248, symSize: 0x70 }
  - { offsetInCU: 0xBE03F, offset: 0xBE03F, size: 0x8, addend: 0x0, symName: __ZNSt3__1neB8ue170006INS_16reverse_iteratorIPSt13exception_ptrEES4_EEbRKNS1_IT_EERKNS1_IT0_EE, symObjAddr: 0xBFCF0, symBinAddr: 0x1000C12F4, symSize: 0x60 }
  - { offsetInCU: 0xBE08E, offset: 0xBE08E, size: 0x8, addend: 0x0, symName: __ZNSt3__112__to_addressB8ue170006INS_16reverse_iteratorINS1_IPSt13exception_ptrEEEEvEEu7__decayIDTclsr19__to_address_helperIT_EE6__callclsr3stdE7declvalIRKS6_EEEEES8_, symObjAddr: 0xBFD50, symBinAddr: 0x1000C1354, symSize: 0x24 }
  - { offsetInCU: 0xBE0F1, offset: 0xBE0F1, size: 0x8, addend: 0x0, symName: __ZNSt3__119__allocate_at_leastB8ue170006INS_9allocatorImEEEENS_19__allocation_resultINS_16allocator_traitsIT_E7pointerEEERS5_m, symObjAddr: 0xC0800, symBinAddr: 0x1000C1E04, symSize: 0x40 }
  - { offsetInCU: 0xBE136, offset: 0xBE136, size: 0x8, addend: 0x0, symName: __ZNSt3__142__uninitialized_allocator_move_if_noexceptB8ue170006INS_9allocatorImEENS_16reverse_iteratorIPmEES5_mvEET1_RT_T0_S9_S6_, symObjAddr: 0xC09D0, symBinAddr: 0x1000C1FD4, symSize: 0x78 }
  - { offsetInCU: 0xBE1B4, offset: 0xBE1B4, size: 0x8, addend: 0x0, symName: __ZNSt3__14swapB8ue170006IPmEENS_9enable_ifIXaasr21is_move_constructibleIT_EE5valuesr18is_move_assignableIS3_EE5valueEvE4typeERS3_S6_, symObjAddr: 0xC0A94, symBinAddr: 0x1000C2098, symSize: 0x3C }
  - { offsetInCU: 0xBE209, offset: 0xBE209, size: 0x8, addend: 0x0, symName: __ZNSt3__14moveB8ue170006INS_16reverse_iteratorIPmEES3_EET0_T_S5_S4_, symObjAddr: 0xC0B7C, symBinAddr: 0x1000C2180, symSize: 0x78 }
  - { offsetInCU: 0xBE267, offset: 0xBE267, size: 0x8, addend: 0x0, symName: __ZNSt3__16__moveB8ue170006INS_17_ClassicAlgPolicyENS_16reverse_iteratorIPmEES4_S4_EENS_4pairIT0_T2_EES6_T1_S7_, symObjAddr: 0xC0BF4, symBinAddr: 0x1000C21F8, symSize: 0x64 }
  - { offsetInCU: 0xBE2D7, offset: 0xBE2D7, size: 0x8, addend: 0x0, symName: __ZNSt3__123__dispatch_copy_or_moveB8ue170006INS_17_ClassicAlgPolicyENS_11__move_loopIS1_EENS_14__move_trivialENS_16reverse_iteratorIPmEES7_S7_EENS_4pairIT2_T4_EES9_T3_SA_, symObjAddr: 0xC0C58, symBinAddr: 0x1000C225C, symSize: 0x64 }
  - { offsetInCU: 0xBE359, offset: 0xBE359, size: 0x8, addend: 0x0, symName: __ZNSt3__121__unwrap_and_dispatchB8ue170006INS_10__overloadINS_11__move_loopINS_17_ClassicAlgPolicyEEENS_14__move_trivialEEENS_16reverse_iteratorIPmEES9_S9_Li0EEENS_4pairIT0_T2_EESB_T1_SC_, symObjAddr: 0xC0CBC, symBinAddr: 0x1000C22C0, symSize: 0x12C }
  - { offsetInCU: 0xBE3F0, offset: 0xBE3F0, size: 0x8, addend: 0x0, symName: __ZNSt3__114__unwrap_rangeB8ue170006INS_16reverse_iteratorIPmEES3_EENS_4pairIT0_S5_EET_S7_, symObjAddr: 0xC0DE8, symBinAddr: 0x1000C23EC, symSize: 0x84 }
  - { offsetInCU: 0xBE51A, offset: 0xBE51A, size: 0x8, addend: 0x0, symName: __ZNSt3__113__unwrap_iterB8ue170006INS_16reverse_iteratorIPmEENS_18__unwrap_iter_implIS3_Lb0EEELi0EEEDTclsrT0_8__unwrapclsr3stdE7declvalIT_EEEES7_, symObjAddr: 0xC0F0C, symBinAddr: 0x1000C2510, symSize: 0x44 }
  - { offsetInCU: 0xBE560, offset: 0xBE560, size: 0x8, addend: 0x0, symName: __ZNSt3__19make_pairB8ue170006INS_16reverse_iteratorIPmEES3_EENS_4pairINS_18__unwrap_ref_decayIT_E4typeENS5_IT0_E4typeEEEOS6_OS9_, symObjAddr: 0xC0F50, symBinAddr: 0x1000C2554, symSize: 0x38 }
  - { offsetInCU: 0xBE5B0, offset: 0xBE5B0, size: 0x8, addend: 0x0, symName: __ZNSt3__114__rewrap_rangeB8ue170006INS_16reverse_iteratorIPmEES3_EET_S4_T0_, symObjAddr: 0xC0F88, symBinAddr: 0x1000C258C, symSize: 0x5C }
  - { offsetInCU: 0xBE5FF, offset: 0xBE5FF, size: 0x8, addend: 0x0, symName: __ZNSt3__113__rewrap_iterB8ue170006INS_16reverse_iteratorIPmEES3_NS_18__unwrap_iter_implIS3_Lb0EEEEET_S6_T0_, symObjAddr: 0xC0FE4, symBinAddr: 0x1000C25E8, symSize: 0x74 }
  - { offsetInCU: 0xBE657, offset: 0xBE657, size: 0x8, addend: 0x0, symName: __ZNSt3__1neB8ue170006IPmS1_EEbRKNS_16reverse_iteratorIT_EERKNS2_IT0_EE, symObjAddr: 0xC1058, symBinAddr: 0x1000C265C, symSize: 0x48 }
  - { offsetInCU: 0xBE719, offset: 0xBE719, size: 0x8, addend: 0x0, symName: __ZNSt3__15equalB8ue170006INS_11__wrap_iterIPKcEES4_NS_10__equal_toEEEbT_S6_T0_T1_, symObjAddr: 0xC19DC, symBinAddr: 0x1000C2FE0, symSize: 0x74 }
  - { offsetInCU: 0xBE78F, offset: 0xBE78F, size: 0x8, addend: 0x0, symName: __ZNSt3__15equalB8ue170006INS_16reverse_iteratorINS_11__wrap_iterIPKcEEEES6_NS_10__equal_toEEEbT_S8_T0_T1_, symObjAddr: 0xC1AAC, symBinAddr: 0x1000C30B0, symSize: 0xA8 }
  - { offsetInCU: 0xBE805, offset: 0xBE805, size: 0x8, addend: 0x0, symName: __ZNSt3__117__equal_iter_implB8ue170006INS_16reverse_iteratorINS_11__wrap_iterIPKcEEEES6_NS_10__equal_toEEEbT_S8_T0_RT1_, symObjAddr: 0xC1B54, symBinAddr: 0x1000C3158, symSize: 0xC8 }
  - { offsetInCU: 0xBE87B, offset: 0xBE87B, size: 0x8, addend: 0x0, symName: __ZNSt3__113__unwrap_iterB8ue170006INS_16reverse_iteratorINS_11__wrap_iterIPKcEEEENS_18__unwrap_iter_implIS6_Lb0EEELi0EEEDTclsrT0_8__unwrapclsr3stdE7declvalIT_EEEESA_, symObjAddr: 0xC1C1C, symBinAddr: 0x1000C3220, symSize: 0x44 }
  - { offsetInCU: 0xBE8C2, offset: 0xBE8C2, size: 0x8, addend: 0x0, symName: __ZNSt3__1neB8ue170006INS_11__wrap_iterIPKcEES4_EEbRKNS_16reverse_iteratorIT_EERKNS5_IT0_EE, symObjAddr: 0xC1C60, symBinAddr: 0x1000C3264, symSize: 0x54 }
  - { offsetInCU: 0xBE95C, offset: 0xBE95C, size: 0x8, addend: 0x0, symName: __ZNSt3__110__str_findB8ue170006IcmNS_11char_traitsIcEELm18446744073709551615EEET0_PKT_S3_S6_S3_S3_, symObjAddr: 0xC1D7C, symBinAddr: 0x1000C3380, symSize: 0xE4 }
  - { offsetInCU: 0xBEA04, offset: 0xBEA04, size: 0x8, addend: 0x0, symName: __ZNSt3__118__search_substringB8ue170006IcNS_11char_traitsIcEEEEPKT_S5_S5_S5_S5_, symObjAddr: 0xC1E60, symBinAddr: 0x1000C3464, symSize: 0x154 }
  - { offsetInCU: 0xBEA9E, offset: 0xBEA9E, size: 0x8, addend: 0x0, symName: __ZNSt3__123__str_find_first_not_ofB8ue170006IcmNS_11char_traitsIcEELm18446744073709551615EEET0_PKT_S3_S6_S3_S3_, symObjAddr: 0xC1FB4, symBinAddr: 0x1000C35B8, symSize: 0xDC }
  - { offsetInCU: 0xBEB71, offset: 0xBEB71, size: 0x8, addend: 0x0, symName: __ZNSt3__122__str_find_last_not_ofB8ue170006IcmNS_11char_traitsIcEELm18446744073709551615EEET0_PKT_S3_S6_S3_S3_, symObjAddr: 0xC2090, symBinAddr: 0x1000C3694, symSize: 0xDC }
  - { offsetInCU: 0xBEC27, offset: 0xBEC27, size: 0x8, addend: 0x0, symName: __ZNSt3__17launderB8ue170006INS_4pairIKNS_12basic_stringIcNS_11char_traitsIcEENS_9allocatorIcEEEEN5Catch8TagAliasEEEEEPT_SD_, symObjAddr: 0xC2438, symBinAddr: 0x1000C3A3C, symSize: 0x24 }
  - { offsetInCU: 0xBEC5E, offset: 0xBEC5E, size: 0x8, addend: 0x0, symName: __ZNSt3__19__launderB8ue170006INS_4pairIKNS_12basic_stringIcNS_11char_traitsIcEENS_9allocatorIcEEEEN5Catch8TagAliasEEEEEPT_SD_, symObjAddr: 0xC245C, symBinAddr: 0x1000C3A60, symSize: 0x14 }
  - { offsetInCU: 0xBEC95, offset: 0xBEC95, size: 0x8, addend: 0x0, symName: __ZNSt3__1neB8ue170006ERKNS_21__tree_const_iteratorINS_12__value_typeINS_12basic_stringIcNS_11char_traitsIcEENS_9allocatorIcEEEEN5Catch8TagAliasEEEPNS_11__tree_nodeISA_PvEElEESH_, symObjAddr: 0xC26D4, symBinAddr: 0x1000C3CD8, symSize: 0x34 }
  - { offsetInCU: 0xBECD2, offset: 0xBECD2, size: 0x8, addend: 0x0, symName: __ZNSt3__17launderB8ue170006IKNS_4pairIKNS_12basic_stringIcNS_11char_traitsIcEENS_9allocatorIcEEEEN5Catch8TagAliasEEEEEPT_SE_, symObjAddr: 0xC287C, symBinAddr: 0x1000C3E80, symSize: 0x24 }
  - { offsetInCU: 0xBED09, offset: 0xBED09, size: 0x8, addend: 0x0, symName: __ZNSt3__19__launderB8ue170006IKNS_4pairIKNS_12basic_stringIcNS_11char_traitsIcEENS_9allocatorIcEEEEN5Catch8TagAliasEEEEEPT_SE_, symObjAddr: 0xC28A0, symBinAddr: 0x1000C3EA4, symSize: 0x14 }
  - { offsetInCU: 0xBED40, offset: 0xBED40, size: 0x8, addend: 0x0, symName: __ZNSt3__1eqB8ue170006ERKNS_21__tree_const_iteratorINS_12__value_typeINS_12basic_stringIcNS_11char_traitsIcEENS_9allocatorIcEEEEN5Catch8TagAliasEEEPNS_11__tree_nodeISA_PvEElEESH_, symObjAddr: 0xC28D4, symBinAddr: 0x1000C3ED8, symSize: 0x30 }
  - { offsetInCU: 0xBEE0A, offset: 0xBEE0A, size: 0x8, addend: 0x0, symName: __ZNSt3__18distanceB8ue170006IPKNS_12basic_stringIcNS_11char_traitsIcEENS_9allocatorIcEEEEEENS_15iterator_traitsIT_E15difference_typeESA_SA_, symObjAddr: 0xC3B74, symBinAddr: 0x1000C5178, symSize: 0x2C }
  - { offsetInCU: 0xBEE50, offset: 0xBEE50, size: 0x8, addend: 0x0, symName: __ZNSt3__1miB8ue170006IPKNS_12basic_stringIcNS_11char_traitsIcEENS_9allocatorIcEEEEPS6_EEDTmicldtfp_4baseEcldtfp0_4baseEERKNS_11__wrap_iterIT_EERKNSB_IT0_EE, symObjAddr: 0xC3BA0, symBinAddr: 0x1000C51A4, symSize: 0x48 }
  - { offsetInCU: 0xBEE9F, offset: 0xBEE9F, size: 0x8, addend: 0x0, symName: __ZNSt3__14nextB8ue170006IPKNS_12basic_stringIcNS_11char_traitsIcEENS_9allocatorIcEEEEEENS_9enable_ifIXsr29__has_input_iterator_categoryIT_EE5valueESA_E4typeESA_NS_15iterator_traitsISA_E15difference_typeE, symObjAddr: 0xC3BE8, symBinAddr: 0x1000C51EC, symSize: 0x34 }
  - { offsetInCU: 0xBEEE5, offset: 0xBEEE5, size: 0x8, addend: 0x0, symName: __ZNSt3__14copyB8ue170006IPKNS_12basic_stringIcNS_11char_traitsIcEENS_9allocatorIcEEEEPS6_EET0_T_SB_SA_, symObjAddr: 0xC3E1C, symBinAddr: 0x1000C5420, symSize: 0x40 }
  - { offsetInCU: 0xBEF43, offset: 0xBEF43, size: 0x8, addend: 0x0, symName: __ZNSt3__19__advanceB8ue170006IPKNS_12basic_stringIcNS_11char_traitsIcEENS_9allocatorIcEEEEEEvRT_NS_15iterator_traitsIS9_E15difference_typeENS_26random_access_iterator_tagE, symObjAddr: 0xC4070, symBinAddr: 0x1000C5674, symSize: 0x30 }
  - { offsetInCU: 0xBEF8F, offset: 0xBEF8F, size: 0x8, addend: 0x0, symName: __ZNSt3__130__uninitialized_allocator_copyB8ue170006INS_9allocatorINS_12basic_stringIcNS_11char_traitsIcEENS1_IcEEEEEEPKS6_S9_PS6_EET2_RT_T0_T1_SB_, symObjAddr: 0xC40A0, symBinAddr: 0x1000C56A4, symSize: 0x80 }
  - { offsetInCU: 0xBF02D, offset: 0xBF02D, size: 0x8, addend: 0x0, symName: __ZNSt3__114__unwrap_rangeB8ue170006IPKNS_12basic_stringIcNS_11char_traitsIcEENS_9allocatorIcEEEES8_EENS_4pairIT0_SA_EET_SC_, symObjAddr: 0xC4120, symBinAddr: 0x1000C5724, symSize: 0x60 }
  - { offsetInCU: 0xBF07B, offset: 0xBF07B, size: 0x8, addend: 0x0, symName: __ZNSt3__135__uninitialized_allocator_copy_implB8ue170006INS_9allocatorINS_12basic_stringIcNS_11char_traitsIcEENS1_IcEEEEEEPKS6_S9_PS6_EET2_RT_T0_T1_SB_, symObjAddr: 0xC4180, symBinAddr: 0x1000C5784, symSize: 0xF4 }
  - { offsetInCU: 0xBF119, offset: 0xBF119, size: 0x8, addend: 0x0, symName: __ZNSt3__19make_pairB8ue170006IPKNS_12basic_stringIcNS_11char_traitsIcEENS_9allocatorIcEEEES8_EENS_4pairINS_18__unwrap_ref_decayIT_E4typeENSA_IT0_E4typeEEEOSB_OSE_, symObjAddr: 0xC4274, symBinAddr: 0x1000C5878, symSize: 0x38 }
  - { offsetInCU: 0xBF169, offset: 0xBF169, size: 0x8, addend: 0x0, symName: __ZNSt3__113__unwrap_iterB8ue170006IPKNS_12basic_stringIcNS_11char_traitsIcEENS_9allocatorIcEEEENS_18__unwrap_iter_implIS8_Lb1EEELi0EEEDTclsrT0_8__unwrapclsr3stdE7declvalIT_EEEESC_, symObjAddr: 0xC42AC, symBinAddr: 0x1000C58B0, symSize: 0x24 }
  - { offsetInCU: 0xBF2E3, offset: 0xBF2E3, size: 0x8, addend: 0x0, symName: __ZNSt3__113move_backwardB8ue170006IPNS_12basic_stringIcNS_11char_traitsIcEENS_9allocatorIcEEEES7_EET0_T_S9_S8_, symObjAddr: 0xC4364, symBinAddr: 0x1000C5968, symSize: 0x40 }
  - { offsetInCU: 0xBF341, offset: 0xBF341, size: 0x8, addend: 0x0, symName: __ZNSt3__115__move_backwardB8ue170006INS_17_ClassicAlgPolicyEPNS_12basic_stringIcNS_11char_traitsIcEENS_9allocatorIcEEEES8_S8_EENS_4pairIT0_T2_EESA_T1_SB_, symObjAddr: 0xC43A4, symBinAddr: 0x1000C59A8, symSize: 0x44 }
  - { offsetInCU: 0xBF3B1, offset: 0xBF3B1, size: 0x8, addend: 0x0, symName: __ZNSt3__123__dispatch_copy_or_moveB8ue170006INS_17_ClassicAlgPolicyENS_20__move_backward_loopIS1_EENS_23__move_backward_trivialEPNS_12basic_stringIcNS_11char_traitsIcEENS_9allocatorIcEEEESB_SB_EENS_4pairIT2_T4_EESD_T3_SE_, symObjAddr: 0xC43E8, symBinAddr: 0x1000C59EC, symSize: 0x44 }
  - { offsetInCU: 0xBF433, offset: 0xBF433, size: 0x8, addend: 0x0, symName: __ZNSt3__121__unwrap_and_dispatchB8ue170006INS_10__overloadINS_20__move_backward_loopINS_17_ClassicAlgPolicyEEENS_23__move_backward_trivialEEEPNS_12basic_stringIcNS_11char_traitsIcEENS_9allocatorIcEEEESD_SD_Li0EEENS_4pairIT0_T2_EESF_T1_SG_, symObjAddr: 0xC442C, symBinAddr: 0x1000C5A30, symSize: 0xB4 }
  - { offsetInCU: 0xBF4C8, offset: 0xBF4C8, size: 0x8, addend: 0x0, symName: __ZNSt3__16__copyB8ue170006INS_17_ClassicAlgPolicyEPKNS_12basic_stringIcNS_11char_traitsIcEENS_9allocatorIcEEEES9_PS7_EENS_4pairIT0_T2_EESC_T1_SD_, symObjAddr: 0xC459C, symBinAddr: 0x1000C5BA0, symSize: 0x44 }
  - { offsetInCU: 0xBF538, offset: 0xBF538, size: 0x8, addend: 0x0, symName: __ZNSt3__123__dispatch_copy_or_moveB8ue170006INS_17_ClassicAlgPolicyENS_11__copy_loopIS1_EENS_14__copy_trivialEPKNS_12basic_stringIcNS_11char_traitsIcEENS_9allocatorIcEEEESC_PSA_EENS_4pairIT2_T4_EESF_T3_SG_, symObjAddr: 0xC45E0, symBinAddr: 0x1000C5BE4, symSize: 0x44 }
  - { offsetInCU: 0xBF5BA, offset: 0xBF5BA, size: 0x8, addend: 0x0, symName: __ZNSt3__121__unwrap_and_dispatchB8ue170006INS_10__overloadINS_11__copy_loopINS_17_ClassicAlgPolicyEEENS_14__copy_trivialEEEPKNS_12basic_stringIcNS_11char_traitsIcEENS_9allocatorIcEEEESE_PSC_Li0EEENS_4pairIT0_T2_EESH_T1_SI_, symObjAddr: 0xC4624, symBinAddr: 0x1000C5C28, symSize: 0xB4 }
  - { offsetInCU: 0xBF729, offset: 0xBF729, size: 0x8, addend: 0x0, symName: __ZNSt3__19make_pairB8ue170006IPKNS_12basic_stringIcNS_11char_traitsIcEENS_9allocatorIcEEEEPS6_EENS_4pairINS_18__unwrap_ref_decayIT_E4typeENSB_IT0_E4typeEEEOSC_OSF_, symObjAddr: 0xC4760, symBinAddr: 0x1000C5D64, symSize: 0x38 }
  - { offsetInCU: 0xBF779, offset: 0xBF779, size: 0x8, addend: 0x0, symName: __ZNSt3__114__rewrap_rangeB8ue170006IPKNS_12basic_stringIcNS_11char_traitsIcEENS_9allocatorIcEEEES8_EET_S9_T0_, symObjAddr: 0xC4798, symBinAddr: 0x1000C5D9C, symSize: 0x2C }
  - { offsetInCU: 0xBF7C8, offset: 0xBF7C8, size: 0x8, addend: 0x0, symName: __ZNSt3__113__rewrap_iterB8ue170006IPKNS_12basic_stringIcNS_11char_traitsIcEENS_9allocatorIcEEEES8_NS_18__unwrap_iter_implIS8_Lb1EEEEET_SB_T0_, symObjAddr: 0xC4834, symBinAddr: 0x1000C5E38, symSize: 0x3C }
  - { offsetInCU: 0xBF81F, offset: 0xBF81F, size: 0x8, addend: 0x0, symName: __ZNSt3__142__uninitialized_allocator_move_if_noexceptB8ue170006INS_9allocatorINS_12basic_stringIcNS_11char_traitsIcEENS1_IcEEEEEEPS6_S8_S8_EET2_RT_T0_T1_S9_, symObjAddr: 0xC499C, symBinAddr: 0x1000C5FA0, symSize: 0xF4 }
  - { offsetInCU: 0xBF8BE, offset: 0xBF8BE, size: 0x8, addend: 0x0, symName: __ZNSt3__110__distanceB8ue170006IPKNS_12basic_stringIcNS_11char_traitsIcEENS_9allocatorIcEEEEEENS_15iterator_traitsIT_E15difference_typeESA_SA_NS_26random_access_iterator_tagE, symObjAddr: 0xC4A90, symBinAddr: 0x1000C6094, symSize: 0x28 }
  - { offsetInCU: 0xBF90E, offset: 0xBF90E, size: 0x8, addend: 0x0, symName: __ZNSt3__14sortB8ue170006INS_11__wrap_iterIPNS_12basic_stringIcNS_11char_traitsIcEENS_9allocatorIcEEEEEENS_6__lessIvvEEEEvT_SC_T0_, symObjAddr: 0xC4AB8, symBinAddr: 0x1000C60BC, symSize: 0x40 }
  - { offsetInCU: 0xBF968, offset: 0xBF968, size: 0x8, addend: 0x0, symName: __ZNSt3__111__sort_implB8ue170006INS_17_ClassicAlgPolicyENS_11__wrap_iterIPNS_12basic_stringIcNS_11char_traitsIcEENS_9allocatorIcEEEEEENS_6__lessIvvEEEEvT0_SD_RT1_, symObjAddr: 0xC4AF8, symBinAddr: 0x1000C60FC, symSize: 0xA8 }
  - { offsetInCU: 0xBF9CC, offset: 0xBF9CC, size: 0x8, addend: 0x0, symName: __ZNSt3__123__debug_randomize_rangeB8ue170006INS_17_ClassicAlgPolicyENS_11__wrap_iterIPNS_12basic_stringIcNS_11char_traitsIcEENS_9allocatorIcEEEEEESA_EEvT0_T1_, symObjAddr: 0xC4BA0, symBinAddr: 0x1000C61A4, symSize: 0x14 }
  - { offsetInCU: 0xBFA1F, offset: 0xBFA1F, size: 0x8, addend: 0x0, symName: __ZNSt3__115__sort_dispatchB8ue170006INS_17_ClassicAlgPolicyEPNS_12basic_stringIcNS_11char_traitsIcEENS_9allocatorIcEEEENS_6__lessIvvEEEEvT0_SB_RT1_, symObjAddr: 0xC4BB4, symBinAddr: 0x1000C61B8, symSize: 0x64 }
  - { offsetInCU: 0xBFA9E, offset: 0xBFA9E, size: 0x8, addend: 0x0, symName: __ZNSt3__113__unwrap_iterB8ue170006INS_11__wrap_iterIPNS_12basic_stringIcNS_11char_traitsIcEENS_9allocatorIcEEEEEENS_18__unwrap_iter_implIS9_Lb1EEELi0EEEDTclsrT0_8__unwrapclsr3stdE7declvalIT_EEEESD_, symObjAddr: 0xC4C18, symBinAddr: 0x1000C621C, symSize: 0x2C }
  - { offsetInCU: 0xBFAE5, offset: 0xBFAE5, size: 0x8, addend: 0x0, symName: __ZNSt3__135__check_strict_weak_ordering_sortedB8ue170006IPNS_12basic_stringIcNS_11char_traitsIcEENS_9allocatorIcEEEENS_6__lessIvvEEEEvT_SA_RT0_, symObjAddr: 0xC4C44, symBinAddr: 0x1000C6248, symSize: 0x18 }
  - { offsetInCU: 0xBFB3E, offset: 0xBFB3E, size: 0x8, addend: 0x0, symName: __ZNSt3__17__log2iB8ue170006IlEET_S1_, symObjAddr: 0xC4C5C, symBinAddr: 0x1000C6260, symSize: 0x54 }
  - { offsetInCU: 0xBFB76, offset: 0xBFB76, size: 0x8, addend: 0x0, symName: __ZNSt3__112__libcpp_clzB8ue170006Em, symObjAddr: 0xC5138, symBinAddr: 0x1000C673C, symSize: 0x1C }
  - { offsetInCU: 0xBFBA4, offset: 0xBFBA4, size: 0x8, addend: 0x0, symName: __ZNSt3__124__sort3_maybe_branchlessB8ue170006INS_17_ClassicAlgPolicyERNS_6__lessIvvEEPNS_12basic_stringIcNS_11char_traitsIcEENS_9allocatorIcEEEEEENS_9enable_ifIXntsr21__use_branchless_sortIT0_T1_EE5valueEvE4typeESE_SE_SE_SD_, symObjAddr: 0xC51BC, symBinAddr: 0x1000C67C0, symSize: 0x3C }
  - { offsetInCU: 0xBFC1A, offset: 0xBFC1A, size: 0x8, addend: 0x0, symName: __ZNSt3__124__sort4_maybe_branchlessB8ue170006INS_17_ClassicAlgPolicyERNS_6__lessIvvEEPNS_12basic_stringIcNS_11char_traitsIcEENS_9allocatorIcEEEEEENS_9enable_ifIXntsr21__use_branchless_sortIT0_T1_EE5valueEvE4typeESE_SE_SE_SE_SD_, symObjAddr: 0xC51F8, symBinAddr: 0x1000C67FC, symSize: 0x44 }
  - { offsetInCU: 0xBFC9F, offset: 0xBFC9F, size: 0x8, addend: 0x0, symName: __ZNSt3__124__sort5_maybe_branchlessB8ue170006INS_17_ClassicAlgPolicyERNS_6__lessIvvEEPNS_12basic_stringIcNS_11char_traitsIcEENS_9allocatorIcEEEEEENS_9enable_ifIXntsr21__use_branchless_sortIT0_T1_EE5valueEvE4typeESE_SE_SE_SE_SE_SD_, symObjAddr: 0xC523C, symBinAddr: 0x1000C6840, symSize: 0x4C }
  - { offsetInCU: 0xBFD33, offset: 0xBFD33, size: 0x8, addend: 0x0, symName: __ZNSt3__116__insertion_sortB8ue170006INS_17_ClassicAlgPolicyERNS_6__lessIvvEEPNS_12basic_stringIcNS_11char_traitsIcEENS_9allocatorIcEEEEEEvT1_SC_T0_, symObjAddr: 0xC5288, symBinAddr: 0x1000C688C, symSize: 0x188 }
  - { offsetInCU: 0xBFDEA, offset: 0xBFDEA, size: 0x8, addend: 0x0, symName: __ZNSt3__114__partial_sortB8ue170006INS_17_ClassicAlgPolicyERNS_6__lessIvvEEPNS_12basic_stringIcNS_11char_traitsIcEENS_9allocatorIcEEEESB_EET1_SC_SC_T2_RT0_, symObjAddr: 0xC5568, symBinAddr: 0x1000C6B6C, symSize: 0x94 }
  - { offsetInCU: 0xBFE78, offset: 0xBFE78, size: 0x8, addend: 0x0, symName: __ZNSt3__17__sort3B8ue170006INS_17_ClassicAlgPolicyERNS_6__lessIvvEEPNS_12basic_stringIcNS_11char_traitsIcEENS_9allocatorIcEEEEEEjT1_SC_SC_T0_, symObjAddr: 0xC55FC, symBinAddr: 0x1000C6C00, symSize: 0x144 }
  - { offsetInCU: 0xBFEFD, offset: 0xBFEFD, size: 0x8, addend: 0x0, symName: __ZNSt3__19iter_swapB8ue170006IPNS_12basic_stringIcNS_11char_traitsIcEENS_9allocatorIcEEEES7_EEvT_T0_, symObjAddr: 0xC6320, symBinAddr: 0x1000C7924, symSize: 0x2C }
  - { offsetInCU: 0xBFF47, offset: 0xBFF47, size: 0x8, addend: 0x0, symName: __ZNSt3__14swapB8ue170006IcNS_11char_traitsIcEENS_9allocatorIcEEEEvRNS_12basic_stringIT_T0_T1_EESA_, symObjAddr: 0xC634C, symBinAddr: 0x1000C7950, symSize: 0x2C }
  - { offsetInCU: 0xBFF9C, offset: 0xBFF9C, size: 0x8, addend: 0x0, symName: __ZNSt3__14swapB8ue170006INS_12basic_stringIcNS_11char_traitsIcEENS_9allocatorIcEEE5__repEEENS_9enable_ifIXaasr21is_move_constructibleIT_EE5valuesr18is_move_assignableIS9_EE5valueEvE4typeERS9_SC_, symObjAddr: 0xC63DC, symBinAddr: 0x1000C79E0, symSize: 0x54 }
  - { offsetInCU: 0xBFFF1, offset: 0xBFFF1, size: 0x8, addend: 0x0, symName: __ZNSt3__116__swap_allocatorB8ue170006INS_9allocatorIcEEEEvRT_S4_, symObjAddr: 0xC6430, symBinAddr: 0x1000C7A34, symSize: 0x2C }
  - { offsetInCU: 0xC0033, offset: 0xC0033, size: 0x8, addend: 0x0, symName: __ZNSt3__116__swap_allocatorB8ue170006INS_9allocatorIcEEEEvRT_S4_NS_17integral_constantIbLb0EEE, symObjAddr: 0xC645C, symBinAddr: 0x1000C7A60, symSize: 0x14 }
  - { offsetInCU: 0xC0078, offset: 0xC0078, size: 0x8, addend: 0x0, symName: __ZNSt3__17__sort4B8ue170006INS_17_ClassicAlgPolicyERNS_6__lessIvvEEPNS_12basic_stringIcNS_11char_traitsIcEENS_9allocatorIcEEEEEEvT1_SC_SC_SC_T0_, symObjAddr: 0xC6470, symBinAddr: 0x1000C7A74, symSize: 0xB8 }
  - { offsetInCU: 0xC00F9, offset: 0xC00F9, size: 0x8, addend: 0x0, symName: __ZNSt3__17__sort5B8ue170006INS_17_ClassicAlgPolicyERNS_6__lessIvvEEPNS_12basic_stringIcNS_11char_traitsIcEENS_9allocatorIcEEEEEEvT1_SC_SC_SC_SC_T0_, symObjAddr: 0xC6528, symBinAddr: 0x1000C7B2C, symSize: 0xE8 }
  - { offsetInCU: 0xC0189, offset: 0xC0189, size: 0x8, addend: 0x0, symName: __ZNSt3__123__debug_randomize_rangeB8ue170006INS_17_ClassicAlgPolicyEPNS_12basic_stringIcNS_11char_traitsIcEENS_9allocatorIcEEEES8_EEvT0_T1_, symObjAddr: 0xC6610, symBinAddr: 0x1000C7C14, symSize: 0x14 }
  - { offsetInCU: 0xC01DD, offset: 0xC01DD, size: 0x8, addend: 0x0, symName: __ZNSt3__119__partial_sort_implB8ue170006INS_17_ClassicAlgPolicyERNS_6__lessIvvEEPNS_12basic_stringIcNS_11char_traitsIcEENS_9allocatorIcEEEESB_EET1_SC_SC_T2_OT0_, symObjAddr: 0xC6624, symBinAddr: 0x1000C7C28, symSize: 0x110 }
  - { offsetInCU: 0xC027A, offset: 0xC027A, size: 0x8, addend: 0x0, symName: __ZNSt3__111__make_heapB8ue170006INS_17_ClassicAlgPolicyERNS_6__lessIvvEEPNS_12basic_stringIcNS_11char_traitsIcEENS_9allocatorIcEEEEEEvT1_SC_OT0_, symObjAddr: 0xC6734, symBinAddr: 0x1000C7D38, symSize: 0xC0 }
  - { offsetInCU: 0xC0324, offset: 0xC0324, size: 0x8, addend: 0x0, symName: __ZNSt3__111__sort_heapB8ue170006INS_17_ClassicAlgPolicyERNS_6__lessIvvEEPNS_12basic_stringIcNS_11char_traitsIcEENS_9allocatorIcEEEEEEvT1_SC_OT0_, symObjAddr: 0xC6A48, symBinAddr: 0x1000C804C, symSize: 0xA8 }
  - { offsetInCU: 0xC03CE, offset: 0xC03CE, size: 0x8, addend: 0x0, symName: __ZNSt3__110__pop_heapB8ue170006INS_17_ClassicAlgPolicyENS_6__lessIvvEEPNS_12basic_stringIcNS_11char_traitsIcEENS_9allocatorIcEEEEEEvT1_SB_RT0_NS_15iterator_traitsISB_E15difference_typeE, symObjAddr: 0xC6AF0, symBinAddr: 0x1000C80F4, symSize: 0x138 }
  - { offsetInCU: 0xC047F, offset: 0xC047F, size: 0x8, addend: 0x0, symName: __ZNSt3__19__sift_upB8ue170006INS_17_ClassicAlgPolicyERNS_6__lessIvvEEPNS_12basic_stringIcNS_11char_traitsIcEENS_9allocatorIcEEEEEEvT1_SC_OT0_NS_15iterator_traitsISC_E15difference_typeE, symObjAddr: 0xC6D30, symBinAddr: 0x1000C8334, symSize: 0x164 }
  - { offsetInCU: 0xC0526, offset: 0xC0526, size: 0x8, addend: 0x0, symName: __ZNSt3__122__populate_left_bitsetB8ue170006IRNS_6__lessIvvEEPNS_12basic_stringIcNS_11char_traitsIcEENS_9allocatorIcEEEES9_EEvT0_T_RT1_Ry, symObjAddr: 0xC6E94, symBinAddr: 0x1000C8498, symSize: 0xA8 }
  - { offsetInCU: 0xC05E1, offset: 0xC05E1, size: 0x8, addend: 0x0, symName: __ZNSt3__123__populate_right_bitsetB8ue170006IRNS_6__lessIvvEEPNS_12basic_stringIcNS_11char_traitsIcEENS_9allocatorIcEEEES9_EEvT0_T_RT1_Ry, symObjAddr: 0xC6F3C, symBinAddr: 0x1000C8540, symSize: 0xA0 }
  - { offsetInCU: 0xC069C, offset: 0xC069C, size: 0x8, addend: 0x0, symName: __ZNSt3__117__swap_bitmap_posB8ue170006INS_17_ClassicAlgPolicyEPNS_12basic_stringIcNS_11char_traitsIcEENS_9allocatorIcEEEEEEvT0_S9_RySA_, symObjAddr: 0xC6FDC, symBinAddr: 0x1000C85E0, symSize: 0x104 }
  - { offsetInCU: 0xC073D, offset: 0xC073D, size: 0x8, addend: 0x0, symName: __ZNSt3__133__bitset_partition_partial_blocksB8ue170006INS_17_ClassicAlgPolicyERNS_6__lessIvvEEPNS_12basic_stringIcNS_11char_traitsIcEENS_9allocatorIcEEEESA_EEvRT1_SD_T0_RT2_RySH_, symObjAddr: 0xC70E0, symBinAddr: 0x1000C86E4, symSize: 0x2F0 }
  - { offsetInCU: 0xC08BE, offset: 0xC08BE, size: 0x8, addend: 0x0, symName: __ZNSt3__19make_pairB8ue170006IRPNS_12basic_stringIcNS_11char_traitsIcEENS_9allocatorIcEEEERbEENS_4pairINS_18__unwrap_ref_decayIT_E4typeENSB_IT0_E4typeEEEOSC_OSF_, symObjAddr: 0xC75B8, symBinAddr: 0x1000C8BBC, symSize: 0x38 }
  - { offsetInCU: 0xC090E, offset: 0xC090E, size: 0x8, addend: 0x0, symName: __ZNSt3__112__libcpp_ctzB8ue170006Ey, symObjAddr: 0xC75F0, symBinAddr: 0x1000C8BF4, symSize: 0x20 }
  - { offsetInCU: 0xC093C, offset: 0xC093C, size: 0x8, addend: 0x0, symName: __ZNSt3__113__libcpp_blsrB8ue170006Ey, symObjAddr: 0xC7610, symBinAddr: 0x1000C8C14, symSize: 0x2C }
  - { offsetInCU: 0xC096A, offset: 0xC096A, size: 0x8, addend: 0x0, symName: __ZNSt3__112__libcpp_clzB8ue170006Ey, symObjAddr: 0xC7670, symBinAddr: 0x1000C8C74, symSize: 0x1C }
  - { offsetInCU: 0xC0ACB, offset: 0xC0ACB, size: 0x8, addend: 0x0, symName: __ZNSt3__112__to_addressB8ue170006INS_11__wrap_iterIPNS_12basic_stringIcNS_11char_traitsIcEENS_9allocatorIcEEEEEEvEEu7__decayIDTclsr19__to_address_helperIT_EE6__callclsr3stdE7declvalIRKSA_EEEEESC_, symObjAddr: 0xC7728, symBinAddr: 0x1000C8D2C, symSize: 0x24 }
  - { offsetInCU: 0xC0BB2, offset: 0xC0BB2, size: 0x8, addend: 0x0, symName: __ZNSt3__16uniqueB8ue170006INS_11__wrap_iterIPNS_12basic_stringIcNS_11char_traitsIcEENS_9allocatorIcEEEEEENS_10__equal_toEEET_SB_SB_T0_, symObjAddr: 0xC77A8, symBinAddr: 0x1000C8DAC, symSize: 0x54 }
  - { offsetInCU: 0xC0C10, offset: 0xC0C10, size: 0x8, addend: 0x0, symName: __ZNSt3__18__uniqueB8ue170006INS_17_ClassicAlgPolicyENS_11__wrap_iterIPNS_12basic_stringIcNS_11char_traitsIcEENS_9allocatorIcEEEEEESA_RNS_10__equal_toEEENS_4pairIT0_SE_EESE_T1_OT2_, symObjAddr: 0xC77FC, symBinAddr: 0x1000C8E00, symSize: 0x13C }
  - { offsetInCU: 0xC0C9D, offset: 0xC0C9D, size: 0x8, addend: 0x0, symName: __ZNSt3__115__adjacent_findB8ue170006INS_11__wrap_iterIPNS_12basic_stringIcNS_11char_traitsIcEENS_9allocatorIcEEEEEES9_RNS_10__equal_toEEET_SC_T0_OT1_, symObjAddr: 0xC7938, symBinAddr: 0x1000C8F3C, symSize: 0xCC }
  - { offsetInCU: 0xC1A43, offset: 0xC1A43, size: 0x8, addend: 0x0, symName: __ZNSt3__122__make_exception_guardB8ue170006INS_6vectorIN5Catch8TestCaseENS_9allocatorIS3_EEE16__destroy_vectorEEENS_28__exception_guard_exceptionsIT_EES9_, symObjAddr: 0xC8A38, symBinAddr: 0x1000CA03C, symSize: 0x40 }
  - { offsetInCU: 0xC1A7A, offset: 0xC1A7A, size: 0x8, addend: 0x0, symName: __ZNSt3__119__allocate_at_leastB8ue170006INS_9allocatorIN5Catch8TestCaseEEEEENS_19__allocation_resultINS_16allocator_traitsIT_E7pointerEEERS7_m, symObjAddr: 0xC8CD4, symBinAddr: 0x1000CA2D8, symSize: 0x40 }
  - { offsetInCU: 0xC1ABF, offset: 0xC1ABF, size: 0x8, addend: 0x0, symName: __ZNSt3__130__uninitialized_allocator_copyB8ue170006INS_9allocatorIN5Catch8TestCaseEEEPS3_S5_S5_EET2_RT_T0_T1_S6_, symObjAddr: 0xC8F10, symBinAddr: 0x1000CA514, symSize: 0x80 }
  - { offsetInCU: 0xC1B5D, offset: 0xC1B5D, size: 0x8, addend: 0x0, symName: __ZNSt3__114__unwrap_rangeB8ue170006IPN5Catch8TestCaseES3_EENS_4pairIT0_S5_EET_S7_, symObjAddr: 0xC9008, symBinAddr: 0x1000CA60C, symSize: 0x60 }
  - { offsetInCU: 0xC1BAB, offset: 0xC1BAB, size: 0x8, addend: 0x0, symName: __ZNSt3__135__uninitialized_allocator_copy_implB8ue170006INS_9allocatorIN5Catch8TestCaseEEEPS3_S5_S5_EET2_RT_T0_T1_S6_, symObjAddr: 0xC9068, symBinAddr: 0x1000CA66C, symSize: 0xF4 }
  - { offsetInCU: 0xC1C4A, offset: 0xC1C4A, size: 0x8, addend: 0x0, symName: __ZNSt3__113__unwrap_iterB8ue170006IPN5Catch8TestCaseENS_18__unwrap_iter_implIS3_Lb1EEELi0EEEDTclsrT0_8__unwrapclsr3stdE7declvalIT_EEEES7_, symObjAddr: 0xC915C, symBinAddr: 0x1000CA760, symSize: 0x24 }
  - { offsetInCU: 0xC1C91, offset: 0xC1C91, size: 0x8, addend: 0x0, symName: __ZNSt3__113__rewrap_iterB8ue170006IPN5Catch8TestCaseES3_NS_18__unwrap_iter_implIS3_Lb1EEEEET_S6_T0_, symObjAddr: 0xC9180, symBinAddr: 0x1000CA784, symSize: 0x3C }
  - { offsetInCU: 0xC1CE8, offset: 0xC1CE8, size: 0x8, addend: 0x0, symName: __ZNSt3__19make_pairB8ue170006IPN5Catch8TestCaseES3_EENS_4pairINS_18__unwrap_ref_decayIT_E4typeENS5_IT0_E4typeEEEOS6_OS9_, symObjAddr: 0xC91BC, symBinAddr: 0x1000CA7C0, symSize: 0x38 }
  - { offsetInCU: 0xC1E13, offset: 0xC1E13, size: 0x8, addend: 0x0, symName: __ZNSt3__122__make_exception_guardB8ue170006INS_29_AllocatorDestroyRangeReverseINS_9allocatorIN5Catch8TestCaseEEEPS4_EEEENS_28__exception_guard_exceptionsIT_EES9_, symObjAddr: 0xC9264, symBinAddr: 0x1000CA868, symSize: 0x4C }
  - { offsetInCU: 0xC1E4A, offset: 0xC1E4A, size: 0x8, addend: 0x0, symName: __ZNSt3__119__allocator_destroyB8ue170006INS_9allocatorIN5Catch8TestCaseEEENS_16reverse_iteratorIPS3_EES7_EEvRT_T0_T1_, symObjAddr: 0xC94F4, symBinAddr: 0x1000CAAF8, symSize: 0x70 }
  - { offsetInCU: 0xC1EAE, offset: 0xC1EAE, size: 0x8, addend: 0x0, symName: __ZNSt3__1neB8ue170006IPN5Catch8TestCaseES3_EEbRKNS_16reverse_iteratorIT_EERKNS4_IT0_EE, symObjAddr: 0xC9598, symBinAddr: 0x1000CAB9C, symSize: 0x48 }
  - { offsetInCU: 0xC1EFD, offset: 0xC1EFD, size: 0x8, addend: 0x0, symName: __ZNSt3__112__to_addressB8ue170006INS_16reverse_iteratorIPN5Catch8TestCaseEEEvEEu7__decayIDTclsr19__to_address_helperIT_EE6__callclsr3stdE7declvalIRKS6_EEEEES8_, symObjAddr: 0xC95E0, symBinAddr: 0x1000CABE4, symSize: 0x24 }
  - { offsetInCU: 0xC1FB7, offset: 0xC1FB7, size: 0x8, addend: 0x0, symName: __ZNSt3__14sortB8ue170006INS_11__wrap_iterIPN5Catch8TestCaseEEENS_6__lessIvvEEEEvT_S8_T0_, symObjAddr: 0xC97CC, symBinAddr: 0x1000CADD0, symSize: 0x40 }
  - { offsetInCU: 0xC2011, offset: 0xC2011, size: 0x8, addend: 0x0, symName: __ZNSt3__111__sort_implB8ue170006INS_17_ClassicAlgPolicyENS_11__wrap_iterIPN5Catch8TestCaseEEENS_6__lessIvvEEEEvT0_S9_RT1_, symObjAddr: 0xC980C, symBinAddr: 0x1000CAE10, symSize: 0xA8 }
  - { offsetInCU: 0xC2075, offset: 0xC2075, size: 0x8, addend: 0x0, symName: __ZNSt3__123__debug_randomize_rangeB8ue170006INS_17_ClassicAlgPolicyENS_11__wrap_iterIPN5Catch8TestCaseEEES6_EEvT0_T1_, symObjAddr: 0xC98B4, symBinAddr: 0x1000CAEB8, symSize: 0x14 }
  - { offsetInCU: 0xC20C8, offset: 0xC20C8, size: 0x8, addend: 0x0, symName: __ZNSt3__115__sort_dispatchB8ue170006INS_17_ClassicAlgPolicyEPN5Catch8TestCaseENS_6__lessIvvEEEEvT0_S7_RT1_, symObjAddr: 0xC98C8, symBinAddr: 0x1000CAECC, symSize: 0x64 }
  - { offsetInCU: 0xC2147, offset: 0xC2147, size: 0x8, addend: 0x0, symName: __ZNSt3__113__unwrap_iterB8ue170006INS_11__wrap_iterIPN5Catch8TestCaseEEENS_18__unwrap_iter_implIS5_Lb1EEELi0EEEDTclsrT0_8__unwrapclsr3stdE7declvalIT_EEEES9_, symObjAddr: 0xC992C, symBinAddr: 0x1000CAF30, symSize: 0x2C }
  - { offsetInCU: 0xC218E, offset: 0xC218E, size: 0x8, addend: 0x0, symName: __ZNSt3__135__check_strict_weak_ordering_sortedB8ue170006IPN5Catch8TestCaseENS_6__lessIvvEEEEvT_S6_RT0_, symObjAddr: 0xC9958, symBinAddr: 0x1000CAF5C, symSize: 0x18 }
  - { offsetInCU: 0xC21E8, offset: 0xC21E8, size: 0x8, addend: 0x0, symName: __ZNSt3__124__sort3_maybe_branchlessB8ue170006INS_17_ClassicAlgPolicyERNS_6__lessIvvEEPN5Catch8TestCaseEEENS_9enable_ifIXntsr21__use_branchless_sortIT0_T1_EE5valueEvE4typeESA_SA_SA_S9_, symObjAddr: 0xC9E60, symBinAddr: 0x1000CB464, symSize: 0x3C }
  - { offsetInCU: 0xC225E, offset: 0xC225E, size: 0x8, addend: 0x0, symName: __ZNSt3__124__sort4_maybe_branchlessB8ue170006INS_17_ClassicAlgPolicyERNS_6__lessIvvEEPN5Catch8TestCaseEEENS_9enable_ifIXntsr21__use_branchless_sortIT0_T1_EE5valueEvE4typeESA_SA_SA_SA_S9_, symObjAddr: 0xC9E9C, symBinAddr: 0x1000CB4A0, symSize: 0x44 }
  - { offsetInCU: 0xC22E3, offset: 0xC22E3, size: 0x8, addend: 0x0, symName: __ZNSt3__124__sort5_maybe_branchlessB8ue170006INS_17_ClassicAlgPolicyERNS_6__lessIvvEEPN5Catch8TestCaseEEENS_9enable_ifIXntsr21__use_branchless_sortIT0_T1_EE5valueEvE4typeESA_SA_SA_SA_SA_S9_, symObjAddr: 0xC9EE0, symBinAddr: 0x1000CB4E4, symSize: 0x4C }
  - { offsetInCU: 0xC2377, offset: 0xC2377, size: 0x8, addend: 0x0, symName: __ZNSt3__116__insertion_sortB8ue170006INS_17_ClassicAlgPolicyERNS_6__lessIvvEEPN5Catch8TestCaseEEEvT1_S8_T0_, symObjAddr: 0xC9F2C, symBinAddr: 0x1000CB530, symSize: 0x1C0 }
  - { offsetInCU: 0xC242E, offset: 0xC242E, size: 0x8, addend: 0x0, symName: __ZNSt3__114__partial_sortB8ue170006INS_17_ClassicAlgPolicyERNS_6__lessIvvEEPN5Catch8TestCaseES7_EET1_S8_S8_T2_RT0_, symObjAddr: 0xCA278, symBinAddr: 0x1000CB87C, symSize: 0x94 }
  - { offsetInCU: 0xC24BC, offset: 0xC24BC, size: 0x8, addend: 0x0, symName: __ZNSt3__17__sort3B8ue170006INS_17_ClassicAlgPolicyERNS_6__lessIvvEEPN5Catch8TestCaseEEEjT1_S8_S8_T0_, symObjAddr: 0xCA30C, symBinAddr: 0x1000CB910, symSize: 0x144 }
  - { offsetInCU: 0xC2541, offset: 0xC2541, size: 0x8, addend: 0x0, symName: __ZNSt3__19iter_swapB8ue170006IPN5Catch8TestCaseES3_EEvT_T0_, symObjAddr: 0xCB0E4, symBinAddr: 0x1000CC6E8, symSize: 0x2C }
  - { offsetInCU: 0xC258C, offset: 0xC258C, size: 0x8, addend: 0x0, symName: __ZNSt3__14swapB8ue170006IN5Catch8TestCaseEEENS_9enable_ifIXaasr21is_move_constructibleIT_EE5valuesr18is_move_assignableIS4_EE5valueEvE4typeERS4_S7_, symObjAddr: 0xCB110, symBinAddr: 0x1000CC714, symSize: 0x50 }
  - { offsetInCU: 0xC25E1, offset: 0xC25E1, size: 0x8, addend: 0x0, symName: __ZNSt3__14swapB8ue170006IPN5Catch12ITestInvokerEEENS_9enable_ifIXaasr21is_move_constructibleIT_EE5valuesr18is_move_assignableIS5_EE5valueEvE4typeERS5_S8_, symObjAddr: 0xCB3C4, symBinAddr: 0x1000CC9C8, symSize: 0x3C }
  - { offsetInCU: 0xC2636, offset: 0xC2636, size: 0x8, addend: 0x0, symName: __ZNSt3__17__sort4B8ue170006INS_17_ClassicAlgPolicyERNS_6__lessIvvEEPN5Catch8TestCaseEEEvT1_S8_S8_S8_T0_, symObjAddr: 0xCB400, symBinAddr: 0x1000CCA04, symSize: 0xB8 }
  - { offsetInCU: 0xC26B7, offset: 0xC26B7, size: 0x8, addend: 0x0, symName: __ZNSt3__17__sort5B8ue170006INS_17_ClassicAlgPolicyERNS_6__lessIvvEEPN5Catch8TestCaseEEEvT1_S8_S8_S8_S8_T0_, symObjAddr: 0xCB4B8, symBinAddr: 0x1000CCABC, symSize: 0xE8 }
  - { offsetInCU: 0xC276E, offset: 0xC276E, size: 0x8, addend: 0x0, symName: __ZNSt3__123__debug_randomize_rangeB8ue170006INS_17_ClassicAlgPolicyEPN5Catch8TestCaseES4_EEvT0_T1_, symObjAddr: 0xCB5E4, symBinAddr: 0x1000CCBE8, symSize: 0x14 }
  - { offsetInCU: 0xC27C2, offset: 0xC27C2, size: 0x8, addend: 0x0, symName: __ZNSt3__119__partial_sort_implB8ue170006INS_17_ClassicAlgPolicyERNS_6__lessIvvEEPN5Catch8TestCaseES7_EET1_S8_S8_T2_OT0_, symObjAddr: 0xCB5F8, symBinAddr: 0x1000CCBFC, symSize: 0x110 }
  - { offsetInCU: 0xC285F, offset: 0xC285F, size: 0x8, addend: 0x0, symName: __ZNSt3__111__make_heapB8ue170006INS_17_ClassicAlgPolicyERNS_6__lessIvvEEPN5Catch8TestCaseEEEvT1_S8_OT0_, symObjAddr: 0xCB708, symBinAddr: 0x1000CCD0C, symSize: 0xC0 }
  - { offsetInCU: 0xC2909, offset: 0xC2909, size: 0x8, addend: 0x0, symName: __ZNSt3__111__sort_heapB8ue170006INS_17_ClassicAlgPolicyERNS_6__lessIvvEEPN5Catch8TestCaseEEEvT1_S8_OT0_, symObjAddr: 0xCBA5C, symBinAddr: 0x1000CD060, symSize: 0xA8 }
  - { offsetInCU: 0xC29B3, offset: 0xC29B3, size: 0x8, addend: 0x0, symName: __ZNSt3__110__pop_heapB8ue170006INS_17_ClassicAlgPolicyENS_6__lessIvvEEPN5Catch8TestCaseEEEvT1_S7_RT0_NS_15iterator_traitsIS7_E15difference_typeE, symObjAddr: 0xCBB04, symBinAddr: 0x1000CD108, symSize: 0x158 }
  - { offsetInCU: 0xC2A64, offset: 0xC2A64, size: 0x8, addend: 0x0, symName: __ZNSt3__19__sift_upB8ue170006INS_17_ClassicAlgPolicyERNS_6__lessIvvEEPN5Catch8TestCaseEEEvT1_S8_OT0_NS_15iterator_traitsIS8_E15difference_typeE, symObjAddr: 0xCBD64, symBinAddr: 0x1000CD368, symSize: 0x18C }
  - { offsetInCU: 0xC2B0B, offset: 0xC2B0B, size: 0x8, addend: 0x0, symName: __ZNSt3__122__populate_left_bitsetB8ue170006IRNS_6__lessIvvEEPN5Catch8TestCaseES5_EEvT0_T_RT1_Ry, symObjAddr: 0xCBEF0, symBinAddr: 0x1000CD4F4, symSize: 0xA8 }
  - { offsetInCU: 0xC2BC6, offset: 0xC2BC6, size: 0x8, addend: 0x0, symName: __ZNSt3__123__populate_right_bitsetB8ue170006IRNS_6__lessIvvEEPN5Catch8TestCaseES5_EEvT0_T_RT1_Ry, symObjAddr: 0xCBF98, symBinAddr: 0x1000CD59C, symSize: 0xA0 }
  - { offsetInCU: 0xC2C81, offset: 0xC2C81, size: 0x8, addend: 0x0, symName: __ZNSt3__117__swap_bitmap_posB8ue170006INS_17_ClassicAlgPolicyEPN5Catch8TestCaseEEEvT0_S5_RyS6_, symObjAddr: 0xCC038, symBinAddr: 0x1000CD63C, symSize: 0x104 }
  - { offsetInCU: 0xC2D22, offset: 0xC2D22, size: 0x8, addend: 0x0, symName: __ZNSt3__133__bitset_partition_partial_blocksB8ue170006INS_17_ClassicAlgPolicyERNS_6__lessIvvEEPN5Catch8TestCaseES6_EEvRT1_S9_T0_RT2_RySD_, symObjAddr: 0xCC13C, symBinAddr: 0x1000CD740, symSize: 0x2F0 }
  - { offsetInCU: 0xC2EA3, offset: 0xC2EA3, size: 0x8, addend: 0x0, symName: __ZNSt3__19make_pairB8ue170006IRPN5Catch8TestCaseERbEENS_4pairINS_18__unwrap_ref_decayIT_E4typeENS7_IT0_E4typeEEEOS8_OSB_, symObjAddr: 0xCC614, symBinAddr: 0x1000CDC18, symSize: 0x38 }
  - { offsetInCU: 0xC3026, offset: 0xC3026, size: 0x8, addend: 0x0, symName: __ZNSt3__112__to_addressB8ue170006INS_11__wrap_iterIPN5Catch8TestCaseEEEvEEu7__decayIDTclsr19__to_address_helperIT_EE6__callclsr3stdE7declvalIRKS6_EEEEES8_, symObjAddr: 0xCC71C, symBinAddr: 0x1000CDD20, symSize: 0x24 }
  - { offsetInCU: 0xC310D, offset: 0xC310D, size: 0x8, addend: 0x0, symName: __ZNSt3__112__to_addressB8ue170006INS_4pairIyPKN5Catch8TestCaseEEEEEPT_S8_, symObjAddr: 0xCCC48, symBinAddr: 0x1000CE24C, symSize: 0x14 }
  - { offsetInCU: 0xC3144, offset: 0xC3144, size: 0x8, addend: 0x0, symName: __ZNSt3__119__allocate_at_leastB8ue170006INS_9allocatorINS_4pairIyPKN5Catch8TestCaseEEEEEEENS_19__allocation_resultINS_16allocator_traitsIT_E7pointerEEERSB_m, symObjAddr: 0xCD134, symBinAddr: 0x1000CE738, symSize: 0x40 }
  - { offsetInCU: 0xC3189, offset: 0xC3189, size: 0x8, addend: 0x0, symName: __ZNSt3__142__uninitialized_allocator_move_if_noexceptB8ue170006INS_9allocatorINS_4pairIyPKN5Catch8TestCaseEEEEENS_16reverse_iteratorIPS7_EESB_SB_EET2_RT_T0_T1_SC_, symObjAddr: 0xCD2FC, symBinAddr: 0x1000CE900, symSize: 0x12C }
  - { offsetInCU: 0xC322A, offset: 0xC322A, size: 0x8, addend: 0x0, symName: __ZNSt3__14swapB8ue170006IPNS_4pairIyPKN5Catch8TestCaseEEEEENS_9enable_ifIXaasr21is_move_constructibleIT_EE5valuesr18is_move_assignableIS9_EE5valueEvE4typeERS9_SC_, symObjAddr: 0xCD474, symBinAddr: 0x1000CEA78, symSize: 0x3C }
  - { offsetInCU: 0xC327F, offset: 0xC327F, size: 0x8, addend: 0x0, symName: __ZNSt3__122__make_exception_guardB8ue170006INS_29_AllocatorDestroyRangeReverseINS_9allocatorINS_4pairIyPKN5Catch8TestCaseEEEEENS_16reverse_iteratorIPS8_EEEEEENS_28__exception_guard_exceptionsIT_EESF_, symObjAddr: 0xCD584, symBinAddr: 0x1000CEB88, symSize: 0x4C }
  - { offsetInCU: 0xC32B7, offset: 0xC32B7, size: 0x8, addend: 0x0, symName: __ZNSt3__1neB8ue170006IPNS_4pairIyPKN5Catch8TestCaseEEES7_EEbRKNS_16reverse_iteratorIT_EERKNS8_IT0_EE, symObjAddr: 0xCD614, symBinAddr: 0x1000CEC18, symSize: 0x48 }
  - { offsetInCU: 0xC3306, offset: 0xC3306, size: 0x8, addend: 0x0, symName: __ZNSt3__112__to_addressB8ue170006INS_16reverse_iteratorIPNS_4pairIyPKN5Catch8TestCaseEEEEEvEEu7__decayIDTclsr19__to_address_helperIT_EE6__callclsr3stdE7declvalIRKSA_EEEEESC_, symObjAddr: 0xCD690, symBinAddr: 0x1000CEC94, symSize: 0x24 }
  - { offsetInCU: 0xC3368, offset: 0xC3368, size: 0x8, addend: 0x0, symName: __ZNSt3__119__allocator_destroyB8ue170006INS_9allocatorINS_4pairIyPKN5Catch8TestCaseEEEEENS_16reverse_iteratorINS9_IPS7_EEEESC_EEvRT_T0_T1_, symObjAddr: 0xCD968, symBinAddr: 0x1000CEF6C, symSize: 0x70 }
  - { offsetInCU: 0xC33CE, offset: 0xC33CE, size: 0x8, addend: 0x0, symName: __ZNSt3__1neB8ue170006INS_16reverse_iteratorIPNS_4pairIyPKN5Catch8TestCaseEEEEES9_EEbRKNS1_IT_EERKNS1_IT0_EE, symObjAddr: 0xCDA14, symBinAddr: 0x1000CF018, symSize: 0x60 }
  - { offsetInCU: 0xC341D, offset: 0xC341D, size: 0x8, addend: 0x0, symName: __ZNSt3__112__to_addressB8ue170006INS_16reverse_iteratorINS1_IPNS_4pairIyPKN5Catch8TestCaseEEEEEEEvEEu7__decayIDTclsr19__to_address_helperIT_EE6__callclsr3stdE7declvalIRKSB_EEEEESD_, symObjAddr: 0xCDA74, symBinAddr: 0x1000CF078, symSize: 0x24 }
  - { offsetInCU: 0xC347F, offset: 0xC347F, size: 0x8, addend: 0x0, symName: '__ZNSt3__111__sort_implB8ue170006INS_17_ClassicAlgPolicyENS_11__wrap_iterIPNS_4pairIyPKN5Catch8TestCaseEEEEEZNS4_9sortTestsERKNS4_7IConfigERKNS_6vectorIS5_NS_9allocatorIS5_EEEEE4$_15EEvT0_SL_RT1_', symObjAddr: 0xCE27C, symBinAddr: 0x1000CF880, symSize: 0xA8 }
  - { offsetInCU: 0xC34E3, offset: 0xC34E3, size: 0x8, addend: 0x0, symName: __ZNSt3__123__debug_randomize_rangeB8ue170006INS_17_ClassicAlgPolicyENS_11__wrap_iterIPNS_4pairIyPKN5Catch8TestCaseEEEEESA_EEvT0_T1_, symObjAddr: 0xCE324, symBinAddr: 0x1000CF928, symSize: 0x14 }
  - { offsetInCU: 0xC3536, offset: 0xC3536, size: 0x8, addend: 0x0, symName: '__ZNSt3__115__sort_dispatchB8ue170006INS_17_ClassicAlgPolicyEPNS_4pairIyPKN5Catch8TestCaseEEEZNS3_9sortTestsERKNS3_7IConfigERKNS_6vectorIS4_NS_9allocatorIS4_EEEEE4$_15EEvT0_SJ_RT1_', symObjAddr: 0xCE338, symBinAddr: 0x1000CF93C, symSize: 0x64 }
  - { offsetInCU: 0xC35B5, offset: 0xC35B5, size: 0x8, addend: 0x0, symName: __ZNSt3__113__unwrap_iterB8ue170006INS_11__wrap_iterIPNS_4pairIyPKN5Catch8TestCaseEEEEENS_18__unwrap_iter_implIS9_Lb1EEELi0EEEDTclsrT0_8__unwrapclsr3stdE7declvalIT_EEEESD_, symObjAddr: 0xCE39C, symBinAddr: 0x1000CF9A0, symSize: 0x2C }
  - { offsetInCU: 0xC35FC, offset: 0xC35FC, size: 0x8, addend: 0x0, symName: '__ZNSt3__135__check_strict_weak_ordering_sortedB8ue170006IPNS_4pairIyPKN5Catch8TestCaseEEEZNS2_9sortTestsERKNS2_7IConfigERKNS_6vectorIS3_NS_9allocatorIS3_EEEEE4$_15EEvT_SI_RT0_', symObjAddr: 0xCE3C8, symBinAddr: 0x1000CF9CC, symSize: 0x18 }
  - { offsetInCU: 0xC3656, offset: 0xC3656, size: 0x8, addend: 0x0, symName: '__ZNSt3__124__sort3_maybe_branchlessB8ue170006INS_17_ClassicAlgPolicyERZN5Catch9sortTestsERKNS2_7IConfigERKNS_6vectorINS2_8TestCaseENS_9allocatorIS7_EEEEE4$_15PNS_4pairIyPKS7_EEEENS_9enable_ifIXntsr21__use_branchless_sortIT0_T1_EE5valueEvE4typeESM_SM_SM_SL_', symObjAddr: 0xCE8F8, symBinAddr: 0x1000CFEFC, symSize: 0x3C }
  - { offsetInCU: 0xC36CC, offset: 0xC36CC, size: 0x8, addend: 0x0, symName: '__ZNSt3__124__sort4_maybe_branchlessB8ue170006INS_17_ClassicAlgPolicyERZN5Catch9sortTestsERKNS2_7IConfigERKNS_6vectorINS2_8TestCaseENS_9allocatorIS7_EEEEE4$_15PNS_4pairIyPKS7_EEEENS_9enable_ifIXntsr21__use_branchless_sortIT0_T1_EE5valueEvE4typeESM_SM_SM_SM_SL_', symObjAddr: 0xCE934, symBinAddr: 0x1000CFF38, symSize: 0x44 }
  - { offsetInCU: 0xC3751, offset: 0xC3751, size: 0x8, addend: 0x0, symName: '__ZNSt3__124__sort5_maybe_branchlessB8ue170006INS_17_ClassicAlgPolicyERZN5Catch9sortTestsERKNS2_7IConfigERKNS_6vectorINS2_8TestCaseENS_9allocatorIS7_EEEEE4$_15PNS_4pairIyPKS7_EEEENS_9enable_ifIXntsr21__use_branchless_sortIT0_T1_EE5valueEvE4typeESM_SM_SM_SM_SM_SL_', symObjAddr: 0xCE978, symBinAddr: 0x1000CFF7C, symSize: 0x4C }
  - { offsetInCU: 0xC37E5, offset: 0xC37E5, size: 0x8, addend: 0x0, symName: '__ZNSt3__116__insertion_sortB8ue170006INS_17_ClassicAlgPolicyERZN5Catch9sortTestsERKNS2_7IConfigERKNS_6vectorINS2_8TestCaseENS_9allocatorIS7_EEEEE4$_15PNS_4pairIyPKS7_EEEEvT1_SK_T0_', symObjAddr: 0xCE9C4, symBinAddr: 0x1000CFFC8, symSize: 0x150 }
  - { offsetInCU: 0xC38AC, offset: 0xC38AC, size: 0x8, addend: 0x0, symName: '__ZNSt3__114__partial_sortB8ue170006INS_17_ClassicAlgPolicyERZN5Catch9sortTestsERKNS2_7IConfigERKNS_6vectorINS2_8TestCaseENS_9allocatorIS7_EEEEE4$_15PNS_4pairIyPKS7_EESJ_EET1_SK_SK_T2_RT0_', symObjAddr: 0xCEC34, symBinAddr: 0x1000D0238, symSize: 0x94 }
  - { offsetInCU: 0xC393A, offset: 0xC393A, size: 0x8, addend: 0x0, symName: '__ZNSt3__17__sort3B8ue170006INS_17_ClassicAlgPolicyERZN5Catch9sortTestsERKNS2_7IConfigERKNS_6vectorINS2_8TestCaseENS_9allocatorIS7_EEEEE4$_15PNS_4pairIyPKS7_EEEEjT1_SK_SK_T0_', symObjAddr: 0xCECC8, symBinAddr: 0x1000D02CC, symSize: 0x144 }
  - { offsetInCU: 0xC39BF, offset: 0xC39BF, size: 0x8, addend: 0x0, symName: __ZNSt3__19iter_swapB8ue170006IPNS_4pairIyPKN5Catch8TestCaseEEES7_EEvT_T0_, symObjAddr: 0xCF8B8, symBinAddr: 0x1000D0EBC, symSize: 0x2C }
  - { offsetInCU: 0xC3A09, offset: 0xC3A09, size: 0x8, addend: 0x0, symName: __ZNSt3__14swapB8ue170006IyPKN5Catch8TestCaseEEENS_9enable_ifIXaasr14__is_swappableIT_EE5valuesr14__is_swappableIT0_EE5valueEvE4typeERNS_4pairIS6_S7_EESC_, symObjAddr: 0xCF8E4, symBinAddr: 0x1000D0EE8, symSize: 0x2C }
  - { offsetInCU: 0xC3A59, offset: 0xC3A59, size: 0x8, addend: 0x0, symName: __ZNSt3__14swapB8ue170006IyEENS_9enable_ifIXaasr21is_move_constructibleIT_EE5valuesr18is_move_assignableIS2_EE5valueEvE4typeERS2_S5_, symObjAddr: 0xCF954, symBinAddr: 0x1000D0F58, symSize: 0x3C }
  - { offsetInCU: 0xC3AAE, offset: 0xC3AAE, size: 0x8, addend: 0x0, symName: __ZNSt3__14swapB8ue170006IPKN5Catch8TestCaseEEENS_9enable_ifIXaasr21is_move_constructibleIT_EE5valuesr18is_move_assignableIS6_EE5valueEvE4typeERS6_S9_, symObjAddr: 0xCF990, symBinAddr: 0x1000D0F94, symSize: 0x3C }
  - { offsetInCU: 0xC3B03, offset: 0xC3B03, size: 0x8, addend: 0x0, symName: '__ZNSt3__17__sort4B8ue170006INS_17_ClassicAlgPolicyERZN5Catch9sortTestsERKNS2_7IConfigERKNS_6vectorINS2_8TestCaseENS_9allocatorIS7_EEEEE4$_15PNS_4pairIyPKS7_EEEEvT1_SK_SK_SK_T0_', symObjAddr: 0xCF9CC, symBinAddr: 0x1000D0FD0, symSize: 0xB8 }
  - { offsetInCU: 0xC3B84, offset: 0xC3B84, size: 0x8, addend: 0x0, symName: '__ZNSt3__17__sort5B8ue170006INS_17_ClassicAlgPolicyERZN5Catch9sortTestsERKNS2_7IConfigERKNS_6vectorINS2_8TestCaseENS_9allocatorIS7_EEEEE4$_15PNS_4pairIyPKS7_EEEEvT1_SK_SK_SK_SK_T0_', symObjAddr: 0xCFA84, symBinAddr: 0x1000D1088, symSize: 0xE8 }
  - { offsetInCU: 0xC3C3B, offset: 0xC3C3B, size: 0x8, addend: 0x0, symName: __ZNSt3__123__debug_randomize_rangeB8ue170006INS_17_ClassicAlgPolicyEPNS_4pairIyPKN5Catch8TestCaseEEES8_EEvT0_T1_, symObjAddr: 0xCFBE0, symBinAddr: 0x1000D11E4, symSize: 0x14 }
  - { offsetInCU: 0xC3C8F, offset: 0xC3C8F, size: 0x8, addend: 0x0, symName: '__ZNSt3__119__partial_sort_implB8ue170006INS_17_ClassicAlgPolicyERZN5Catch9sortTestsERKNS2_7IConfigERKNS_6vectorINS2_8TestCaseENS_9allocatorIS7_EEEEE4$_15PNS_4pairIyPKS7_EESJ_EET1_SK_SK_T2_OT0_', symObjAddr: 0xCFBF4, symBinAddr: 0x1000D11F8, symSize: 0x110 }
  - { offsetInCU: 0xC3D2C, offset: 0xC3D2C, size: 0x8, addend: 0x0, symName: '__ZNSt3__111__make_heapB8ue170006INS_17_ClassicAlgPolicyERZN5Catch9sortTestsERKNS2_7IConfigERKNS_6vectorINS2_8TestCaseENS_9allocatorIS7_EEEEE4$_15PNS_4pairIyPKS7_EEEEvT1_SK_OT0_', symObjAddr: 0xCFD04, symBinAddr: 0x1000D1308, symSize: 0xB8 }
  - { offsetInCU: 0xC3DD6, offset: 0xC3DD6, size: 0x8, addend: 0x0, symName: '__ZNSt3__111__sort_heapB8ue170006INS_17_ClassicAlgPolicyERZN5Catch9sortTestsERKNS2_7IConfigERKNS_6vectorINS2_8TestCaseENS_9allocatorIS7_EEEEE4$_15PNS_4pairIyPKS7_EEEEvT1_SK_OT0_', symObjAddr: 0xCFFC8, symBinAddr: 0x1000D15CC, symSize: 0xA8 }
  - { offsetInCU: 0xC3E80, offset: 0xC3E80, size: 0x8, addend: 0x0, symName: '__ZNSt3__110__pop_heapB8ue170006INS_17_ClassicAlgPolicyEZN5Catch9sortTestsERKNS2_7IConfigERKNS_6vectorINS2_8TestCaseENS_9allocatorIS7_EEEEE4$_15PNS_4pairIyPKS7_EEEEvT1_SJ_RT0_NS_15iterator_traitsISJ_E15difference_typeE', symObjAddr: 0xD0070, symBinAddr: 0x1000D1674, symSize: 0xF4 }
  - { offsetInCU: 0xC3F39, offset: 0xC3F39, size: 0x8, addend: 0x0, symName: '__ZNSt3__19__sift_upB8ue170006INS_17_ClassicAlgPolicyERZN5Catch9sortTestsERKNS2_7IConfigERKNS_6vectorINS2_8TestCaseENS_9allocatorIS7_EEEEE4$_15PNS_4pairIyPKS7_EEEEvT1_SK_OT0_NS_15iterator_traitsISK_E15difference_typeE', symObjAddr: 0xD0264, symBinAddr: 0x1000D1868, symSize: 0x11C }
  - { offsetInCU: 0xC3FF0, offset: 0xC3FF0, size: 0x8, addend: 0x0, symName: '__ZNSt3__122__populate_left_bitsetB8ue170006IRZN5Catch9sortTestsERKNS1_7IConfigERKNS_6vectorINS1_8TestCaseENS_9allocatorIS6_EEEEE4$_15PNS_4pairIyPKS6_EESH_EEvT0_T_RT1_Ry', symObjAddr: 0xD0380, symBinAddr: 0x1000D1984, symSize: 0xA8 }
  - { offsetInCU: 0xC40AB, offset: 0xC40AB, size: 0x8, addend: 0x0, symName: '__ZNSt3__123__populate_right_bitsetB8ue170006IRZN5Catch9sortTestsERKNS1_7IConfigERKNS_6vectorINS1_8TestCaseENS_9allocatorIS6_EEEEE4$_15PNS_4pairIyPKS6_EESH_EEvT0_T_RT1_Ry', symObjAddr: 0xD0428, symBinAddr: 0x1000D1A2C, symSize: 0xA0 }
  - { offsetInCU: 0xC4166, offset: 0xC4166, size: 0x8, addend: 0x0, symName: __ZNSt3__117__swap_bitmap_posB8ue170006INS_17_ClassicAlgPolicyEPNS_4pairIyPKN5Catch8TestCaseEEEEEvT0_S9_RySA_, symObjAddr: 0xD04C8, symBinAddr: 0x1000D1ACC, symSize: 0x100 }
  - { offsetInCU: 0xC4207, offset: 0xC4207, size: 0x8, addend: 0x0, symName: '__ZNSt3__133__bitset_partition_partial_blocksB8ue170006INS_17_ClassicAlgPolicyERZN5Catch9sortTestsERKNS2_7IConfigERKNS_6vectorINS2_8TestCaseENS_9allocatorIS7_EEEEE4$_15PNS_4pairIyPKS7_EESI_EEvRT1_SL_T0_RT2_RySP_', symObjAddr: 0xD05C8, symBinAddr: 0x1000D1BCC, symSize: 0x2E8 }
  - { offsetInCU: 0xC4388, offset: 0xC4388, size: 0x8, addend: 0x0, symName: __ZNSt3__19make_pairB8ue170006IRPNS_4pairIyPKN5Catch8TestCaseEEERbEENS1_INS_18__unwrap_ref_decayIT_E4typeENSA_IT0_E4typeEEEOSB_OSE_, symObjAddr: 0xD0A90, symBinAddr: 0x1000D2094, symSize: 0x38 }
  - { offsetInCU: 0xC450B, offset: 0xC450B, size: 0x8, addend: 0x0, symName: __ZNSt3__112__to_addressB8ue170006INS_11__wrap_iterIPNS_4pairIyPKN5Catch8TestCaseEEEEEvEEu7__decayIDTclsr19__to_address_helperIT_EE6__callclsr3stdE7declvalIRKSA_EEEEESC_, symObjAddr: 0xD0B98, symBinAddr: 0x1000D219C, symSize: 0x24 }
  - { offsetInCU: 0xC45F1, offset: 0xC45F1, size: 0x8, addend: 0x0, symName: __ZNSt3__142__uninitialized_allocator_move_if_noexceptB8ue170006INS_9allocatorIN5Catch8TestCaseEEENS_16reverse_iteratorIPS3_EES7_S7_EET2_RT_T0_T1_S8_, symObjAddr: 0xD1104, symBinAddr: 0x1000D2708, symSize: 0x11C }
  - { offsetInCU: 0xC4692, offset: 0xC4692, size: 0x8, addend: 0x0, symName: __ZNSt3__14swapB8ue170006IPN5Catch8TestCaseEEENS_9enable_ifIXaasr21is_move_constructibleIT_EE5valuesr18is_move_assignableIS5_EE5valueEvE4typeERS5_S8_, symObjAddr: 0xD1220, symBinAddr: 0x1000D2824, symSize: 0x3C }
  - { offsetInCU: 0xC46E7, offset: 0xC46E7, size: 0x8, addend: 0x0, symName: __ZNSt3__122__make_exception_guardB8ue170006INS_29_AllocatorDestroyRangeReverseINS_9allocatorIN5Catch8TestCaseEEENS_16reverse_iteratorIPS4_EEEEEENS_28__exception_guard_exceptionsIT_EESB_, symObjAddr: 0xD125C, symBinAddr: 0x1000D2860, symSize: 0x4C }
  - { offsetInCU: 0xC471E, offset: 0xC471E, size: 0x8, addend: 0x0, symName: __ZNSt3__119__allocator_destroyB8ue170006INS_9allocatorIN5Catch8TestCaseEEENS_16reverse_iteratorINS5_IPS3_EEEES8_EEvRT_T0_T1_, symObjAddr: 0xD1538, symBinAddr: 0x1000D2B3C, symSize: 0x70 }
  - { offsetInCU: 0xC4784, offset: 0xC4784, size: 0x8, addend: 0x0, symName: __ZNSt3__1neB8ue170006INS_16reverse_iteratorIPN5Catch8TestCaseEEES5_EEbRKNS1_IT_EERKNS1_IT0_EE, symObjAddr: 0xD15E4, symBinAddr: 0x1000D2BE8, symSize: 0x60 }
  - { offsetInCU: 0xC47D3, offset: 0xC47D3, size: 0x8, addend: 0x0, symName: __ZNSt3__112__to_addressB8ue170006INS_16reverse_iteratorINS1_IPN5Catch8TestCaseEEEEEvEEu7__decayIDTclsr19__to_address_helperIT_EE6__callclsr3stdE7declvalIRKS7_EEEEES9_, symObjAddr: 0xD1644, symBinAddr: 0x1000D2C48, symSize: 0x24 }
  - { offsetInCU: 0xC488B, offset: 0xC488B, size: 0x8, addend: 0x0, symName: __ZNSt3__111__str_rfindB8ue170006IcmNS_11char_traitsIcEELm18446744073709551615EEET0_PKT_S3_S6_S3_S3_, symObjAddr: 0xD323C, symBinAddr: 0x1000D4840, symSize: 0x128 }
  - { offsetInCU: 0xC4934, offset: 0xC4934, size: 0x8, addend: 0x0, symName: __ZNSt3__118__find_end_classicB8ue170006IPKcS2_DoFbccEEET_S4_S4_T0_S5_RT1_, symObjAddr: 0xD3364, symBinAddr: 0x1000D4968, symSize: 0x64 }
  - { offsetInCU: 0xC49C8, offset: 0xC49C8, size: 0x8, addend: 0x0, symName: __ZNSt3__115__find_end_implB8ue170006INS_17_ClassicAlgPolicyEPKcS3_S3_S3_DoFbccENS_10__identityES5_EENS_4pairIT0_S7_EES7_T1_T2_T3_RT4_RT5_RT6_NS_20forward_iterator_tagESI_, symObjAddr: 0xD33C8, symBinAddr: 0x1000D49CC, symSize: 0x1F4 }
  - { offsetInCU: 0xC4AF9, offset: 0xC4AF9, size: 0x8, addend: 0x0, symName: __ZNSt3__18__invokeB8ue170006IRDoFbccEJRKcS4_EEEDTclclsr3stdE7declvalIT_EEspclsr3stdE7declvalIT0_EEEEOS5_DpOS6_, symObjAddr: 0xD3610, symBinAddr: 0x1000D4C14, symSize: 0x40 }
  - { offsetInCU: 0xC4B61, offset: 0xC4B61, size: 0x8, addend: 0x0, symName: __ZNSt3__115allocate_sharedB8ue170006IN5Catch16TestCaseTracking14SectionTrackerENS_9allocatorIS3_EEJNS2_15NameAndLocationERNS2_14TrackerContextEDnEvEENS_10shared_ptrIT_EERKT0_DpOT1_, symObjAddr: 0xD3684, symBinAddr: 0x1000D4C88, symSize: 0xA8 }
  - { offsetInCU: 0xC4F62, offset: 0xC4F62, size: 0x8, addend: 0x0, symName: __ZNSt3__14swapB8ue170006IPN5Catch16TestCaseTracking8ITrackerEEENS_9enable_ifIXaasr21is_move_constructibleIT_EE5valuesr18is_move_assignableIS6_EE5valueEvE4typeERS6_S9_, symObjAddr: 0xD4074, symBinAddr: 0x1000D5678, symSize: 0x3C }
  - { offsetInCU: 0xC4FB7, offset: 0xC4FB7, size: 0x8, addend: 0x0, symName: __ZNSt3__119__allocate_at_leastB8ue170006INS_9allocatorINS_10shared_ptrIN5Catch16TestCaseTracking8ITrackerEEEEEEENS_19__allocation_resultINS_16allocator_traitsIT_E7pointerEEERSA_m, symObjAddr: 0xD4950, symBinAddr: 0x1000D5F54, symSize: 0x40 }
  - { offsetInCU: 0xC4FFC, offset: 0xC4FFC, size: 0x8, addend: 0x0, symName: __ZNSt3__142__uninitialized_allocator_move_if_noexceptB8ue170006INS_9allocatorINS_10shared_ptrIN5Catch16TestCaseTracking8ITrackerEEEEENS_16reverse_iteratorIPS6_EESA_SA_EET2_RT_T0_T1_SB_, symObjAddr: 0xD4B04, symBinAddr: 0x1000D6108, symSize: 0x12C }
  - { offsetInCU: 0xC509D, offset: 0xC509D, size: 0x8, addend: 0x0, symName: __ZNSt3__14swapB8ue170006IPNS_10shared_ptrIN5Catch16TestCaseTracking8ITrackerEEEEENS_9enable_ifIXaasr21is_move_constructibleIT_EE5valuesr18is_move_assignableIS8_EE5valueEvE4typeERS8_SB_, symObjAddr: 0xD4C7C, symBinAddr: 0x1000D6280, symSize: 0x3C }
  - { offsetInCU: 0xC50F2, offset: 0xC50F2, size: 0x8, addend: 0x0, symName: __ZNSt3__122__make_exception_guardB8ue170006INS_29_AllocatorDestroyRangeReverseINS_9allocatorINS_10shared_ptrIN5Catch16TestCaseTracking8ITrackerEEEEENS_16reverse_iteratorIPS7_EEEEEENS_28__exception_guard_exceptionsIT_EESE_, symObjAddr: 0xD4D64, symBinAddr: 0x1000D6368, symSize: 0x4C }
  - { offsetInCU: 0xC512A, offset: 0xC512A, size: 0x8, addend: 0x0, symName: __ZNSt3__1neB8ue170006IPNS_10shared_ptrIN5Catch16TestCaseTracking8ITrackerEEES6_EEbRKNS_16reverse_iteratorIT_EERKNS7_IT0_EE, symObjAddr: 0xD4DF4, symBinAddr: 0x1000D63F8, symSize: 0x48 }
  - { offsetInCU: 0xC5179, offset: 0xC5179, size: 0x8, addend: 0x0, symName: __ZNSt3__112__to_addressB8ue170006INS_16reverse_iteratorIPNS_10shared_ptrIN5Catch16TestCaseTracking8ITrackerEEEEEvEEu7__decayIDTclsr19__to_address_helperIT_EE6__callclsr3stdE7declvalIRKS9_EEEEESB_, symObjAddr: 0xD4E70, symBinAddr: 0x1000D6474, symSize: 0x24 }
  - { offsetInCU: 0xC51DB, offset: 0xC51DB, size: 0x8, addend: 0x0, symName: __ZNSt3__119__allocator_destroyB8ue170006INS_9allocatorINS_10shared_ptrIN5Catch16TestCaseTracking8ITrackerEEEEENS_16reverse_iteratorINS8_IPS6_EEEESB_EEvRT_T0_T1_, symObjAddr: 0xD51C4, symBinAddr: 0x1000D67C8, symSize: 0x70 }
  - { offsetInCU: 0xC5241, offset: 0xC5241, size: 0x8, addend: 0x0, symName: __ZNSt3__1neB8ue170006INS_16reverse_iteratorIPNS_10shared_ptrIN5Catch16TestCaseTracking8ITrackerEEEEES8_EEbRKNS1_IT_EERKNS1_IT0_EE, symObjAddr: 0xD5270, symBinAddr: 0x1000D6874, symSize: 0x60 }
  - { offsetInCU: 0xC5290, offset: 0xC5290, size: 0x8, addend: 0x0, symName: __ZNSt3__112__to_addressB8ue170006INS_16reverse_iteratorINS1_IPNS_10shared_ptrIN5Catch16TestCaseTracking8ITrackerEEEEEEEvEEu7__decayIDTclsr19__to_address_helperIT_EE6__callclsr3stdE7declvalIRKSA_EEEEESC_, symObjAddr: 0xD52D0, symBinAddr: 0x1000D68D4, symSize: 0x24 }
  - { offsetInCU: 0xC52F3, offset: 0xC52F3, size: 0x8, addend: 0x0, symName: __ZNSt3__14swapB8ue170006IPN5Catch16TestCaseTracking14SectionTrackerEEENS_9enable_ifIXaasr21is_move_constructibleIT_EE5valuesr18is_move_assignableIS6_EE5valueEvE4typeERS6_S9_, symObjAddr: 0xD58C4, symBinAddr: 0x1000D6EC8, symSize: 0x3C }
  - { offsetInCU: 0xC5347, offset: 0xC5347, size: 0x8, addend: 0x0, symName: __ZNSt3__115allocate_sharedB8ue170006IN5Catch16TestCaseTracking14SectionTrackerENS_9allocatorIS3_EEJRKNS2_15NameAndLocationERNS2_14TrackerContextEPNS2_8ITrackerEEvEENS_10shared_ptrIT_EERKT0_DpOT1_, symObjAddr: 0xD5900, symBinAddr: 0x1000D6F04, symSize: 0xA8 }
  - { offsetInCU: 0xC53EE, offset: 0xC53EE, size: 0x8, addend: 0x0, symName: __ZNSt3__18distanceB8ue170006INS_11__wrap_iterIPKNS_12basic_stringIcNS_11char_traitsIcEENS_9allocatorIcEEEEEEEENS_15iterator_traitsIT_E15difference_typeESC_SC_, symObjAddr: 0xD6014, symBinAddr: 0x1000D7618, symSize: 0x3C }
  - { offsetInCU: 0xC5434, offset: 0xC5434, size: 0x8, addend: 0x0, symName: __ZNSt3__14nextB8ue170006INS_11__wrap_iterIPKNS_12basic_stringIcNS_11char_traitsIcEENS_9allocatorIcEEEEEEEENS_9enable_ifIXsr29__has_input_iterator_categoryIT_EE5valueESC_E4typeESC_NS_15iterator_traitsISC_E15difference_typeE, symObjAddr: 0xD6050, symBinAddr: 0x1000D7654, symSize: 0x3C }
  - { offsetInCU: 0xC547A, offset: 0xC547A, size: 0x8, addend: 0x0, symName: __ZNSt3__14copyB8ue170006INS_11__wrap_iterIPKNS_12basic_stringIcNS_11char_traitsIcEENS_9allocatorIcEEEEEEPS7_EET0_T_SD_SC_, symObjAddr: 0xD6160, symBinAddr: 0x1000D7764, symSize: 0x50 }
  - { offsetInCU: 0xC54D8, offset: 0xC54D8, size: 0x8, addend: 0x0, symName: __ZNSt3__19__advanceB8ue170006INS_11__wrap_iterIPKNS_12basic_stringIcNS_11char_traitsIcEENS_9allocatorIcEEEEEEEEvRT_NS_15iterator_traitsISB_E15difference_typeENS_26random_access_iterator_tagE, symObjAddr: 0xD6280, symBinAddr: 0x1000D7884, symSize: 0x2C }
  - { offsetInCU: 0xC5524, offset: 0xC5524, size: 0x8, addend: 0x0, symName: __ZNSt3__130__uninitialized_allocator_copyB8ue170006INS_9allocatorINS_12basic_stringIcNS_11char_traitsIcEENS1_IcEEEEEENS_11__wrap_iterIPKS6_EESB_PS6_EET2_RT_T0_T1_SD_, symObjAddr: 0xD62AC, symBinAddr: 0x1000D78B0, symSize: 0x90 }
  - { offsetInCU: 0xC55C2, offset: 0xC55C2, size: 0x8, addend: 0x0, symName: __ZNSt3__114__unwrap_rangeB8ue170006INS_11__wrap_iterIPKNS_12basic_stringIcNS_11char_traitsIcEENS_9allocatorIcEEEEEES9_EENS_4pairIT0_SC_EET_SE_, symObjAddr: 0xD633C, symBinAddr: 0x1000D7940, symSize: 0x70 }
  - { offsetInCU: 0xC5611, offset: 0xC5611, size: 0x8, addend: 0x0, symName: __ZNSt3__16__copyB8ue170006INS_17_ClassicAlgPolicyENS_11__wrap_iterIPKNS_12basic_stringIcNS_11char_traitsIcEENS_9allocatorIcEEEEEESB_PS8_EENS_4pairIT0_T2_EESE_T1_SF_, symObjAddr: 0xD63AC, symBinAddr: 0x1000D79B0, symSize: 0x54 }
  - { offsetInCU: 0xC5681, offset: 0xC5681, size: 0x8, addend: 0x0, symName: __ZNSt3__123__dispatch_copy_or_moveB8ue170006INS_17_ClassicAlgPolicyENS_11__copy_loopIS1_EENS_14__copy_trivialENS_11__wrap_iterIPKNS_12basic_stringIcNS_11char_traitsIcEENS_9allocatorIcEEEEEESE_PSB_EENS_4pairIT2_T4_EESH_T3_SI_, symObjAddr: 0xD6400, symBinAddr: 0x1000D7A04, symSize: 0x54 }
  - { offsetInCU: 0xC5703, offset: 0xC5703, size: 0x8, addend: 0x0, symName: __ZNSt3__121__unwrap_and_dispatchB8ue170006INS_10__overloadINS_11__copy_loopINS_17_ClassicAlgPolicyEEENS_14__copy_trivialEEENS_11__wrap_iterIPKNS_12basic_stringIcNS_11char_traitsIcEENS_9allocatorIcEEEEEESG_PSD_Li0EEENS_4pairIT0_T2_EESJ_T1_SK_, symObjAddr: 0xD6454, symBinAddr: 0x1000D7A58, symSize: 0xCC }
  - { offsetInCU: 0xC5797, offset: 0xC5797, size: 0x8, addend: 0x0, symName: __ZNSt3__19make_pairB8ue170006INS_11__wrap_iterIPKNS_12basic_stringIcNS_11char_traitsIcEENS_9allocatorIcEEEEEEPS7_EENS_4pairINS_18__unwrap_ref_decayIT_E4typeENSD_IT0_E4typeEEEOSE_OSH_, symObjAddr: 0xD6520, symBinAddr: 0x1000D7B24, symSize: 0x38 }
  - { offsetInCU: 0xC57E7, offset: 0xC57E7, size: 0x8, addend: 0x0, symName: __ZNSt3__114__rewrap_rangeB8ue170006INS_11__wrap_iterIPKNS_12basic_stringIcNS_11char_traitsIcEENS_9allocatorIcEEEEEES9_EET_SB_T0_, symObjAddr: 0xD6558, symBinAddr: 0x1000D7B5C, symSize: 0x3C }
  - { offsetInCU: 0xC5911, offset: 0xC5911, size: 0x8, addend: 0x0, symName: __ZNSt3__110__distanceB8ue170006INS_11__wrap_iterIPKNS_12basic_stringIcNS_11char_traitsIcEENS_9allocatorIcEEEEEEEENS_15iterator_traitsIT_E15difference_typeESC_SC_NS_26random_access_iterator_tagE, symObjAddr: 0xD6604, symBinAddr: 0x1000D7C08, symSize: 0x30 }
  - { offsetInCU: 0xC5962, offset: 0xC5962, size: 0x8, addend: 0x0, symName: __ZNSt3__1neB8ue170006IPKN5Catch8TestSpec6FilterEEEbRKNS_11__wrap_iterIT_EESA_, symObjAddr: 0xD6848, symBinAddr: 0x1000D7E4C, symSize: 0x34 }
  - { offsetInCU: 0xC59A8, offset: 0xC59A8, size: 0x8, addend: 0x0, symName: __ZNSt3__1eqB8ue170006IPKN5Catch8TestSpec6FilterEEEbRKNS_11__wrap_iterIT_EESA_, symObjAddr: 0xD68E8, symBinAddr: 0x1000D7EEC, symSize: 0x48 }
  - { offsetInCU: 0xC59EE, offset: 0xC59EE, size: 0x8, addend: 0x0, symName: __ZNSt3__122__make_exception_guardB8ue170006INS_6vectorIN5Catch8TestSpec11FilterMatchENS_9allocatorIS4_EEE16__destroy_vectorEEENS_28__exception_guard_exceptionsIT_EESA_, symObjAddr: 0xD6A1C, symBinAddr: 0x1000D8020, symSize: 0x40 }
  - { offsetInCU: 0xC5A25, offset: 0xC5A25, size: 0x8, addend: 0x0, symName: __ZNSt3__119__allocate_at_leastB8ue170006INS_9allocatorIN5Catch8TestSpec11FilterMatchEEEEENS_19__allocation_resultINS_16allocator_traitsIT_E7pointerEEERS8_m, symObjAddr: 0xD6CF4, symBinAddr: 0x1000D82F8, symSize: 0x40 }
  - { offsetInCU: 0xC5A6B, offset: 0xC5A6B, size: 0x8, addend: 0x0, symName: __ZNSt3__119__allocate_at_leastB8ue170006INS_9allocatorIPKN5Catch8TestCaseEEEEENS_19__allocation_resultINS_16allocator_traitsIT_E7pointerEEERS9_m, symObjAddr: 0xD7C08, symBinAddr: 0x1000D920C, symSize: 0x40 }
  - { offsetInCU: 0xC5AB0, offset: 0xC5AB0, size: 0x8, addend: 0x0, symName: __ZNSt3__142__uninitialized_allocator_move_if_noexceptB8ue170006INS_9allocatorIPKN5Catch8TestCaseEEENS_16reverse_iteratorIPS5_EES9_S5_vEET1_RT_T0_SD_SA_, symObjAddr: 0xD7DBC, symBinAddr: 0x1000D93C0, symSize: 0x78 }
  - { offsetInCU: 0xC5B2E, offset: 0xC5B2E, size: 0x8, addend: 0x0, symName: __ZNSt3__14swapB8ue170006IPPKN5Catch8TestCaseEEENS_9enable_ifIXaasr21is_move_constructibleIT_EE5valuesr18is_move_assignableIS7_EE5valueEvE4typeERS7_SA_, symObjAddr: 0xD7E80, symBinAddr: 0x1000D9484, symSize: 0x3C }
  - { offsetInCU: 0xC5B83, offset: 0xC5B83, size: 0x8, addend: 0x0, symName: __ZNSt3__14moveB8ue170006INS_16reverse_iteratorIPPKN5Catch8TestCaseEEES7_EET0_T_S9_S8_, symObjAddr: 0xD7F68, symBinAddr: 0x1000D956C, symSize: 0x78 }
  - { offsetInCU: 0xC5BE1, offset: 0xC5BE1, size: 0x8, addend: 0x0, symName: __ZNSt3__16__moveB8ue170006INS_17_ClassicAlgPolicyENS_16reverse_iteratorIPPKN5Catch8TestCaseEEES8_S8_EENS_4pairIT0_T2_EESA_T1_SB_, symObjAddr: 0xD7FE0, symBinAddr: 0x1000D95E4, symSize: 0x64 }
  - { offsetInCU: 0xC5C51, offset: 0xC5C51, size: 0x8, addend: 0x0, symName: __ZNSt3__123__dispatch_copy_or_moveB8ue170006INS_17_ClassicAlgPolicyENS_11__move_loopIS1_EENS_14__move_trivialENS_16reverse_iteratorIPPKN5Catch8TestCaseEEESB_SB_EENS_4pairIT2_T4_EESD_T3_SE_, symObjAddr: 0xD8044, symBinAddr: 0x1000D9648, symSize: 0x64 }
  - { offsetInCU: 0xC5CD3, offset: 0xC5CD3, size: 0x8, addend: 0x0, symName: __ZNSt3__121__unwrap_and_dispatchB8ue170006INS_10__overloadINS_11__move_loopINS_17_ClassicAlgPolicyEEENS_14__move_trivialEEENS_16reverse_iteratorIPPKN5Catch8TestCaseEEESD_SD_Li0EEENS_4pairIT0_T2_EESF_T1_SG_, symObjAddr: 0xD80A8, symBinAddr: 0x1000D96AC, symSize: 0x12C }
  - { offsetInCU: 0xC5D6A, offset: 0xC5D6A, size: 0x8, addend: 0x0, symName: __ZNSt3__114__unwrap_rangeB8ue170006INS_16reverse_iteratorIPPKN5Catch8TestCaseEEES7_EENS_4pairIT0_S9_EET_SB_, symObjAddr: 0xD81D4, symBinAddr: 0x1000D97D8, symSize: 0x84 }
  - { offsetInCU: 0xC5E94, offset: 0xC5E94, size: 0x8, addend: 0x0, symName: __ZNSt3__113__unwrap_iterB8ue170006INS_16reverse_iteratorIPPKN5Catch8TestCaseEEENS_18__unwrap_iter_implIS7_Lb0EEELi0EEEDTclsrT0_8__unwrapclsr3stdE7declvalIT_EEEESB_, symObjAddr: 0xD82F8, symBinAddr: 0x1000D98FC, symSize: 0x44 }
  - { offsetInCU: 0xC5EDA, offset: 0xC5EDA, size: 0x8, addend: 0x0, symName: __ZNSt3__19make_pairB8ue170006INS_16reverse_iteratorIPPKN5Catch8TestCaseEEES7_EENS_4pairINS_18__unwrap_ref_decayIT_E4typeENS9_IT0_E4typeEEEOSA_OSD_, symObjAddr: 0xD833C, symBinAddr: 0x1000D9940, symSize: 0x38 }
  - { offsetInCU: 0xC5F2A, offset: 0xC5F2A, size: 0x8, addend: 0x0, symName: __ZNSt3__114__rewrap_rangeB8ue170006INS_16reverse_iteratorIPPKN5Catch8TestCaseEEES7_EET_S8_T0_, symObjAddr: 0xD8374, symBinAddr: 0x1000D9978, symSize: 0x5C }
  - { offsetInCU: 0xC5F79, offset: 0xC5F79, size: 0x8, addend: 0x0, symName: __ZNSt3__113__rewrap_iterB8ue170006INS_16reverse_iteratorIPPKN5Catch8TestCaseEEES7_NS_18__unwrap_iter_implIS7_Lb0EEEEET_SA_T0_, symObjAddr: 0xD83D0, symBinAddr: 0x1000D99D4, symSize: 0x74 }
  - { offsetInCU: 0xC5FD1, offset: 0xC5FD1, size: 0x8, addend: 0x0, symName: __ZNSt3__1neB8ue170006IPPKN5Catch8TestCaseES5_EEbRKNS_16reverse_iteratorIT_EERKNS6_IT0_EE, symObjAddr: 0xD8444, symBinAddr: 0x1000D9A48, symSize: 0x48 }
  - { offsetInCU: 0xC6093, offset: 0xC6093, size: 0x8, addend: 0x0, symName: __ZNSt3__122__make_exception_guardB8ue170006INS_6vectorIPKN5Catch8TestCaseENS_9allocatorIS5_EEE16__destroy_vectorEEENS_28__exception_guard_exceptionsIT_EESB_, symObjAddr: 0xD89C8, symBinAddr: 0x1000D9FCC, symSize: 0x40 }
  - { offsetInCU: 0xC60C9, offset: 0xC60C9, size: 0x8, addend: 0x0, symName: __ZNSt3__130__uninitialized_allocator_copyB8ue170006INS_9allocatorIPKN5Catch8TestCaseEEEPS5_S7_S7_EET2_RT_T0_T1_S8_, symObjAddr: 0xD8BE0, symBinAddr: 0x1000DA1E4, symSize: 0x80 }
  - { offsetInCU: 0xC6167, offset: 0xC6167, size: 0x8, addend: 0x0, symName: __ZNSt3__114__unwrap_rangeB8ue170006IPPKN5Catch8TestCaseES5_EENS_4pairIT0_S7_EET_S9_, symObjAddr: 0xD8C60, symBinAddr: 0x1000DA264, symSize: 0x60 }
  - { offsetInCU: 0xC61B5, offset: 0xC61B5, size: 0x8, addend: 0x0, symName: __ZNSt3__135__uninitialized_allocator_copy_implB8ue170006INS_9allocatorIPKN5Catch8TestCaseEEES5_S5_S5_LPv0EEEPT2_RT_PT0_SD_S9_, symObjAddr: 0xD8CC0, symBinAddr: 0x1000DA2C4, symSize: 0x38 }
  - { offsetInCU: 0xC6238, offset: 0xC6238, size: 0x8, addend: 0x0, symName: __ZNSt3__113__unwrap_iterB8ue170006IPPKN5Catch8TestCaseENS_18__unwrap_iter_implIS5_Lb1EEELi0EEEDTclsrT0_8__unwrapclsr3stdE7declvalIT_EEEES9_, symObjAddr: 0xD8CF8, symBinAddr: 0x1000DA2FC, symSize: 0x24 }
  - { offsetInCU: 0xC627F, offset: 0xC627F, size: 0x8, addend: 0x0, symName: __ZNSt3__113__rewrap_iterB8ue170006IPPKN5Catch8TestCaseES5_NS_18__unwrap_iter_implIS5_Lb1EEEEET_S8_T0_, symObjAddr: 0xD8D1C, symBinAddr: 0x1000DA320, symSize: 0x3C }
  - { offsetInCU: 0xC62D6, offset: 0xC62D6, size: 0x8, addend: 0x0, symName: __ZNSt3__19make_pairB8ue170006IPPKN5Catch8TestCaseES5_EENS_4pairINS_18__unwrap_ref_decayIT_E4typeENS7_IT0_E4typeEEEOS8_OSB_, symObjAddr: 0xD8D58, symBinAddr: 0x1000DA35C, symSize: 0x38 }
  - { offsetInCU: 0xC6432, offset: 0xC6432, size: 0x8, addend: 0x0, symName: __ZNSt3__14copyB8ue170006IPPKN5Catch8TestCaseES5_EET0_T_S7_S6_, symObjAddr: 0xD8E00, symBinAddr: 0x1000DA404, symSize: 0x40 }
  - { offsetInCU: 0xC6490, offset: 0xC6490, size: 0x8, addend: 0x0, symName: __ZNSt3__16__copyB8ue170006INS_17_ClassicAlgPolicyEPPKN5Catch8TestCaseES6_S6_EENS_4pairIT0_T2_EES8_T1_S9_, symObjAddr: 0xD8E40, symBinAddr: 0x1000DA444, symSize: 0x44 }
  - { offsetInCU: 0xC6500, offset: 0xC6500, size: 0x8, addend: 0x0, symName: __ZNSt3__123__dispatch_copy_or_moveB8ue170006INS_17_ClassicAlgPolicyENS_11__copy_loopIS1_EENS_14__copy_trivialEPPKN5Catch8TestCaseES9_S9_EENS_4pairIT2_T4_EESB_T3_SC_, symObjAddr: 0xD8E84, symBinAddr: 0x1000DA488, symSize: 0x44 }
  - { offsetInCU: 0xC6582, offset: 0xC6582, size: 0x8, addend: 0x0, symName: __ZNSt3__121__unwrap_and_dispatchB8ue170006INS_10__overloadINS_11__copy_loopINS_17_ClassicAlgPolicyEEENS_14__copy_trivialEEEPPKN5Catch8TestCaseESB_SB_Li0EEENS_4pairIT0_T2_EESD_T1_SE_, symObjAddr: 0xD8EC8, symBinAddr: 0x1000DA4CC, symSize: 0xB4 }
  - { offsetInCU: 0xC6617, offset: 0xC6617, size: 0x8, addend: 0x0, symName: __ZNSt3__114__rewrap_rangeB8ue170006IPPKN5Catch8TestCaseES5_EET_S6_T0_, symObjAddr: 0xD8FC4, symBinAddr: 0x1000DA5C8, symSize: 0x2C }
  - { offsetInCU: 0xC6666, offset: 0xC6666, size: 0x8, addend: 0x0, symName: __ZNSt3__119__copy_trivial_implB8ue170006IPKN5Catch8TestCaseES4_EENS_4pairIPT_PT0_EES7_S7_S9_, symObjAddr: 0xD8FF0, symBinAddr: 0x1000DA5F4, symSize: 0x80 }
  - { offsetInCU: 0xC66D3, offset: 0xC66D3, size: 0x8, addend: 0x0, symName: __ZNSt3__119__constexpr_memmoveB8ue170006IPKN5Catch8TestCaseES4_Li0EEEPT_S6_PT0_NS_15__element_countE, symObjAddr: 0xD9070, symBinAddr: 0x1000DA674, symSize: 0x64 }
  - { offsetInCU: 0xC6746, offset: 0xC6746, size: 0x8, addend: 0x0, symName: __ZNSt3__19make_pairB8ue170006IRPPKN5Catch8TestCaseES5_EENS_4pairINS_18__unwrap_ref_decayIT_E4typeENS8_IT0_E4typeEEEOS9_OSC_, symObjAddr: 0xD90D4, symBinAddr: 0x1000DA6D8, symSize: 0x38 }
  - { offsetInCU: 0xC67ED, offset: 0xC67ED, size: 0x8, addend: 0x0, symName: __ZNSt3__142__uninitialized_allocator_move_if_noexceptB8ue170006INS_9allocatorIN5Catch8TestSpec6FilterEEENS_16reverse_iteratorIPS4_EES8_S8_EET2_RT_T0_T1_S9_, symObjAddr: 0xD9C5C, symBinAddr: 0x1000DB260, symSize: 0x11C }
  - { offsetInCU: 0xC688E, offset: 0xC688E, size: 0x8, addend: 0x0, symName: __ZNSt3__14swapB8ue170006IPN5Catch8TestSpec6FilterEEENS_9enable_ifIXaasr21is_move_constructibleIT_EE5valuesr18is_move_assignableIS6_EE5valueEvE4typeERS6_S9_, symObjAddr: 0xD9D78, symBinAddr: 0x1000DB37C, symSize: 0x3C }
  - { offsetInCU: 0xC68E3, offset: 0xC68E3, size: 0x8, addend: 0x0, symName: __ZNSt3__122__make_exception_guardB8ue170006INS_29_AllocatorDestroyRangeReverseINS_9allocatorIN5Catch8TestSpec6FilterEEENS_16reverse_iteratorIPS5_EEEEEENS_28__exception_guard_exceptionsIT_EESC_, symObjAddr: 0xD9DB4, symBinAddr: 0x1000DB3B8, symSize: 0x4C }
  - { offsetInCU: 0xC691A, offset: 0xC691A, size: 0x8, addend: 0x0, symName: __ZNSt3__119__allocator_destroyB8ue170006INS_9allocatorIN5Catch8TestSpec6FilterEEENS_16reverse_iteratorINS6_IPS4_EEEES9_EEvRT_T0_T1_, symObjAddr: 0xDA1F0, symBinAddr: 0x1000DB7F4, symSize: 0x70 }
  - { offsetInCU: 0xC6980, offset: 0xC6980, size: 0x8, addend: 0x0, symName: __ZNSt3__1neB8ue170006INS_16reverse_iteratorIPN5Catch8TestSpec6FilterEEES6_EEbRKNS1_IT_EERKNS1_IT0_EE, symObjAddr: 0xDA29C, symBinAddr: 0x1000DB8A0, symSize: 0x60 }
  - { offsetInCU: 0xC69CF, offset: 0xC69CF, size: 0x8, addend: 0x0, symName: __ZNSt3__112__to_addressB8ue170006INS_16reverse_iteratorINS1_IPN5Catch8TestSpec6FilterEEEEEvEEu7__decayIDTclsr19__to_address_helperIT_EE6__callclsr3stdE7declvalIRKS8_EEEEESA_, symObjAddr: 0xDA2FC, symBinAddr: 0x1000DB900, symSize: 0x24 }
  - { offsetInCU: 0xC6A31, offset: 0xC6A31, size: 0x8, addend: 0x0, symName: __ZNSt3__115allocate_sharedB8ue170006IN5Catch8TestSpec11NamePatternENS_9allocatorIS3_EEJRNS_12basic_stringIcNS_11char_traitsIcEENS4_IcEEEESB_EvEENS_10shared_ptrIT_EERKT0_DpOT1_, symObjAddr: 0xDA63C, symBinAddr: 0x1000DBC40, symSize: 0xA0 }
  - { offsetInCU: 0xC6E1B, offset: 0xC6E1B, size: 0x8, addend: 0x0, symName: __ZNSt3__115allocate_sharedB8ue170006IN5Catch8TestSpec15ExcludedPatternENS_9allocatorIS3_EEJRNS_10shared_ptrINS2_7PatternEEEEvEENS6_IT_EERKT0_DpOT1_, symObjAddr: 0xDAFDC, symBinAddr: 0x1000DC5E0, symSize: 0x98 }
  - { offsetInCU: 0xC71F1, offset: 0xC71F1, size: 0x8, addend: 0x0, symName: __ZNSt3__14swapB8ue170006IPN5Catch8TestSpec7PatternEEENS_9enable_ifIXaasr21is_move_constructibleIT_EE5valuesr18is_move_assignableIS6_EE5valueEvE4typeERS6_S9_, symObjAddr: 0xDB9E4, symBinAddr: 0x1000DCFE8, symSize: 0x3C }
  - { offsetInCU: 0xC7245, offset: 0xC7245, size: 0x8, addend: 0x0, symName: __ZNSt3__142__uninitialized_allocator_move_if_noexceptB8ue170006INS_9allocatorINS_10shared_ptrIN5Catch8TestSpec7PatternEEEEENS_16reverse_iteratorIPS6_EESA_SA_EET2_RT_T0_T1_SB_, symObjAddr: 0xDC04C, symBinAddr: 0x1000DD650, symSize: 0x11C }
  - { offsetInCU: 0xC72E6, offset: 0xC72E6, size: 0x8, addend: 0x0, symName: __ZNSt3__14swapB8ue170006IPNS_10shared_ptrIN5Catch8TestSpec7PatternEEEEENS_9enable_ifIXaasr21is_move_constructibleIT_EE5valuesr18is_move_assignableIS8_EE5valueEvE4typeERS8_SB_, symObjAddr: 0xDC168, symBinAddr: 0x1000DD76C, symSize: 0x3C }
  - { offsetInCU: 0xC733B, offset: 0xC733B, size: 0x8, addend: 0x0, symName: __ZNSt3__122__make_exception_guardB8ue170006INS_29_AllocatorDestroyRangeReverseINS_9allocatorINS_10shared_ptrIN5Catch8TestSpec7PatternEEEEENS_16reverse_iteratorIPS7_EEEEEENS_28__exception_guard_exceptionsIT_EESE_, symObjAddr: 0xDC1A4, symBinAddr: 0x1000DD7A8, symSize: 0x4C }
  - { offsetInCU: 0xC7372, offset: 0xC7372, size: 0x8, addend: 0x0, symName: __ZNSt3__119__allocator_destroyB8ue170006INS_9allocatorINS_10shared_ptrIN5Catch8TestSpec7PatternEEEEENS_16reverse_iteratorINS8_IPS6_EEEESB_EEvRT_T0_T1_, symObjAddr: 0xDC4F4, symBinAddr: 0x1000DDAF8, symSize: 0x70 }
  - { offsetInCU: 0xC73D8, offset: 0xC73D8, size: 0x8, addend: 0x0, symName: __ZNSt3__1neB8ue170006INS_16reverse_iteratorIPNS_10shared_ptrIN5Catch8TestSpec7PatternEEEEES8_EEbRKNS1_IT_EERKNS1_IT0_EE, symObjAddr: 0xDC5A0, symBinAddr: 0x1000DDBA4, symSize: 0x60 }
  - { offsetInCU: 0xC7427, offset: 0xC7427, size: 0x8, addend: 0x0, symName: __ZNSt3__112__to_addressB8ue170006INS_16reverse_iteratorINS1_IPNS_10shared_ptrIN5Catch8TestSpec7PatternEEEEEEEvEEu7__decayIDTclsr19__to_address_helperIT_EE6__callclsr3stdE7declvalIRKSA_EEEEESC_, symObjAddr: 0xDC600, symBinAddr: 0x1000DDC04, symSize: 0x24 }
  - { offsetInCU: 0xC748A, offset: 0xC748A, size: 0x8, addend: 0x0, symName: __ZNSt3__1miB8ue170006IPKcPcEEDTmicldtfp_4baseEcldtfp0_4baseEERKNS_11__wrap_iterIT_EERKNS5_IT0_EE, symObjAddr: 0xDC940, symBinAddr: 0x1000DDF44, symSize: 0x40 }
  - { offsetInCU: 0xC74D8, offset: 0xC74D8, size: 0x8, addend: 0x0, symName: __ZNSt3__115allocate_sharedB8ue170006IN5Catch8TestSpec10TagPatternENS_9allocatorIS3_EEJRA2_KcRNS_12basic_stringIcNS_11char_traitsIcEENS4_IcEEEEEvEENS_10shared_ptrIT_EERKT0_DpOT1_, symObjAddr: 0xDC9E4, symBinAddr: 0x1000DDFE8, symSize: 0xA0 }
  - { offsetInCU: 0xC78C2, offset: 0xC78C2, size: 0x8, addend: 0x0, symName: __ZNSt3__115allocate_sharedB8ue170006IN5Catch8TestSpec10TagPatternENS_9allocatorIS3_EEJRNS_12basic_stringIcNS_11char_traitsIcEENS4_IcEEEESB_EvEENS_10shared_ptrIT_EERKT0_DpOT1_, symObjAddr: 0xDD3BC, symBinAddr: 0x1000DE9C0, symSize: 0xA0 }
  - { offsetInCU: 0xC7989, offset: 0xC7989, size: 0x8, addend: 0x0, symName: __ZNSt3__118__constexpr_wcslenB8ue170006EPKw, symObjAddr: 0xDD9D8, symBinAddr: 0x1000DEFDC, symSize: 0x24 }
  - { offsetInCU: 0xC79B6, offset: 0xC79B6, size: 0x8, addend: 0x0, symName: __ZNSt3__122__str_find_last_not_ofB8ue170006IcmNS_11char_traitsIcEELm18446744073709551615EEET0_PKT_S3_S4_S3_, symObjAddr: 0xDDA8C, symBinAddr: 0x1000DF090, symSize: 0xD0 }
  - { offsetInCU: 0xC7A5D, offset: 0xC7A5D, size: 0x8, addend: 0x0, symName: __ZNSt3__1eqB8ue170006ERKNS_21__tree_const_iteratorIN5Catch9VerbosityEPNS_11__tree_nodeIS2_PvEElEES9_, symObjAddr: 0xDEE98, symBinAddr: 0x1000E049C, symSize: 0x30 }
  - { offsetInCU: 0xC7A9B, offset: 0xC7A9B, size: 0x8, addend: 0x0, symName: __ZNSt3__14nextB8ue170006INS_21__tree_const_iteratorIN5Catch9VerbosityEPNS_11__tree_nodeIS3_PvEElEEEENS_9enable_ifIXsr29__has_input_iterator_categoryIT_EE5valueESA_E4typeESA_NS_15iterator_traitsISA_E15difference_typeE, symObjAddr: 0xDF170, symBinAddr: 0x1000E0774, symSize: 0x3C }
  - { offsetInCU: 0xC7AE1, offset: 0xC7AE1, size: 0x8, addend: 0x0, symName: __ZNSt3__19__advanceB8ue170006INS_21__tree_const_iteratorIN5Catch9VerbosityEPNS_11__tree_nodeIS3_PvEElEEEEvRT_NS_15iterator_traitsIS9_E15difference_typeENS_26bidirectional_iterator_tagE, symObjAddr: 0xDF2CC, symBinAddr: 0x1000E08D0, symSize: 0xA4 }
  - { offsetInCU: 0xC7B4D, offset: 0xC7B4D, size: 0x8, addend: 0x0, symName: __ZNSt3__111make_sharedB8ue170006IN5Catch17ReporterRegistrarINS1_15CompactReporterEE15ReporterFactoryEJEvEENS_10shared_ptrIT_EEDpOT0_, symObjAddr: 0xDFB1C, symBinAddr: 0x1000E1120, symSize: 0x38 }
  - { offsetInCU: 0xC7D9C, offset: 0xC7D9C, size: 0x8, addend: 0x0, symName: __ZNSt3__115allocate_sharedB8ue170006IN5Catch17ReporterRegistrarINS1_15CompactReporterEE15ReporterFactoryENS_9allocatorIS5_EEJEvEENS_10shared_ptrIT_EERKT0_DpOT1_, symObjAddr: 0xDFBB4, symBinAddr: 0x1000E11B8, symSize: 0x90 }
  - { offsetInCU: 0xC815C, offset: 0xC815C, size: 0x8, addend: 0x0, symName: __ZNSt3__119__allocate_at_leastB8ue170006INS_9allocatorIN5Catch11SectionInfoEEEEENS_19__allocation_resultINS_16allocator_traitsIT_E7pointerEEERS7_m, symObjAddr: 0xE19D0, symBinAddr: 0x1000E2FD4, symSize: 0x40 }
  - { offsetInCU: 0xC81A1, offset: 0xC81A1, size: 0x8, addend: 0x0, symName: __ZNSt3__142__uninitialized_allocator_move_if_noexceptB8ue170006INS_9allocatorIN5Catch11SectionInfoEEENS_16reverse_iteratorIPS3_EES7_S7_EET2_RT_T0_T1_S8_, symObjAddr: 0xE1B84, symBinAddr: 0x1000E3188, symSize: 0x12C }
  - { offsetInCU: 0xC8242, offset: 0xC8242, size: 0x8, addend: 0x0, symName: __ZNSt3__14swapB8ue170006IPN5Catch11SectionInfoEEENS_9enable_ifIXaasr21is_move_constructibleIT_EE5valuesr18is_move_assignableIS5_EE5valueEvE4typeERS5_S8_, symObjAddr: 0xE1CFC, symBinAddr: 0x1000E3300, symSize: 0x3C }
  - { offsetInCU: 0xC8297, offset: 0xC8297, size: 0x8, addend: 0x0, symName: __ZNSt3__122__make_exception_guardB8ue170006INS_29_AllocatorDestroyRangeReverseINS_9allocatorIN5Catch11SectionInfoEEENS_16reverse_iteratorIPS4_EEEEEENS_28__exception_guard_exceptionsIT_EESB_, symObjAddr: 0xE1DE4, symBinAddr: 0x1000E33E8, symSize: 0x4C }
  - { offsetInCU: 0xC82CF, offset: 0xC82CF, size: 0x8, addend: 0x0, symName: __ZNSt3__1neB8ue170006IPN5Catch11SectionInfoES3_EEbRKNS_16reverse_iteratorIT_EERKNS4_IT0_EE, symObjAddr: 0xE1E74, symBinAddr: 0x1000E3478, symSize: 0x48 }
  - { offsetInCU: 0xC831E, offset: 0xC831E, size: 0x8, addend: 0x0, symName: __ZNSt3__112__to_addressB8ue170006INS_16reverse_iteratorIPN5Catch11SectionInfoEEEvEEu7__decayIDTclsr19__to_address_helperIT_EE6__callclsr3stdE7declvalIRKS6_EEEEES8_, symObjAddr: 0xE1EF0, symBinAddr: 0x1000E34F4, symSize: 0x24 }
  - { offsetInCU: 0xC8380, offset: 0xC8380, size: 0x8, addend: 0x0, symName: __ZNSt3__119__allocator_destroyB8ue170006INS_9allocatorIN5Catch11SectionInfoEEENS_16reverse_iteratorINS5_IPS3_EEEES8_EEvRT_T0_T1_, symObjAddr: 0xE21D0, symBinAddr: 0x1000E37D4, symSize: 0x70 }
  - { offsetInCU: 0xC83E6, offset: 0xC83E6, size: 0x8, addend: 0x0, symName: __ZNSt3__1neB8ue170006INS_16reverse_iteratorIPN5Catch11SectionInfoEEES5_EEbRKNS1_IT_EERKNS1_IT0_EE, symObjAddr: 0xE227C, symBinAddr: 0x1000E3880, symSize: 0x60 }
  - { offsetInCU: 0xC8435, offset: 0xC8435, size: 0x8, addend: 0x0, symName: __ZNSt3__112__to_addressB8ue170006INS_16reverse_iteratorINS1_IPN5Catch11SectionInfoEEEEEvEEu7__decayIDTclsr19__to_address_helperIT_EE6__callclsr3stdE7declvalIRKS7_EEEEES9_, symObjAddr: 0xE22DC, symBinAddr: 0x1000E38E0, symSize: 0x24 }
  - { offsetInCU: 0xC8498, offset: 0xC8498, size: 0x8, addend: 0x0, symName: __ZNSt3__112__to_addressB8ue170006IN5Catch13SummaryColumnEEEPT_S4_, symObjAddr: 0xE2C14, symBinAddr: 0x1000E4218, symSize: 0x14 }
  - { offsetInCU: 0xC84CF, offset: 0xC84CF, size: 0x8, addend: 0x0, symName: __ZNSt3__119__allocate_at_leastB8ue170006INS_9allocatorIN5Catch13SummaryColumnEEEEENS_19__allocation_resultINS_16allocator_traitsIT_E7pointerEEERS7_m, symObjAddr: 0xE3594, symBinAddr: 0x1000E4B98, symSize: 0x40 }
  - { offsetInCU: 0xC8514, offset: 0xC8514, size: 0x8, addend: 0x0, symName: __ZNSt3__142__uninitialized_allocator_move_if_noexceptB8ue170006INS_9allocatorIN5Catch13SummaryColumnEEENS_16reverse_iteratorIPS3_EES7_S7_EET2_RT_T0_T1_S8_, symObjAddr: 0xE374C, symBinAddr: 0x1000E4D50, symSize: 0x12C }
  - { offsetInCU: 0xC85B5, offset: 0xC85B5, size: 0x8, addend: 0x0, symName: __ZNSt3__14swapB8ue170006IPN5Catch13SummaryColumnEEENS_9enable_ifIXaasr21is_move_constructibleIT_EE5valuesr18is_move_assignableIS5_EE5valueEvE4typeERS5_S8_, symObjAddr: 0xE38C4, symBinAddr: 0x1000E4EC8, symSize: 0x3C }
  - { offsetInCU: 0xC860A, offset: 0xC860A, size: 0x8, addend: 0x0, symName: __ZNSt3__122__make_exception_guardB8ue170006INS_29_AllocatorDestroyRangeReverseINS_9allocatorIN5Catch13SummaryColumnEEENS_16reverse_iteratorIPS4_EEEEEENS_28__exception_guard_exceptionsIT_EESB_, symObjAddr: 0xE39C8, symBinAddr: 0x1000E4FCC, symSize: 0x4C }
  - { offsetInCU: 0xC8642, offset: 0xC8642, size: 0x8, addend: 0x0, symName: __ZNSt3__1neB8ue170006IPN5Catch13SummaryColumnES3_EEbRKNS_16reverse_iteratorIT_EERKNS4_IT0_EE, symObjAddr: 0xE3A58, symBinAddr: 0x1000E505C, symSize: 0x48 }
  - { offsetInCU: 0xC8691, offset: 0xC8691, size: 0x8, addend: 0x0, symName: __ZNSt3__112__to_addressB8ue170006INS_16reverse_iteratorIPN5Catch13SummaryColumnEEEvEEu7__decayIDTclsr19__to_address_helperIT_EE6__callclsr3stdE7declvalIRKS6_EEEEES8_, symObjAddr: 0xE3AA0, symBinAddr: 0x1000E50A4, symSize: 0x24 }
  - { offsetInCU: 0xC86F3, offset: 0xC86F3, size: 0x8, addend: 0x0, symName: __ZNSt3__119__allocator_destroyB8ue170006INS_9allocatorIN5Catch13SummaryColumnEEENS_16reverse_iteratorINS5_IPS3_EEEES8_EEvRT_T0_T1_, symObjAddr: 0xE3D50, symBinAddr: 0x1000E5354, symSize: 0x70 }
  - { offsetInCU: 0xC8759, offset: 0xC8759, size: 0x8, addend: 0x0, symName: __ZNSt3__1neB8ue170006INS_16reverse_iteratorIPN5Catch13SummaryColumnEEES5_EEbRKNS1_IT_EERKNS1_IT0_EE, symObjAddr: 0xE3DFC, symBinAddr: 0x1000E5400, symSize: 0x60 }
  - { offsetInCU: 0xC87A8, offset: 0xC87A8, size: 0x8, addend: 0x0, symName: __ZNSt3__112__to_addressB8ue170006INS_16reverse_iteratorINS1_IPN5Catch13SummaryColumnEEEEEvEEu7__decayIDTclsr19__to_address_helperIT_EE6__callclsr3stdE7declvalIRKS7_EEEEES9_, symObjAddr: 0xE3E5C, symBinAddr: 0x1000E5460, symSize: 0x24 }
  - { offsetInCU: 0xC880A, offset: 0xC880A, size: 0x8, addend: 0x0, symName: __ZNSt3__111make_sharedB8ue170006IN5Catch17ReporterRegistrarINS1_15ConsoleReporterEE15ReporterFactoryEJEvEENS_10shared_ptrIT_EEDpOT0_, symObjAddr: 0xE42F4, symBinAddr: 0x1000E58F8, symSize: 0x38 }
  - { offsetInCU: 0xC8A59, offset: 0xC8A59, size: 0x8, addend: 0x0, symName: __ZNSt3__115allocate_sharedB8ue170006IN5Catch17ReporterRegistrarINS1_15ConsoleReporterEE15ReporterFactoryENS_9allocatorIS5_EEJEvEENS_10shared_ptrIT_EERKT0_DpOT1_, symObjAddr: 0xE438C, symBinAddr: 0x1000E5990, symSize: 0x90 }
  - { offsetInCU: 0xC8E19, offset: 0xC8E19, size: 0x8, addend: 0x0, symName: __ZNSt3__119__allocate_at_leastB8ue170006INS_9allocatorIN5Catch14AssertionStatsEEEEENS_19__allocation_resultINS_16allocator_traitsIT_E7pointerEEERS7_m, symObjAddr: 0xE659C, symBinAddr: 0x1000E7BA0, symSize: 0x40 }
  - { offsetInCU: 0xC8E5E, offset: 0xC8E5E, size: 0x8, addend: 0x0, symName: __ZNSt3__142__uninitialized_allocator_move_if_noexceptB8ue170006INS_9allocatorIN5Catch14AssertionStatsEEENS_16reverse_iteratorIPS3_EES7_S7_EET2_RT_T0_T1_S8_, symObjAddr: 0xE6754, symBinAddr: 0x1000E7D58, symSize: 0x12C }
  - { offsetInCU: 0xC8EFF, offset: 0xC8EFF, size: 0x8, addend: 0x0, symName: __ZNSt3__14swapB8ue170006IPN5Catch14AssertionStatsEEENS_9enable_ifIXaasr21is_move_constructibleIT_EE5valuesr18is_move_assignableIS5_EE5valueEvE4typeERS5_S8_, symObjAddr: 0xE68CC, symBinAddr: 0x1000E7ED0, symSize: 0x3C }
  - { offsetInCU: 0xC8F54, offset: 0xC8F54, size: 0x8, addend: 0x0, symName: __ZNSt3__122__make_exception_guardB8ue170006INS_29_AllocatorDestroyRangeReverseINS_9allocatorIN5Catch14AssertionStatsEEENS_16reverse_iteratorIPS4_EEEEEENS_28__exception_guard_exceptionsIT_EESB_, symObjAddr: 0xE69D0, symBinAddr: 0x1000E7FD4, symSize: 0x4C }
  - { offsetInCU: 0xC8F8C, offset: 0xC8F8C, size: 0x8, addend: 0x0, symName: __ZNSt3__1neB8ue170006IPN5Catch14AssertionStatsES3_EEbRKNS_16reverse_iteratorIT_EERKNS4_IT0_EE, symObjAddr: 0xE6A60, symBinAddr: 0x1000E8064, symSize: 0x48 }
  - { offsetInCU: 0xC8FDB, offset: 0xC8FDB, size: 0x8, addend: 0x0, symName: __ZNSt3__112__to_addressB8ue170006INS_16reverse_iteratorIPN5Catch14AssertionStatsEEEvEEu7__decayIDTclsr19__to_address_helperIT_EE6__callclsr3stdE7declvalIRKS6_EEEEES8_, symObjAddr: 0xE6AA8, symBinAddr: 0x1000E80AC, symSize: 0x24 }
  - { offsetInCU: 0xC903D, offset: 0xC903D, size: 0x8, addend: 0x0, symName: __ZNSt3__119__allocator_destroyB8ue170006INS_9allocatorIN5Catch14AssertionStatsEEENS_16reverse_iteratorINS5_IPS3_EEEES8_EEvRT_T0_T1_, symObjAddr: 0xE6D58, symBinAddr: 0x1000E835C, symSize: 0x70 }
  - { offsetInCU: 0xC90A3, offset: 0xC90A3, size: 0x8, addend: 0x0, symName: __ZNSt3__1neB8ue170006INS_16reverse_iteratorIPN5Catch14AssertionStatsEEES5_EEbRKNS1_IT_EERKNS1_IT0_EE, symObjAddr: 0xE6E04, symBinAddr: 0x1000E8408, symSize: 0x60 }
  - { offsetInCU: 0xC90F2, offset: 0xC90F2, size: 0x8, addend: 0x0, symName: __ZNSt3__112__to_addressB8ue170006INS_16reverse_iteratorINS1_IPN5Catch14AssertionStatsEEEEEvEEu7__decayIDTclsr19__to_address_helperIT_EE6__callclsr3stdE7declvalIRKS7_EEEEES9_, symObjAddr: 0xE6E64, symBinAddr: 0x1000E8468, symSize: 0x24 }
  - { offsetInCU: 0xC9154, offset: 0xC9154, size: 0x8, addend: 0x0, symName: __ZNSt3__111make_sharedB8ue170006IN5Catch22CumulativeReporterBaseINS1_13JunitReporterEE4NodeINS1_13TestCaseStatsENS4_11SectionNodeEEEJRKS6_EvEENS_10shared_ptrIT_EEDpOT0_, symObjAddr: 0xE71CC, symBinAddr: 0x1000E87D0, symSize: 0x40 }
  - { offsetInCU: 0xC9199, offset: 0xC9199, size: 0x8, addend: 0x0, symName: __ZNSt3__115allocate_sharedB8ue170006IN5Catch22CumulativeReporterBaseINS1_13JunitReporterEE4NodeINS1_13TestCaseStatsENS4_11SectionNodeEEENS_9allocatorIS8_EEJRKS6_EvEENS_10shared_ptrIT_EERKT0_DpOT1_, symObjAddr: 0xE7388, symBinAddr: 0x1000E898C, symSize: 0x98 }
  - { offsetInCU: 0xC956F, offset: 0xC956F, size: 0x8, addend: 0x0, symName: __ZNSt3__119__allocate_at_leastB8ue170006INS_9allocatorINS_10shared_ptrIN5Catch22CumulativeReporterBaseINS3_13JunitReporterEE11SectionNodeEEEEEEENS_19__allocation_resultINS_16allocator_traitsIT_E7pointerEEERSC_m, symObjAddr: 0xE86C0, symBinAddr: 0x1000E9CC4, symSize: 0x40 }
  - { offsetInCU: 0xC95B4, offset: 0xC95B4, size: 0x8, addend: 0x0, symName: __ZNSt3__142__uninitialized_allocator_move_if_noexceptB8ue170006INS_9allocatorINS_10shared_ptrIN5Catch22CumulativeReporterBaseINS3_13JunitReporterEE11SectionNodeEEEEENS_16reverse_iteratorIPS8_EESC_SC_EET2_RT_T0_T1_SD_, symObjAddr: 0xE8874, symBinAddr: 0x1000E9E78, symSize: 0x12C }
  - { offsetInCU: 0xC9655, offset: 0xC9655, size: 0x8, addend: 0x0, symName: __ZNSt3__14swapB8ue170006IPNS_10shared_ptrIN5Catch22CumulativeReporterBaseINS2_13JunitReporterEE11SectionNodeEEEEENS_9enable_ifIXaasr21is_move_constructibleIT_EE5valuesr18is_move_assignableISA_EE5valueEvE4typeERSA_SD_, symObjAddr: 0xE89EC, symBinAddr: 0x1000E9FF0, symSize: 0x3C }
  - { offsetInCU: 0xC96AA, offset: 0xC96AA, size: 0x8, addend: 0x0, symName: __ZNSt3__122__make_exception_guardB8ue170006INS_29_AllocatorDestroyRangeReverseINS_9allocatorINS_10shared_ptrIN5Catch22CumulativeReporterBaseINS4_13JunitReporterEE11SectionNodeEEEEENS_16reverse_iteratorIPS9_EEEEEENS_28__exception_guard_exceptionsIT_EESG_, symObjAddr: 0xE8AD4, symBinAddr: 0x1000EA0D8, symSize: 0x4C }
  - { offsetInCU: 0xC96E2, offset: 0xC96E2, size: 0x8, addend: 0x0, symName: __ZNSt3__1neB8ue170006IPNS_10shared_ptrIN5Catch22CumulativeReporterBaseINS2_13JunitReporterEE11SectionNodeEEES8_EEbRKNS_16reverse_iteratorIT_EERKNS9_IT0_EE, symObjAddr: 0xE8B64, symBinAddr: 0x1000EA168, symSize: 0x48 }
  - { offsetInCU: 0xC9731, offset: 0xC9731, size: 0x8, addend: 0x0, symName: __ZNSt3__112__to_addressB8ue170006INS_16reverse_iteratorIPNS_10shared_ptrIN5Catch22CumulativeReporterBaseINS3_13JunitReporterEE11SectionNodeEEEEEvEEu7__decayIDTclsr19__to_address_helperIT_EE6__callclsr3stdE7declvalIRKSB_EEEEESD_, symObjAddr: 0xE8BE0, symBinAddr: 0x1000EA1E4, symSize: 0x24 }
  - { offsetInCU: 0xC9793, offset: 0xC9793, size: 0x8, addend: 0x0, symName: __ZNSt3__119__allocator_destroyB8ue170006INS_9allocatorINS_10shared_ptrIN5Catch22CumulativeReporterBaseINS3_13JunitReporterEE11SectionNodeEEEEENS_16reverse_iteratorINSA_IPS8_EEEESD_EEvRT_T0_T1_, symObjAddr: 0xE8F34, symBinAddr: 0x1000EA538, symSize: 0x70 }
  - { offsetInCU: 0xC97F9, offset: 0xC97F9, size: 0x8, addend: 0x0, symName: __ZNSt3__1neB8ue170006INS_16reverse_iteratorIPNS_10shared_ptrIN5Catch22CumulativeReporterBaseINS3_13JunitReporterEE11SectionNodeEEEEESA_EEbRKNS1_IT_EERKNS1_IT0_EE, symObjAddr: 0xE8FE0, symBinAddr: 0x1000EA5E4, symSize: 0x60 }
  - { offsetInCU: 0xC9848, offset: 0xC9848, size: 0x8, addend: 0x0, symName: __ZNSt3__112__to_addressB8ue170006INS_16reverse_iteratorINS1_IPNS_10shared_ptrIN5Catch22CumulativeReporterBaseINS3_13JunitReporterEE11SectionNodeEEEEEEEvEEu7__decayIDTclsr19__to_address_helperIT_EE6__callclsr3stdE7declvalIRKSC_EEEEESE_, symObjAddr: 0xE9040, symBinAddr: 0x1000EA644, symSize: 0x24 }
  - { offsetInCU: 0xC98AB, offset: 0xC98AB, size: 0x8, addend: 0x0, symName: __ZNSt3__119__allocate_at_leastB8ue170006INS_9allocatorINS_10shared_ptrIN5Catch22CumulativeReporterBaseINS3_13JunitReporterEE4NodeINS3_13TestCaseStatsENS6_11SectionNodeEEEEEEEEENS_19__allocation_resultINS_16allocator_traitsIT_E7pointerEEERSF_m, symObjAddr: 0xE9B9C, symBinAddr: 0x1000EB1A0, symSize: 0x40 }
  - { offsetInCU: 0xC98F0, offset: 0xC98F0, size: 0x8, addend: 0x0, symName: __ZNSt3__142__uninitialized_allocator_move_if_noexceptB8ue170006INS_9allocatorINS_10shared_ptrIN5Catch22CumulativeReporterBaseINS3_13JunitReporterEE4NodeINS3_13TestCaseStatsENS6_11SectionNodeEEEEEEENS_16reverse_iteratorIPSB_EESF_SF_EET2_RT_T0_T1_SG_, symObjAddr: 0xE9D50, symBinAddr: 0x1000EB354, symSize: 0x12C }
  - { offsetInCU: 0xC9991, offset: 0xC9991, size: 0x8, addend: 0x0, symName: __ZNSt3__14swapB8ue170006IPNS_10shared_ptrIN5Catch22CumulativeReporterBaseINS2_13JunitReporterEE4NodeINS2_13TestCaseStatsENS5_11SectionNodeEEEEEEENS_9enable_ifIXaasr21is_move_constructibleIT_EE5valuesr18is_move_assignableISD_EE5valueEvE4typeERSD_SG_, symObjAddr: 0xE9EC8, symBinAddr: 0x1000EB4CC, symSize: 0x3C }
  - { offsetInCU: 0xC99E6, offset: 0xC99E6, size: 0x8, addend: 0x0, symName: __ZNSt3__122__make_exception_guardB8ue170006INS_29_AllocatorDestroyRangeReverseINS_9allocatorINS_10shared_ptrIN5Catch22CumulativeReporterBaseINS4_13JunitReporterEE4NodeINS4_13TestCaseStatsENS7_11SectionNodeEEEEEEENS_16reverse_iteratorIPSC_EEEEEENS_28__exception_guard_exceptionsIT_EESJ_, symObjAddr: 0xE9FB0, symBinAddr: 0x1000EB5B4, symSize: 0x4C }
  - { offsetInCU: 0xC9A1E, offset: 0xC9A1E, size: 0x8, addend: 0x0, symName: __ZNSt3__1neB8ue170006IPNS_10shared_ptrIN5Catch22CumulativeReporterBaseINS2_13JunitReporterEE4NodeINS2_13TestCaseStatsENS5_11SectionNodeEEEEESB_EEbRKNS_16reverse_iteratorIT_EERKNSC_IT0_EE, symObjAddr: 0xEA040, symBinAddr: 0x1000EB644, symSize: 0x48 }
  - { offsetInCU: 0xC9A6D, offset: 0xC9A6D, size: 0x8, addend: 0x0, symName: __ZNSt3__112__to_addressB8ue170006INS_16reverse_iteratorIPNS_10shared_ptrIN5Catch22CumulativeReporterBaseINS3_13JunitReporterEE4NodeINS3_13TestCaseStatsENS6_11SectionNodeEEEEEEEvEEu7__decayIDTclsr19__to_address_helperIT_EE6__callclsr3stdE7declvalIRKSE_EEEEESG_, symObjAddr: 0xEA0BC, symBinAddr: 0x1000EB6C0, symSize: 0x24 }
  - { offsetInCU: 0xC9ACF, offset: 0xC9ACF, size: 0x8, addend: 0x0, symName: __ZNSt3__119__allocator_destroyB8ue170006INS_9allocatorINS_10shared_ptrIN5Catch22CumulativeReporterBaseINS3_13JunitReporterEE4NodeINS3_13TestCaseStatsENS6_11SectionNodeEEEEEEENS_16reverse_iteratorINSD_IPSB_EEEESG_EEvRT_T0_T1_, symObjAddr: 0xEA410, symBinAddr: 0x1000EBA14, symSize: 0x70 }
  - { offsetInCU: 0xC9B35, offset: 0xC9B35, size: 0x8, addend: 0x0, symName: __ZNSt3__1neB8ue170006INS_16reverse_iteratorIPNS_10shared_ptrIN5Catch22CumulativeReporterBaseINS3_13JunitReporterEE4NodeINS3_13TestCaseStatsENS6_11SectionNodeEEEEEEESD_EEbRKNS1_IT_EERKNS1_IT0_EE, symObjAddr: 0xEA4BC, symBinAddr: 0x1000EBAC0, symSize: 0x60 }
  - { offsetInCU: 0xC9B84, offset: 0xC9B84, size: 0x8, addend: 0x0, symName: __ZNSt3__112__to_addressB8ue170006INS_16reverse_iteratorINS1_IPNS_10shared_ptrIN5Catch22CumulativeReporterBaseINS3_13JunitReporterEE4NodeINS3_13TestCaseStatsENS6_11SectionNodeEEEEEEEEEvEEu7__decayIDTclsr19__to_address_helperIT_EE6__callclsr3stdE7declvalIRKSF_EEEEESH_, symObjAddr: 0xEA51C, symBinAddr: 0x1000EBB20, symSize: 0x24 }
  - { offsetInCU: 0xC9BE7, offset: 0xC9BE7, size: 0x8, addend: 0x0, symName: __ZNSt3__14swapB8ue170006IPN5Catch22CumulativeReporterBaseINS1_13JunitReporterEE11SectionNodeEEENS_9enable_ifIXaasr21is_move_constructibleIT_EE5valuesr18is_move_assignableIS8_EE5valueEvE4typeERS8_SB_, symObjAddr: 0xEA8C8, symBinAddr: 0x1000EBECC, symSize: 0x3C }
  - { offsetInCU: 0xC9C3B, offset: 0xC9C3B, size: 0x8, addend: 0x0, symName: __ZNSt3__111make_sharedB8ue170006IN5Catch22CumulativeReporterBaseINS1_13JunitReporterEE4NodeINS1_14TestGroupStatsENS5_INS1_13TestCaseStatsENS4_11SectionNodeEEEEEJRKS6_EvEENS_10shared_ptrIT_EEDpOT0_, symObjAddr: 0xEA91C, symBinAddr: 0x1000EBF20, symSize: 0x40 }
  - { offsetInCU: 0xC9C80, offset: 0xC9C80, size: 0x8, addend: 0x0, symName: __ZNSt3__115allocate_sharedB8ue170006IN5Catch22CumulativeReporterBaseINS1_13JunitReporterEE4NodeINS1_14TestGroupStatsENS5_INS1_13TestCaseStatsENS4_11SectionNodeEEEEENS_9allocatorISA_EEJRKS6_EvEENS_10shared_ptrIT_EERKT0_DpOT1_, symObjAddr: 0xEAA64, symBinAddr: 0x1000EC068, symSize: 0x98 }
  - { offsetInCU: 0xCA056, offset: 0xCA056, size: 0x8, addend: 0x0, symName: __ZNSt3__116__swap_allocatorB8ue170006INS_9allocatorINS_10shared_ptrIN5Catch22CumulativeReporterBaseINS3_13JunitReporterEE4NodeINS3_13TestCaseStatsENS6_11SectionNodeEEEEEEEEEvRT_SE_NS_17integral_constantIbLb0EEE, symObjAddr: 0xEB528, symBinAddr: 0x1000ECB2C, symSize: 0x14 }
  - { offsetInCU: 0xCA09B, offset: 0xCA09B, size: 0x8, addend: 0x0, symName: __ZNSt3__119__allocate_at_leastB8ue170006INS_9allocatorINS_10shared_ptrIN5Catch22CumulativeReporterBaseINS3_13JunitReporterEE4NodeINS3_14TestGroupStatsENS7_INS3_13TestCaseStatsENS6_11SectionNodeEEEEEEEEEEENS_19__allocation_resultINS_16allocator_traitsIT_E7pointerEEERSH_m, symObjAddr: 0xEBD30, symBinAddr: 0x1000ED334, symSize: 0x40 }
  - { offsetInCU: 0xCA0E0, offset: 0xCA0E0, size: 0x8, addend: 0x0, symName: __ZNSt3__142__uninitialized_allocator_move_if_noexceptB8ue170006INS_9allocatorINS_10shared_ptrIN5Catch22CumulativeReporterBaseINS3_13JunitReporterEE4NodeINS3_14TestGroupStatsENS7_INS3_13TestCaseStatsENS6_11SectionNodeEEEEEEEEENS_16reverse_iteratorIPSD_EESH_SH_EET2_RT_T0_T1_SI_, symObjAddr: 0xEBEE4, symBinAddr: 0x1000ED4E8, symSize: 0x12C }
  - { offsetInCU: 0xCA181, offset: 0xCA181, size: 0x8, addend: 0x0, symName: __ZNSt3__14swapB8ue170006IPNS_10shared_ptrIN5Catch22CumulativeReporterBaseINS2_13JunitReporterEE4NodeINS2_14TestGroupStatsENS6_INS2_13TestCaseStatsENS5_11SectionNodeEEEEEEEEENS_9enable_ifIXaasr21is_move_constructibleIT_EE5valuesr18is_move_assignableISF_EE5valueEvE4typeERSF_SI_, symObjAddr: 0xEC05C, symBinAddr: 0x1000ED660, symSize: 0x3C }
  - { offsetInCU: 0xCA1D6, offset: 0xCA1D6, size: 0x8, addend: 0x0, symName: __ZNSt3__122__make_exception_guardB8ue170006INS_29_AllocatorDestroyRangeReverseINS_9allocatorINS_10shared_ptrIN5Catch22CumulativeReporterBaseINS4_13JunitReporterEE4NodeINS4_14TestGroupStatsENS8_INS4_13TestCaseStatsENS7_11SectionNodeEEEEEEEEENS_16reverse_iteratorIPSE_EEEEEENS_28__exception_guard_exceptionsIT_EESL_, symObjAddr: 0xEC144, symBinAddr: 0x1000ED748, symSize: 0x4C }
  - { offsetInCU: 0xCA20E, offset: 0xCA20E, size: 0x8, addend: 0x0, symName: __ZNSt3__1neB8ue170006IPNS_10shared_ptrIN5Catch22CumulativeReporterBaseINS2_13JunitReporterEE4NodeINS2_14TestGroupStatsENS6_INS2_13TestCaseStatsENS5_11SectionNodeEEEEEEESD_EEbRKNS_16reverse_iteratorIT_EERKNSE_IT0_EE, symObjAddr: 0xEC1D4, symBinAddr: 0x1000ED7D8, symSize: 0x48 }
  - { offsetInCU: 0xCA25D, offset: 0xCA25D, size: 0x8, addend: 0x0, symName: __ZNSt3__112__to_addressB8ue170006INS_16reverse_iteratorIPNS_10shared_ptrIN5Catch22CumulativeReporterBaseINS3_13JunitReporterEE4NodeINS3_14TestGroupStatsENS7_INS3_13TestCaseStatsENS6_11SectionNodeEEEEEEEEEvEEu7__decayIDTclsr19__to_address_helperIT_EE6__callclsr3stdE7declvalIRKSG_EEEEESI_, symObjAddr: 0xEC250, symBinAddr: 0x1000ED854, symSize: 0x24 }
  - { offsetInCU: 0xCA2BF, offset: 0xCA2BF, size: 0x8, addend: 0x0, symName: __ZNSt3__119__allocator_destroyB8ue170006INS_9allocatorINS_10shared_ptrIN5Catch22CumulativeReporterBaseINS3_13JunitReporterEE4NodeINS3_14TestGroupStatsENS7_INS3_13TestCaseStatsENS6_11SectionNodeEEEEEEEEENS_16reverse_iteratorINSF_IPSD_EEEESI_EEvRT_T0_T1_, symObjAddr: 0xEC5A4, symBinAddr: 0x1000EDBA8, symSize: 0x70 }
  - { offsetInCU: 0xCA325, offset: 0xCA325, size: 0x8, addend: 0x0, symName: __ZNSt3__1neB8ue170006INS_16reverse_iteratorIPNS_10shared_ptrIN5Catch22CumulativeReporterBaseINS3_13JunitReporterEE4NodeINS3_14TestGroupStatsENS7_INS3_13TestCaseStatsENS6_11SectionNodeEEEEEEEEESF_EEbRKNS1_IT_EERKNS1_IT0_EE, symObjAddr: 0xEC650, symBinAddr: 0x1000EDC54, symSize: 0x60 }
  - { offsetInCU: 0xCA374, offset: 0xCA374, size: 0x8, addend: 0x0, symName: __ZNSt3__112__to_addressB8ue170006INS_16reverse_iteratorINS1_IPNS_10shared_ptrIN5Catch22CumulativeReporterBaseINS3_13JunitReporterEE4NodeINS3_14TestGroupStatsENS7_INS3_13TestCaseStatsENS6_11SectionNodeEEEEEEEEEEEvEEu7__decayIDTclsr19__to_address_helperIT_EE6__callclsr3stdE7declvalIRKSH_EEEEESJ_, symObjAddr: 0xEC6B0, symBinAddr: 0x1000EDCB4, symSize: 0x24 }
  - { offsetInCU: 0xCA3D6, offset: 0xCA3D6, size: 0x8, addend: 0x0, symName: __ZNSt3__111make_sharedB8ue170006IN5Catch17ReporterRegistrarINS1_13JunitReporterEE15ReporterFactoryEJEvEENS_10shared_ptrIT_EEDpOT0_, symObjAddr: 0xECF50, symBinAddr: 0x1000EE554, symSize: 0x38 }
  - { offsetInCU: 0xCA625, offset: 0xCA625, size: 0x8, addend: 0x0, symName: __ZNSt3__115allocate_sharedB8ue170006IN5Catch17ReporterRegistrarINS1_13JunitReporterEE15ReporterFactoryENS_9allocatorIS5_EEJEvEENS_10shared_ptrIT_EERKT0_DpOT1_, symObjAddr: 0xECFE8, symBinAddr: 0x1000EE5EC, symSize: 0x90 }
  - { offsetInCU: 0xCA9E5, offset: 0xCA9E5, size: 0x8, addend: 0x0, symName: __ZNSt3__119__allocate_at_leastB8ue170006INS_9allocatorINS_10unique_ptrIN5Catch18IStreamingReporterENS_14default_deleteIS4_EEEEEEEENS_19__allocation_resultINS_16allocator_traitsIT_E7pointerEEERSB_m, symObjAddr: 0xEE824, symBinAddr: 0x1000EFE28, symSize: 0x40 }
  - { offsetInCU: 0xCAA2A, offset: 0xCAA2A, size: 0x8, addend: 0x0, symName: __ZNSt3__142__uninitialized_allocator_move_if_noexceptB8ue170006INS_9allocatorINS_10unique_ptrIN5Catch18IStreamingReporterENS_14default_deleteIS4_EEEEEENS_16reverse_iteratorIPS7_EESB_SB_EET2_RT_T0_T1_SC_, symObjAddr: 0xEE9D8, symBinAddr: 0x1000EFFDC, symSize: 0x12C }
  - { offsetInCU: 0xCAACB, offset: 0xCAACB, size: 0x8, addend: 0x0, symName: __ZNSt3__14swapB8ue170006IPNS_10unique_ptrIN5Catch18IStreamingReporterENS_14default_deleteIS3_EEEEEENS_9enable_ifIXaasr21is_move_constructibleIT_EE5valuesr18is_move_assignableIS9_EE5valueEvE4typeERS9_SC_, symObjAddr: 0xEEB50, symBinAddr: 0x1000F0154, symSize: 0x3C }
  - { offsetInCU: 0xCAB20, offset: 0xCAB20, size: 0x8, addend: 0x0, symName: __ZNSt3__122__make_exception_guardB8ue170006INS_29_AllocatorDestroyRangeReverseINS_9allocatorINS_10unique_ptrIN5Catch18IStreamingReporterENS_14default_deleteIS5_EEEEEENS_16reverse_iteratorIPS8_EEEEEENS_28__exception_guard_exceptionsIT_EESF_, symObjAddr: 0xEEC38, symBinAddr: 0x1000F023C, symSize: 0x4C }
  - { offsetInCU: 0xCAB58, offset: 0xCAB58, size: 0x8, addend: 0x0, symName: __ZNSt3__1neB8ue170006IPNS_10unique_ptrIN5Catch18IStreamingReporterENS_14default_deleteIS3_EEEES7_EEbRKNS_16reverse_iteratorIT_EERKNS8_IT0_EE, symObjAddr: 0xEECC8, symBinAddr: 0x1000F02CC, symSize: 0x48 }
  - { offsetInCU: 0xCABA7, offset: 0xCABA7, size: 0x8, addend: 0x0, symName: __ZNSt3__112__to_addressB8ue170006INS_16reverse_iteratorIPNS_10unique_ptrIN5Catch18IStreamingReporterENS_14default_deleteIS4_EEEEEEvEEu7__decayIDTclsr19__to_address_helperIT_EE6__callclsr3stdE7declvalIRKSA_EEEEESC_, symObjAddr: 0xEED10, symBinAddr: 0x1000F0314, symSize: 0x24 }
  - { offsetInCU: 0xCAC09, offset: 0xCAC09, size: 0x8, addend: 0x0, symName: __ZNSt3__119__allocator_destroyB8ue170006INS_9allocatorINS_10unique_ptrIN5Catch18IStreamingReporterENS_14default_deleteIS4_EEEEEENS_16reverse_iteratorINS9_IPS7_EEEESC_EEvRT_T0_T1_, symObjAddr: 0xEEFC0, symBinAddr: 0x1000F05C4, symSize: 0x70 }
  - { offsetInCU: 0xCAC6F, offset: 0xCAC6F, size: 0x8, addend: 0x0, symName: __ZNSt3__1neB8ue170006INS_16reverse_iteratorIPNS_10unique_ptrIN5Catch18IStreamingReporterENS_14default_deleteIS4_EEEEEES9_EEbRKNS1_IT_EERKNS1_IT0_EE, symObjAddr: 0xEF06C, symBinAddr: 0x1000F0670, symSize: 0x60 }
  - { offsetInCU: 0xCACBE, offset: 0xCACBE, size: 0x8, addend: 0x0, symName: __ZNSt3__112__to_addressB8ue170006INS_16reverse_iteratorINS1_IPNS_10unique_ptrIN5Catch18IStreamingReporterENS_14default_deleteIS4_EEEEEEEEvEEu7__decayIDTclsr19__to_address_helperIT_EE6__callclsr3stdE7declvalIRKSB_EEEEESD_, symObjAddr: 0xEF0CC, symBinAddr: 0x1000F06D0, symSize: 0x24 }
  - { offsetInCU: 0xCAD20, offset: 0xCAD20, size: 0x8, addend: 0x0, symName: __ZNSt3__111make_sharedB8ue170006IN5Catch17ReporterRegistrarINS1_11XmlReporterEE15ReporterFactoryEJEvEENS_10shared_ptrIT_EEDpOT0_, symObjAddr: 0xEF7EC, symBinAddr: 0x1000F0DF0, symSize: 0x38 }
  - { offsetInCU: 0xCAF6F, offset: 0xCAF6F, size: 0x8, addend: 0x0, symName: __ZNSt3__115allocate_sharedB8ue170006IN5Catch17ReporterRegistrarINS1_11XmlReporterEE15ReporterFactoryENS_9allocatorIS5_EEJEvEENS_10shared_ptrIT_EERKT0_DpOT1_, symObjAddr: 0xEF884, symBinAddr: 0x1000F0E88, symSize: 0x90 }
  - { offsetInCU: 0xCB32E, offset: 0xCB32E, size: 0x8, addend: 0x0, symName: __ZNSt3__111make_sharedB8ue170006IN5Catch22CumulativeReporterBaseINS1_13JunitReporterEE11SectionNodeEJRNS1_12SectionStatsEEvEENS_10shared_ptrIT_EEDpOT0_, symObjAddr: 0xF0820, symBinAddr: 0x1000F1E24, symSize: 0x40 }
  - { offsetInCU: 0xCB374, offset: 0xCB374, size: 0x8, addend: 0x0, symName: __ZNSt3__17find_ifB8ue170006INS_11__wrap_iterIPNS_10shared_ptrIN5Catch22CumulativeReporterBaseINS3_13JunitReporterEE11SectionNodeEEEEENS6_13BySectionInfoEEET_SC_SC_T0_, symObjAddr: 0xF0900, symBinAddr: 0x1000F1F04, symSize: 0x7C }
  - { offsetInCU: 0xCB3D3, offset: 0xCB3D3, size: 0x8, addend: 0x0, symName: __ZNSt3__1eqB8ue170006IPNS_10shared_ptrIN5Catch22CumulativeReporterBaseINS2_13JunitReporterEE11SectionNodeEEEEEbRKNS_11__wrap_iterIT_EESD_, symObjAddr: 0xF0A10, symBinAddr: 0x1000F2014, symSize: 0x48 }
  - { offsetInCU: 0xCB418, offset: 0xCB418, size: 0x8, addend: 0x0, symName: __ZNSt3__115allocate_sharedB8ue170006IN5Catch22CumulativeReporterBaseINS1_13JunitReporterEE11SectionNodeENS_9allocatorIS5_EEJRNS1_12SectionStatsEEvEENS_10shared_ptrIT_EERKT0_DpOT1_, symObjAddr: 0xF0A70, symBinAddr: 0x1000F2074, symSize: 0x98 }
  - { offsetInCU: 0xCB7EE, offset: 0xCB7EE, size: 0x8, addend: 0x0, symName: __ZNSt3__1neB8ue170006IPNS_10shared_ptrIN5Catch22CumulativeReporterBaseINS2_13JunitReporterEE11SectionNodeEEEEEbRKNS_11__wrap_iterIT_EESD_, symObjAddr: 0xF152C, symBinAddr: 0x1000F2B30, symSize: 0x34 }
  - { offsetInCU: 0xCB833, offset: 0xCB833, size: 0x8, addend: 0x0, symName: __ZNSt3__111make_sharedB8ue170006IN5Catch22CumulativeReporterBaseINS1_13JunitReporterEE4NodeINS1_12TestRunStatsENS5_INS1_14TestGroupStatsENS5_INS1_13TestCaseStatsENS4_11SectionNodeEEEEEEEJRKS6_EvEENS_10shared_ptrIT_EEDpOT0_, symObjAddr: 0xF188C, symBinAddr: 0x1000F2E90, symSize: 0x40 }
  - { offsetInCU: 0xCB878, offset: 0xCB878, size: 0x8, addend: 0x0, symName: __ZNSt3__115allocate_sharedB8ue170006IN5Catch22CumulativeReporterBaseINS1_13JunitReporterEE4NodeINS1_12TestRunStatsENS5_INS1_14TestGroupStatsENS5_INS1_13TestCaseStatsENS4_11SectionNodeEEEEEEENS_9allocatorISC_EEJRKS6_EvEENS_10shared_ptrIT_EERKT0_DpOT1_, symObjAddr: 0xF19D4, symBinAddr: 0x1000F2FD8, symSize: 0x98 }
  - { offsetInCU: 0xCBC4E, offset: 0xCBC4E, size: 0x8, addend: 0x0, symName: __ZNSt3__116__swap_allocatorB8ue170006INS_9allocatorINS_10shared_ptrIN5Catch22CumulativeReporterBaseINS3_13JunitReporterEE4NodeINS3_14TestGroupStatsENS7_INS3_13TestCaseStatsENS6_11SectionNodeEEEEEEEEEEEvRT_SG_NS_17integral_constantIbLb0EEE, symObjAddr: 0xF2498, symBinAddr: 0x1000F3A9C, symSize: 0x14 }
  - { offsetInCU: 0xCBC93, offset: 0xCBC93, size: 0x8, addend: 0x0, symName: __ZNSt3__119__allocate_at_leastB8ue170006INS_9allocatorINS_10shared_ptrIN5Catch22CumulativeReporterBaseINS3_13JunitReporterEE4NodeINS3_12TestRunStatsENS7_INS3_14TestGroupStatsENS7_INS3_13TestCaseStatsENS6_11SectionNodeEEEEEEEEEEEEENS_19__allocation_resultINS_16allocator_traitsIT_E7pointerEEERSJ_m, symObjAddr: 0xF2CA0, symBinAddr: 0x1000F42A4, symSize: 0x40 }
  - { offsetInCU: 0xCBCD8, offset: 0xCBCD8, size: 0x8, addend: 0x0, symName: __ZNSt3__142__uninitialized_allocator_move_if_noexceptB8ue170006INS_9allocatorINS_10shared_ptrIN5Catch22CumulativeReporterBaseINS3_13JunitReporterEE4NodeINS3_12TestRunStatsENS7_INS3_14TestGroupStatsENS7_INS3_13TestCaseStatsENS6_11SectionNodeEEEEEEEEEEENS_16reverse_iteratorIPSF_EESJ_SJ_EET2_RT_T0_T1_SK_, symObjAddr: 0xF2E54, symBinAddr: 0x1000F4458, symSize: 0x12C }
  - { offsetInCU: 0xCBD79, offset: 0xCBD79, size: 0x8, addend: 0x0, symName: __ZNSt3__14swapB8ue170006IPNS_10shared_ptrIN5Catch22CumulativeReporterBaseINS2_13JunitReporterEE4NodeINS2_12TestRunStatsENS6_INS2_14TestGroupStatsENS6_INS2_13TestCaseStatsENS5_11SectionNodeEEEEEEEEEEENS_9enable_ifIXaasr21is_move_constructibleIT_EE5valuesr18is_move_assignableISH_EE5valueEvE4typeERSH_SK_, symObjAddr: 0xF2FCC, symBinAddr: 0x1000F45D0, symSize: 0x3C }
  - { offsetInCU: 0xCBDCE, offset: 0xCBDCE, size: 0x8, addend: 0x0, symName: __ZNSt3__122__make_exception_guardB8ue170006INS_29_AllocatorDestroyRangeReverseINS_9allocatorINS_10shared_ptrIN5Catch22CumulativeReporterBaseINS4_13JunitReporterEE4NodeINS4_12TestRunStatsENS8_INS4_14TestGroupStatsENS8_INS4_13TestCaseStatsENS7_11SectionNodeEEEEEEEEEEENS_16reverse_iteratorIPSG_EEEEEENS_28__exception_guard_exceptionsIT_EESN_, symObjAddr: 0xF30B4, symBinAddr: 0x1000F46B8, symSize: 0x4C }
  - { offsetInCU: 0xCBE06, offset: 0xCBE06, size: 0x8, addend: 0x0, symName: __ZNSt3__1neB8ue170006IPNS_10shared_ptrIN5Catch22CumulativeReporterBaseINS2_13JunitReporterEE4NodeINS2_12TestRunStatsENS6_INS2_14TestGroupStatsENS6_INS2_13TestCaseStatsENS5_11SectionNodeEEEEEEEEESF_EEbRKNS_16reverse_iteratorIT_EERKNSG_IT0_EE, symObjAddr: 0xF3144, symBinAddr: 0x1000F4748, symSize: 0x48 }
  - { offsetInCU: 0xCBE55, offset: 0xCBE55, size: 0x8, addend: 0x0, symName: __ZNSt3__112__to_addressB8ue170006INS_16reverse_iteratorIPNS_10shared_ptrIN5Catch22CumulativeReporterBaseINS3_13JunitReporterEE4NodeINS3_12TestRunStatsENS7_INS3_14TestGroupStatsENS7_INS3_13TestCaseStatsENS6_11SectionNodeEEEEEEEEEEEvEEu7__decayIDTclsr19__to_address_helperIT_EE6__callclsr3stdE7declvalIRKSI_EEEEESK_, symObjAddr: 0xF31C0, symBinAddr: 0x1000F47C4, symSize: 0x24 }
  - { offsetInCU: 0xCBEB7, offset: 0xCBEB7, size: 0x8, addend: 0x0, symName: __ZNSt3__119__allocator_destroyB8ue170006INS_9allocatorINS_10shared_ptrIN5Catch22CumulativeReporterBaseINS3_13JunitReporterEE4NodeINS3_12TestRunStatsENS7_INS3_14TestGroupStatsENS7_INS3_13TestCaseStatsENS6_11SectionNodeEEEEEEEEEEENS_16reverse_iteratorINSH_IPSF_EEEESK_EEvRT_T0_T1_, symObjAddr: 0xF3514, symBinAddr: 0x1000F4B18, symSize: 0x70 }
  - { offsetInCU: 0xCBF1D, offset: 0xCBF1D, size: 0x8, addend: 0x0, symName: __ZNSt3__1neB8ue170006INS_16reverse_iteratorIPNS_10shared_ptrIN5Catch22CumulativeReporterBaseINS3_13JunitReporterEE4NodeINS3_12TestRunStatsENS7_INS3_14TestGroupStatsENS7_INS3_13TestCaseStatsENS6_11SectionNodeEEEEEEEEEEESH_EEbRKNS1_IT_EERKNS1_IT0_EE, symObjAddr: 0xF35C0, symBinAddr: 0x1000F4BC4, symSize: 0x60 }
  - { offsetInCU: 0xCBF6C, offset: 0xCBF6C, size: 0x8, addend: 0x0, symName: __ZNSt3__112__to_addressB8ue170006INS_16reverse_iteratorINS1_IPNS_10shared_ptrIN5Catch22CumulativeReporterBaseINS3_13JunitReporterEE4NodeINS3_12TestRunStatsENS7_INS3_14TestGroupStatsENS7_INS3_13TestCaseStatsENS6_11SectionNodeEEEEEEEEEEEEEvEEu7__decayIDTclsr19__to_address_helperIT_EE6__callclsr3stdE7declvalIRKSJ_EEEEESL_, symObjAddr: 0xF3620, symBinAddr: 0x1000F4C24, symSize: 0x24 }
  - { offsetInCU: 0xCE42E, offset: 0xCE42E, size: 0x8, addend: 0x0, symName: __ZSteqB8ue170006RKSt13exception_ptrS1_, symObjAddr: 0x8D28, symBinAddr: 0x10000A32C, symSize: 0x30 }
  - { offsetInCU: 0xCE46B, offset: 0xCE46B, size: 0x8, addend: 0x0, symName: __ZSt10to_integerB8ue170006IySt4byteET_S0_, symObjAddr: 0x21430, symBinAddr: 0x100022A34, symSize: 0x18 }
  - { offsetInCU: 0xCE4A8, offset: 0xCE4A8, size: 0x8, addend: 0x0, symName: __ZSt28__throw_bad_array_new_lengthB8ue170006v, symObjAddr: 0x32E94, symBinAddr: 0x100034498, symSize: 0x34 }
  - { offsetInCU: 0xCFE84, offset: 0xCFE84, size: 0x8, addend: 0x0, symName: __ZN5Catch7SessionC2Ev, symObjAddr: 0x15E8C, symBinAddr: 0x100017490, symSize: 0x508 }
  - { offsetInCU: 0xCFEAE, offset: 0xCFEAE, size: 0x8, addend: 0x0, symName: __ZZN5Catch7SessionC1EvE19alreadyInstantiated, symObjAddr: 0x6DED20, symBinAddr: 0x100118280, symSize: 0x0 }
  - { offsetInCU: 0xD14AB, offset: 0xD14AB, size: 0x8, addend: 0x0, symName: __ZN12_GLOBAL__N_114autoRegistrar1E, symObjAddr: 0x6DED68, symBinAddr: 0x1001182C8, symSize: 0x0 }
  - { offsetInCU: 0xD14C5, offset: 0xD14C5, size: 0x8, addend: 0x0, symName: __ZN12_GLOBAL__N_114autoRegistrar4E, symObjAddr: 0x6DED70, symBinAddr: 0x1001182D0, symSize: 0x0 }
  - { offsetInCU: 0xD14DF, offset: 0xD14DF, size: 0x8, addend: 0x0, symName: __ZN12_GLOBAL__N_114autoRegistrar8E, symObjAddr: 0x6DED78, symBinAddr: 0x1001182D8, symSize: 0x0 }
  - { offsetInCU: 0xD14F9, offset: 0xD14F9, size: 0x8, addend: 0x0, symName: __ZN12_GLOBAL__N_115autoRegistrar11E, symObjAddr: 0x6DED80, symBinAddr: 0x1001182E0, symSize: 0x0 }
  - { offsetInCU: 0xD1513, offset: 0xD1513, size: 0x8, addend: 0x0, symName: __ZN12_GLOBAL__N_121minStackSizeForErrorsE, symObjAddr: 0xFE070, symBinAddr: 0x100101238, symSize: 0x0 }
  - { offsetInCU: 0xD1520, offset: 0xD1520, size: 0x8, addend: 0x0, symName: __ZN12_GLOBAL__N_116marginComparisonEddd, symObjAddr: 0x470, symBinAddr: 0x100001A74, symSize: 0x68 }
  - { offsetInCU: 0xD156C, offset: 0xD156C, size: 0x8, addend: 0x0, symName: __ZN12_GLOBAL__N_111reportFatalEPKc, symObjAddr: 0x409A4, symBinAddr: 0x100041FA8, symSize: 0x54 }
  - { offsetInCU: 0xD1597, offset: 0xD1597, size: 0x8, addend: 0x0, symName: __ZN12_GLOBAL__N_112passedStringEv, symObjAddr: 0x627FC, symBinAddr: 0x100063E00, symSize: 0xC }
  - { offsetInCU: 0xD15B6, offset: 0xD15B6, size: 0x8, addend: 0x0, symName: __ZN12_GLOBAL__N_19dimColourEv, symObjAddr: 0x62BB4, symBinAddr: 0x1000641B8, symSize: 0x8 }
  - { offsetInCU: 0xD15D5, offset: 0xD15D5, size: 0x8, addend: 0x0, symName: __ZN12_GLOBAL__N_112failedStringEv, symObjAddr: 0x62BBC, symBinAddr: 0x1000641C0, symSize: 0xC }
  - { offsetInCU: 0xD15F3, offset: 0xD15F3, size: 0x8, addend: 0x0, symName: __ZN12_GLOBAL__N_19bothOrAllEm, symObjAddr: 0x62F14, symBinAddr: 0x100064518, symSize: 0x78 }
  - { offsetInCU: 0xD163C, offset: 0xD163C, size: 0x8, addend: 0x0, symName: __ZN5Catch12_GLOBAL__N_115PosixColourImpl8instanceEv, symObjAddr: 0x3FEC0, symBinAddr: 0x1000414C4, symSize: 0x80 }
  - { offsetInCU: 0xD165C, offset: 0xD165C, size: 0x8, addend: 0x0, symName: __ZZN5Catch12_GLOBAL__N_115PosixColourImpl8instanceEvE10s_instance, symObjAddr: 0x1055C0, symBinAddr: 0x100118070, symSize: 0x0 }
  - { offsetInCU: 0xD166C, offset: 0xD166C, size: 0x8, addend: 0x0, symName: __ZN5Catch12_GLOBAL__N_112NoColourImpl8instanceEv, symObjAddr: 0x3FF40, symBinAddr: 0x100041544, symSize: 0x80 }
  - { offsetInCU: 0xD168C, offset: 0xD168C, size: 0x8, addend: 0x0, symName: __ZZN5Catch12_GLOBAL__N_112NoColourImpl8instanceEvE10s_instance, symObjAddr: 0x1055C8, symBinAddr: 0x100118078, symSize: 0x0 }
  - { offsetInCU: 0xD2DF4, offset: 0xD2DF4, size: 0x8, addend: 0x0, symName: __ZN5Catch9SingletonINS_12_GLOBAL__N_111RegistryHubENS_12IRegistryHubENS_19IMutableRegistryHubEE11getInternalEv, symObjAddr: 0xB1E80, symBinAddr: 0x1000B3484, symSize: 0xB8 }
  - { offsetInCU: 0xD2E14, offset: 0xD2E14, size: 0x8, addend: 0x0, symName: __ZZN5Catch9SingletonINS_12_GLOBAL__N_111RegistryHubENS_12IRegistryHubENS_19IMutableRegistryHubEE11getInternalEvE10s_instance, symObjAddr: 0x6DEDA0, symBinAddr: 0x100118300, symSize: 0x0 }
  - { offsetInCU: 0xD31A3, offset: 0xD31A3, size: 0x8, addend: 0x0, symName: __ZN5Catch9SingletonINS_13StringStreamsES1_S1_E11getInternalEv, symObjAddr: 0xC13E8, symBinAddr: 0x1000C29EC, symSize: 0x90 }
  - { offsetInCU: 0xD31C3, offset: 0xD31C3, size: 0x8, addend: 0x0, symName: __ZZN5Catch9SingletonINS_13StringStreamsES1_S1_E11getInternalEvE10s_instance, symObjAddr: 0x105630, symBinAddr: 0x1001180E0, symSize: 0x0 }
  - { offsetInCU: 0xD455E, offset: 0xD455E, size: 0x8, addend: 0x0, symName: __ZN5Catch5clara6detail4HelpC2ERb, symObjAddr: 0x36738, symBinAddr: 0x100037D3C, symSize: 0x1B4 }
  - { offsetInCU: 0xD467C, offset: 0xD467C, size: 0x8, addend: 0x0, symName: __ZNSt3__16vectorIN5Catch5clara6detail5TokenENS_9allocatorIS4_EEE26__swap_out_circular_bufferERNS_14__split_bufferIS4_RS6_EE, symObjAddr: 0x39BE0, symBinAddr: 0x10003B1E4, symSize: 0x110 }
  - { offsetInCU: 0xD4A89, offset: 0xD4A89, size: 0x8, addend: 0x0, symName: __ZNSt3__16vectorIN5Catch5clara8TextFlow6Column8iteratorENS_9allocatorIS5_EEE26__swap_out_circular_bufferERNS_14__split_bufferIS5_RS7_EE, symObjAddr: 0x43314, symBinAddr: 0x100044918, symSize: 0x110 }
  - { offsetInCU: 0xD4B21, offset: 0xD4B21, size: 0x8, addend: 0x0, symName: __ZNSt3__16vectorIN5Catch5clara8TextFlow6ColumnENS_9allocatorIS4_EEE26__swap_out_circular_bufferERNS_14__split_bufferIS4_RS6_EE, symObjAddr: 0x4698C, symBinAddr: 0x100047F90, symSize: 0x110 }
  - { offsetInCU: 0xD4CEE, offset: 0xD4CEE, size: 0x8, addend: 0x0, symName: __ZNSt3__16vectorIN5Catch5clara6detail11HelpColumnsENS_9allocatorIS4_EEE26__swap_out_circular_bufferERNS_14__split_bufferIS4_RS6_EEPS4_, symObjAddr: 0x4F558, symBinAddr: 0x100050B5C, symSize: 0x14C }
  - { offsetInCU: 0xD4EA3, offset: 0xD4EA3, size: 0x8, addend: 0x0, symName: __ZNSt3__16vectorINS_12basic_stringIcNS_11char_traitsIcEENS_9allocatorIcEEEENS4_IS6_EEE26__swap_out_circular_bufferERNS_14__split_bufferIS6_RS7_EE, symObjAddr: 0x57324, symBinAddr: 0x100058928, symSize: 0x110 }
  - { offsetInCU: 0xD5170, offset: 0xD5170, size: 0x8, addend: 0x0, symName: __ZNSt3__16vectorINS_10unique_ptrINS_19basic_ostringstreamIcNS_11char_traitsIcEENS_9allocatorIcEEEENS_14default_deleteIS7_EEEENS5_ISA_EEE26__swap_out_circular_bufferERNS_14__split_bufferISA_RSB_EE, symObjAddr: 0x5DAC8, symBinAddr: 0x10005F0CC, symSize: 0x110 }
  - { offsetInCU: 0xD5528, offset: 0xD5528, size: 0x8, addend: 0x0, symName: __ZNSt3__16vectorIN5Catch5clara6detail3OptENS_9allocatorIS4_EEE26__swap_out_circular_bufferERNS_14__split_bufferIS4_RS6_EE, symObjAddr: 0x6CC74, symBinAddr: 0x10006E278, symSize: 0x110 }
  - { offsetInCU: 0xD5E9E, offset: 0xD5E9E, size: 0x8, addend: 0x0, symName: __ZNSt3__16vectorIN5Catch5clara6detail3ArgENS_9allocatorIS4_EEE26__swap_out_circular_bufferERNS_14__split_bufferIS4_RS6_EE, symObjAddr: 0x7C190, symBinAddr: 0x10007D794, symSize: 0x110 }
  - { offsetInCU: 0xD60A8, offset: 0xD60A8, size: 0x8, addend: 0x0, symName: __ZNSt3__16vectorIN5Catch9StringRefENS_9allocatorIS2_EEE26__swap_out_circular_bufferERNS_14__split_bufferIS2_RS4_EE, symObjAddr: 0x7DBC4, symBinAddr: 0x10007F1C8, symSize: 0x110 }
  - { offsetInCU: 0xD6104, offset: 0xD6104, size: 0x8, addend: 0x0, symName: __ZNSt3__16vectorINS_4pairIiN5Catch9StringRefEEENS_9allocatorIS4_EEE26__swap_out_circular_bufferERNS_14__split_bufferIS4_RS6_EE, symObjAddr: 0x7F760, symBinAddr: 0x100080D64, symSize: 0x110 }
  - { offsetInCU: 0xD6197, offset: 0xD6197, size: 0x8, addend: 0x0, symName: __ZNSt3__16vectorINS_10unique_ptrIN5Catch6Detail8EnumInfoENS_14default_deleteIS4_EEEENS_9allocatorIS7_EEE26__swap_out_circular_bufferERNS_14__split_bufferIS7_RS9_EE, symObjAddr: 0x81174, symBinAddr: 0x100082778, symSize: 0x110 }
  - { offsetInCU: 0xD622F, offset: 0xD622F, size: 0x8, addend: 0x0, symName: __ZNSt3__16vectorINS_10unique_ptrIKN5Catch20IExceptionTranslatorENS_14default_deleteIS4_EEEENS_9allocatorIS7_EEE26__swap_out_circular_bufferERNS_14__split_bufferIS7_RS9_EE, symObjAddr: 0x82DE4, symBinAddr: 0x1000843E8, symSize: 0x110 }
  - { offsetInCU: 0xD631C, offset: 0xD631C, size: 0x8, addend: 0x0, symName: __ZNSt3__16vectorIN5Catch11MessageInfoENS_9allocatorIS2_EEE26__swap_out_circular_bufferERNS_14__split_bufferIS2_RS4_EE, symObjAddr: 0x856D8, symBinAddr: 0x100086CDC, symSize: 0x110 }
  - { offsetInCU: 0xD6A1C, offset: 0xD6A1C, size: 0x8, addend: 0x0, symName: __ZNSt3__16vectorINS_7__stateIcEENS_9allocatorIS2_EEE26__swap_out_circular_bufferERNS_14__split_bufferIS2_RS4_EE, symObjAddr: 0x906AC, symBinAddr: 0x100091CB0, symSize: 0x110 }
  - { offsetInCU: 0xD6AB4, offset: 0xD6AB4, size: 0x8, addend: 0x0, symName: __ZNSt3__16vectorINS_9sub_matchIPKcEENS_9allocatorIS4_EEE26__swap_out_circular_bufferERNS_14__split_bufferIS4_RS6_EE, symObjAddr: 0x92290, symBinAddr: 0x100093894, symSize: 0x110 }
  - { offsetInCU: 0xD6B47, offset: 0xD6B47, size: 0x8, addend: 0x0, symName: __ZNSt3__16vectorINS_4pairImPKcEENS_9allocatorIS4_EEE26__swap_out_circular_bufferERNS_14__split_bufferIS4_RS6_EE, symObjAddr: 0x934B4, symBinAddr: 0x100094AB8, symSize: 0x110 }
  - { offsetInCU: 0xD7062, offset: 0xD7062, size: 0x8, addend: 0x0, symName: __ZNSt3__16vectorIcNS_9allocatorIcEEE26__swap_out_circular_bufferERNS_14__split_bufferIcRS2_EE, symObjAddr: 0x9BC00, symBinAddr: 0x10009D204, symSize: 0x110 }
  - { offsetInCU: 0xD70B9, offset: 0xD70B9, size: 0x8, addend: 0x0, symName: __ZNSt3__16vectorINS_4pairINS_12basic_stringIcNS_11char_traitsIcEENS_9allocatorIcEEEES7_EENS5_IS8_EEE26__swap_out_circular_bufferERNS_14__split_bufferIS8_RS9_EE, symObjAddr: 0xA054C, symBinAddr: 0x1000A1B50, symSize: 0x110 }
  - { offsetInCU: 0xD714C, offset: 0xD714C, size: 0x8, addend: 0x0, symName: __ZNSt3__16vectorINS_4pairIccEENS_9allocatorIS2_EEE26__swap_out_circular_bufferERNS_14__split_bufferIS2_RS4_EE, symObjAddr: 0xA1A2C, symBinAddr: 0x1000A3030, symSize: 0x110 }
  - { offsetInCU: 0xD7437, offset: 0xD7437, size: 0x8, addend: 0x0, symName: __ZNSt3__16vectorINS_9sub_matchINS_11__wrap_iterIPKcEEEENS_9allocatorIS6_EEE26__swap_out_circular_bufferERNS_14__split_bufferIS6_RS8_EE, symObjAddr: 0xADB08, symBinAddr: 0x1000AF10C, symSize: 0x110 }
  - { offsetInCU: 0xD756A, offset: 0xD756A, size: 0x8, addend: 0x0, symName: __ZNSt3__16vectorINS_10shared_ptrIN5Catch16IReporterFactoryEEENS_9allocatorIS4_EEE26__swap_out_circular_bufferERNS_14__split_bufferIS4_RS6_EE, symObjAddr: 0xB56A0, symBinAddr: 0x1000B6CA4, symSize: 0x110 }
  - { offsetInCU: 0xD7A7B, offset: 0xD7A7B, size: 0x8, addend: 0x0, symName: __ZNSt3__16vectorIPN5Catch16TestCaseTracking8ITrackerENS_9allocatorIS4_EEE26__swap_out_circular_bufferERNS_14__split_bufferIS4_RS6_EE, symObjAddr: 0xB83F8, symBinAddr: 0x1000B99FC, symSize: 0x110 }
  - { offsetInCU: 0xD7AD2, offset: 0xD7AD2, size: 0x8, addend: 0x0, symName: __ZNSt3__16vectorIN5Catch14SectionEndInfoENS_9allocatorIS2_EEE26__swap_out_circular_bufferERNS_14__split_bufferIS2_RS4_EE, symObjAddr: 0xB994C, symBinAddr: 0x1000BAF50, symSize: 0x110 }
  - { offsetInCU: 0xD7B65, offset: 0xD7B65, size: 0x8, addend: 0x0, symName: __ZNSt3__16vectorIN5Catch13ScopedMessageENS_9allocatorIS2_EEE26__swap_out_circular_bufferERNS_14__split_bufferIS2_RS4_EE, symObjAddr: 0xBB60C, symBinAddr: 0x1000BCC10, symSize: 0x110 }
  - { offsetInCU: 0xD7C98, offset: 0xD7C98, size: 0x8, addend: 0x0, symName: __ZNSt3__16vectorIPN5Catch10ISingletonENS_9allocatorIS3_EEE26__swap_out_circular_bufferERNS_14__split_bufferIS3_RS5_EE, symObjAddr: 0xBD914, symBinAddr: 0x1000BEF18, symSize: 0x110 }
  - { offsetInCU: 0xD7CF4, offset: 0xD7CF4, size: 0x8, addend: 0x0, symName: __ZNSt3__16vectorISt13exception_ptrNS_9allocatorIS1_EEE26__swap_out_circular_bufferERNS_14__split_bufferIS1_RS3_EE, symObjAddr: 0xBF0E4, symBinAddr: 0x1000C06E8, symSize: 0x110 }
  - { offsetInCU: 0xD7D87, offset: 0xD7D87, size: 0x8, addend: 0x0, symName: __ZNSt3__16vectorImNS_9allocatorImEEE26__swap_out_circular_bufferERNS_14__split_bufferImRS2_EE, symObjAddr: 0xC04A0, symBinAddr: 0x1000C1AA4, symSize: 0x110 }
  - { offsetInCU: 0xD7DE3, offset: 0xD7DE3, size: 0x8, addend: 0x0, symName: __ZNSt3__16vectorINS_12basic_stringIcNS_11char_traitsIcEENS_9allocatorIcEEEENS4_IS6_EEE26__swap_out_circular_bufferERNS_14__split_bufferIS6_RS7_EEPS6_, symObjAddr: 0xC3F24, symBinAddr: 0x1000C5528, symSize: 0x14C }
  - { offsetInCU: 0xD8029, offset: 0xD8029, size: 0x8, addend: 0x0, symName: __ZNSt3__16vectorINS_4pairIyPKN5Catch8TestCaseEEENS_9allocatorIS6_EEE26__swap_out_circular_bufferERNS_14__split_bufferIS6_RS8_EE, symObjAddr: 0xCCE50, symBinAddr: 0x1000CE454, symSize: 0x110 }
  - { offsetInCU: 0xD80BC, offset: 0xD80BC, size: 0x8, addend: 0x0, symName: __ZNSt3__16vectorIN5Catch8TestCaseENS_9allocatorIS2_EEE26__swap_out_circular_bufferERNS_14__split_bufferIS2_RS4_EE, symObjAddr: 0xD0D90, symBinAddr: 0x1000D2394, symSize: 0x110 }
  - { offsetInCU: 0xD8424, offset: 0xD8424, size: 0x8, addend: 0x0, symName: __ZNSt3__16vectorINS_10shared_ptrIN5Catch16TestCaseTracking8ITrackerEEENS_9allocatorIS5_EEE26__swap_out_circular_bufferERNS_14__split_bufferIS5_RS7_EE, symObjAddr: 0xD45F0, symBinAddr: 0x1000D5BF4, symSize: 0x110 }
  - { offsetInCU: 0xD84F3, offset: 0xD84F3, size: 0x8, addend: 0x0, symName: __ZNSt3__16vectorIPKN5Catch8TestCaseENS_9allocatorIS4_EEE26__swap_out_circular_bufferERNS_14__split_bufferIS4_RS6_EE, symObjAddr: 0xD78A8, symBinAddr: 0x1000D8EAC, symSize: 0x110 }
  - { offsetInCU: 0xD8563, offset: 0xD8563, size: 0x8, addend: 0x0, symName: __ZNSt3__16vectorIN5Catch8TestSpec6FilterENS_9allocatorIS3_EEE26__swap_out_circular_bufferERNS_14__split_bufferIS3_RS5_EE, symObjAddr: 0xD98E8, symBinAddr: 0x1000DAEEC, symSize: 0x110 }
  - { offsetInCU: 0xD8748, offset: 0xD8748, size: 0x8, addend: 0x0, symName: __ZNSt3__16vectorINS_10shared_ptrIN5Catch8TestSpec7PatternEEENS_9allocatorIS5_EEE26__swap_out_circular_bufferERNS_14__split_bufferIS5_RS7_EE, symObjAddr: 0xDBCE4, symBinAddr: 0x1000DD2E8, symSize: 0x110 }
  - { offsetInCU: 0xD89BE, offset: 0xD89BE, size: 0x8, addend: 0x0, symName: __ZNSt3__16vectorIN5Catch11SectionInfoENS_9allocatorIS2_EEE26__swap_out_circular_bufferERNS_14__split_bufferIS2_RS4_EE, symObjAddr: 0xE1670, symBinAddr: 0x1000E2C74, symSize: 0x110 }
  - { offsetInCU: 0xD8A56, offset: 0xD8A56, size: 0x8, addend: 0x0, symName: __ZNSt3__16vectorIN5Catch13SummaryColumnENS_9allocatorIS2_EEE26__swap_out_circular_bufferERNS_14__split_bufferIS2_RS4_EE, symObjAddr: 0xE321C, symBinAddr: 0x1000E4820, symSize: 0x110 }
  - { offsetInCU: 0xD8C1F, offset: 0xD8C1F, size: 0x8, addend: 0x0, symName: __ZNSt3__16vectorIN5Catch14AssertionStatsENS_9allocatorIS2_EEE26__swap_out_circular_bufferERNS_14__split_bufferIS2_RS4_EE, symObjAddr: 0xE6224, symBinAddr: 0x1000E7828, symSize: 0x110 }
  - { offsetInCU: 0xD8D52, offset: 0xD8D52, size: 0x8, addend: 0x0, symName: __ZNSt3__16vectorINS_10shared_ptrIN5Catch22CumulativeReporterBaseINS2_13JunitReporterEE11SectionNodeEEENS_9allocatorIS7_EEE26__swap_out_circular_bufferERNS_14__split_bufferIS7_RS9_EE, symObjAddr: 0xE8360, symBinAddr: 0x1000E9964, symSize: 0x110 }
  - { offsetInCU: 0xD8DE5, offset: 0xD8DE5, size: 0x8, addend: 0x0, symName: __ZNSt3__16vectorINS_10shared_ptrIN5Catch22CumulativeReporterBaseINS2_13JunitReporterEE4NodeINS2_13TestCaseStatsENS5_11SectionNodeEEEEENS_9allocatorISA_EEE26__swap_out_circular_bufferERNS_14__split_bufferISA_RSC_EE, symObjAddr: 0xE983C, symBinAddr: 0x1000EAE40, symSize: 0x110 }
  - { offsetInCU: 0xD8F09, offset: 0xD8F09, size: 0x8, addend: 0x0, symName: __ZNSt3__16vectorINS_10shared_ptrIN5Catch22CumulativeReporterBaseINS2_13JunitReporterEE4NodeINS2_14TestGroupStatsENS6_INS2_13TestCaseStatsENS5_11SectionNodeEEEEEEENS_9allocatorISC_EEE26__swap_out_circular_bufferERNS_14__split_bufferISC_RSE_EE, symObjAddr: 0xEB9D0, symBinAddr: 0x1000ECFD4, symSize: 0x110 }
  - { offsetInCU: 0xD90D2, offset: 0xD90D2, size: 0x8, addend: 0x0, symName: __ZNSt3__16vectorINS_10unique_ptrIN5Catch18IStreamingReporterENS_14default_deleteIS3_EEEENS_9allocatorIS6_EEE26__swap_out_circular_bufferERNS_14__split_bufferIS6_RS8_EE, symObjAddr: 0xEE4C4, symBinAddr: 0x1000EFAC8, symSize: 0x110 }
  - { offsetInCU: 0xD93E3, offset: 0xD93E3, size: 0x8, addend: 0x0, symName: __ZNSt3__16vectorINS_10shared_ptrIN5Catch22CumulativeReporterBaseINS2_13JunitReporterEE4NodeINS2_12TestRunStatsENS6_INS2_14TestGroupStatsENS6_INS2_13TestCaseStatsENS5_11SectionNodeEEEEEEEEENS_9allocatorISE_EEE26__swap_out_circular_bufferERNS_14__split_bufferISE_RSG_EE, symObjAddr: 0xF2940, symBinAddr: 0x1000F3F44, symSize: 0x110 }
  - { offsetInCU: 0xD9AA1, offset: 0xD9AA1, size: 0x8, addend: 0x0, symName: __Z7isalnumi, symObjAddr: 0x5F30C, symBinAddr: 0x100060910, symSize: 0x28 }
  - { offsetInCU: 0xD9B7E, offset: 0xD9B7E, size: 0x8, addend: 0x0, symName: __Z7isspacei, symObjAddr: 0x487B4, symBinAddr: 0x100049DB8, symSize: 0x28 }
  - { offsetInCU: 0xD9BD8, offset: 0xD9BD8, size: 0x8, addend: 0x0, symName: __Z7toloweri, symObjAddr: 0x5F008, symBinAddr: 0x10006060C, symSize: 0x24 }
  - { offsetInCU: 0xDB948, offset: 0xDB948, size: 0x8, addend: 0x0, symName: __ZN5Catch6Detail6ApproxC2Ed, symObjAddr: 0x0, symBinAddr: 0x100001604, symSize: 0x58 }
  - { offsetInCU: 0xDB983, offset: 0xDB983, size: 0x8, addend: 0x0, symName: __ZNSt3__114numeric_limitsIfE7epsilonB8ue170006Ev, symObjAddr: 0x58, symBinAddr: 0x10000165C, symSize: 0x14 }
  - { offsetInCU: 0xDB997, offset: 0xDB997, size: 0x8, addend: 0x0, symName: __ZN5Catch6Detail6ApproxC1Ed, symObjAddr: 0x6C, symBinAddr: 0x100001670, symSize: 0x34 }
  - { offsetInCU: 0xDB9D2, offset: 0xDB9D2, size: 0x8, addend: 0x0, symName: __ZN5Catch6Detail6Approx6customEv, symObjAddr: 0xA0, symBinAddr: 0x1000016A4, symSize: 0x38 }
  - { offsetInCU: 0xDB9E8, offset: 0xDB9E8, size: 0x8, addend: 0x0, symName: __ZN5Catch6Detail6ApproxC1IivEERKT_, symObjAddr: 0xD8, symBinAddr: 0x1000016DC, symSize: 0x44 }
  - { offsetInCU: 0xDBA2B, offset: 0xDBA2B, size: 0x8, addend: 0x0, symName: __ZNK5Catch6Detail6ApproxngEv, symObjAddr: 0x11C, symBinAddr: 0x100001720, symSize: 0x40 }
  - { offsetInCU: 0xDBA62, offset: 0xDBA62, size: 0x8, addend: 0x0, symName: __ZNK5Catch6Detail6Approx8toStringEv, symObjAddr: 0x15C, symBinAddr: 0x100001760, symSize: 0xE8 }
  - { offsetInCU: 0xDBA99, offset: 0xDBA99, size: 0x8, addend: 0x0, symName: __ZN5Catch20ReusableStringStreamC1Ev, symObjAddr: 0x244, symBinAddr: 0x100001848, symSize: 0x2C }
  - { offsetInCU: 0xDBAE2, offset: 0xDBAE2, size: 0x8, addend: 0x0, symName: __ZN5Catch20ReusableStringStreamlsIA9_cEERS0_RKT_, symObjAddr: 0x270, symBinAddr: 0x100001874, symSize: 0x38 }
  - { offsetInCU: 0xDBB20, offset: 0xDBB20, size: 0x8, addend: 0x0, symName: __ZN5Catch20ReusableStringStreamlsINSt3__112basic_stringIcNS2_11char_traitsIcEENS2_9allocatorIcEEEEEERS0_RKT_, symObjAddr: 0x2A8, symBinAddr: 0x1000018AC, symSize: 0x38 }
  - { offsetInCU: 0xDBB76, offset: 0xDBB76, size: 0x8, addend: 0x0, symName: __ZN5Catch20ReusableStringStreamlsIA3_cEERS0_RKT_, symObjAddr: 0x310, symBinAddr: 0x100001914, symSize: 0x38 }
  - { offsetInCU: 0xDBBB4, offset: 0xDBBB4, size: 0x8, addend: 0x0, symName: __ZNK5Catch20ReusableStringStream3strEv, symObjAddr: 0x348, symBinAddr: 0x10000194C, symSize: 0x30 }
  - { offsetInCU: 0xDBBDC, offset: 0xDBBDC, size: 0x8, addend: 0x0, symName: __ZN5Catch20ReusableStringStreamD1Ev, symObjAddr: 0x378, symBinAddr: 0x10000197C, symSize: 0x2C }
  - { offsetInCU: 0xDBC08, offset: 0xDBC08, size: 0x8, addend: 0x0, symName: __ZNK5Catch6Detail6Approx22equalityComparisonImplEd, symObjAddr: 0x3A4, symBinAddr: 0x1000019A8, symSize: 0xCC }
  - { offsetInCU: 0xDBC3E, offset: 0xDBC3E, size: 0x8, addend: 0x0, symName: __Z5isinfB8ue170006Ua9enable_ifIXLb1EEEd, symObjAddr: 0x4D8, symBinAddr: 0x100001ADC, symSize: 0x2C }
  - { offsetInCU: 0xDBC6D, offset: 0xDBC6D, size: 0x8, addend: 0x0, symName: __ZN5Catch6Detail6Approx9setMarginEd, symObjAddr: 0x504, symBinAddr: 0x100001B08, symSize: 0x118 }
  - { offsetInCU: 0xDBCBC, offset: 0xDBCBC, size: 0x8, addend: 0x0, symName: __ZN5Catch20ReusableStringStreamlsIA25_cEERS0_RKT_, symObjAddr: 0x66C, symBinAddr: 0x100001C70, symSize: 0x38 }
  - { offsetInCU: 0xDBD04, offset: 0xDBD04, size: 0x8, addend: 0x0, symName: __ZN5Catch20ReusableStringStreamlsIdEERS0_RKT_, symObjAddr: 0x6A4, symBinAddr: 0x100001CA8, symSize: 0x3C }
  - { offsetInCU: 0xDBD42, offset: 0xDBD42, size: 0x8, addend: 0x0, symName: __ZN5Catch20ReusableStringStreamlsIcEERS0_RKT_, symObjAddr: 0x6E0, symBinAddr: 0x100001CE4, symSize: 0x3C }
  - { offsetInCU: 0xDBD8A, offset: 0xDBD8A, size: 0x8, addend: 0x0, symName: __ZN5Catch20ReusableStringStreamlsIA40_cEERS0_RKT_, symObjAddr: 0x71C, symBinAddr: 0x100001D20, symSize: 0x38 }
  - { offsetInCU: 0xDBDC8, offset: 0xDBDC8, size: 0x8, addend: 0x0, symName: __ZN5Catch6Detail6Approx10setEpsilonEd, symObjAddr: 0x754, symBinAddr: 0x100001D58, symSize: 0x130 }
  - { offsetInCU: 0xDBE17, offset: 0xDBE17, size: 0x8, addend: 0x0, symName: __ZN5Catch20ReusableStringStreamlsIA26_cEERS0_RKT_, symObjAddr: 0x884, symBinAddr: 0x100001E88, symSize: 0x38 }
  - { offsetInCU: 0xDBE6D, offset: 0xDBE6D, size: 0x8, addend: 0x0, symName: __ZN5Catch20ReusableStringStreamlsIA37_cEERS0_RKT_, symObjAddr: 0x8BC, symBinAddr: 0x100001EC0, symSize: 0x38 }
  - { offsetInCU: 0xDBEB5, offset: 0xDBEB5, size: 0x8, addend: 0x0, symName: __ZN5Catch6Detail6ApproxC1IevEERKT_, symObjAddr: 0x92C, symBinAddr: 0x100001F30, symSize: 0x38 }
  - { offsetInCU: 0xDBF02, offset: 0xDBF02, size: 0x8, addend: 0x0, symName: __ZN5Catch6Detail6ApproxC1IyvEERKT_, symObjAddr: 0x99C, symBinAddr: 0x100001FA0, symSize: 0x3C }
  - { offsetInCU: 0xDBF49, offset: 0xDBF49, size: 0x8, addend: 0x0, symName: __ZN5Catch11StringMakerINS_6Detail6ApproxEvE7convertERKS2_, symObjAddr: 0x9D8, symBinAddr: 0x100001FDC, symSize: 0x2C }
  - { offsetInCU: 0xDBF6F, offset: 0xDBF6F, size: 0x8, addend: 0x0, symName: __ZN5Catch14LazyExpressionC2Eb, symObjAddr: 0xA04, symBinAddr: 0x100002008, symSize: 0x30 }
  - { offsetInCU: 0xDBFAA, offset: 0xDBFAA, size: 0x8, addend: 0x0, symName: __ZN5Catch14LazyExpressionC1Eb, symObjAddr: 0xA34, symBinAddr: 0x100002038, symSize: 0x40 }
  - { offsetInCU: 0xDBFE5, offset: 0xDBFE5, size: 0x8, addend: 0x0, symName: __ZN5Catch14LazyExpressionC2ERKS0_, symObjAddr: 0xA74, symBinAddr: 0x100002078, symSize: 0x2C }
  - { offsetInCU: 0xDC020, offset: 0xDC020, size: 0x8, addend: 0x0, symName: __ZN5Catch14LazyExpressionC1ERKS0_, symObjAddr: 0xAA0, symBinAddr: 0x1000020A4, symSize: 0x34 }
  - { offsetInCU: 0xDC05B, offset: 0xDC05B, size: 0x8, addend: 0x0, symName: __ZNK5Catch14LazyExpressioncvbEv, symObjAddr: 0xAD4, symBinAddr: 0x1000020D8, symSize: 0x24 }
  - { offsetInCU: 0xDC083, offset: 0xDC083, size: 0x8, addend: 0x0, symName: __ZNK5Catch20ITransientExpression18isBinaryExpressionEv, symObjAddr: 0xC14, symBinAddr: 0x100002218, symSize: 0x1C }
  - { offsetInCU: 0xDC0BD, offset: 0xDC0BD, size: 0x8, addend: 0x0, symName: __ZN5Catch16AssertionHandlerC2ERKNS_9StringRefERKNS_14SourceLineInfoES1_NS_17ResultDisposition5FlagsE, symObjAddr: 0xC68, symBinAddr: 0x10000226C, symSize: 0x80 }
  - { offsetInCU: 0xDC12A, offset: 0xDC12A, size: 0x8, addend: 0x0, symName: __ZN5Catch17AssertionReactionC1Ev, symObjAddr: 0xCE8, symBinAddr: 0x1000022EC, symSize: 0x2C }
  - { offsetInCU: 0xDC157, offset: 0xDC157, size: 0x8, addend: 0x0, symName: __ZN5Catch16AssertionHandlerC1ERKNS_9StringRefERKNS_14SourceLineInfoES1_NS_17ResultDisposition5FlagsE, symObjAddr: 0xE1C, symBinAddr: 0x100002420, symSize: 0x54 }
  - { offsetInCU: 0xDC1BF, offset: 0xDC1BF, size: 0x8, addend: 0x0, symName: __ZN5Catch16AssertionHandler10handleExprERKNS_20ITransientExpressionE, symObjAddr: 0xE70, symBinAddr: 0x100002474, symSize: 0x40 }
  - { offsetInCU: 0xDC1F6, offset: 0xDC1F6, size: 0x8, addend: 0x0, symName: __ZN5Catch16AssertionHandler13handleMessageENS_9ResultWas6OfTypeERKNS_9StringRefE, symObjAddr: 0xEB0, symBinAddr: 0x1000024B4, symSize: 0x48 }
  - { offsetInCU: 0xDC23C, offset: 0xDC23C, size: 0x8, addend: 0x0, symName: __ZNK5Catch16AssertionHandler11allowThrowsEv, symObjAddr: 0xEF8, symBinAddr: 0x1000024FC, symSize: 0x40 }
  - { offsetInCU: 0xDC264, offset: 0xDC264, size: 0x8, addend: 0x0, symName: __ZNKSt3__110shared_ptrIKN5Catch7IConfigEEptB8ue170006Ev, symObjAddr: 0xF4C, symBinAddr: 0x100002550, symSize: 0x18 }
  - { offsetInCU: 0xDC28A, offset: 0xDC28A, size: 0x8, addend: 0x0, symName: __ZN5Catch16AssertionHandler8completeEv, symObjAddr: 0xF64, symBinAddr: 0x100002568, symSize: 0x6C }
  - { offsetInCU: 0xDC2C8, offset: 0xDC2C8, size: 0x8, addend: 0x0, symName: __ZN5Catch16AssertionHandler12setCompletedEv, symObjAddr: 0xFD0, symBinAddr: 0x1000025D4, symSize: 0x1C }
  - { offsetInCU: 0xDC2FA, offset: 0xDC2FA, size: 0x8, addend: 0x0, symName: '__ZZN5Catch16AssertionHandler8completeEvENK3$_0clEv', symObjAddr: 0xFEC, symBinAddr: 0x1000025F0, symSize: 0x30 }
  - { offsetInCU: 0xDC324, offset: 0xDC324, size: 0x8, addend: 0x0, symName: __ZN5Catch16AssertionHandler33handleUnexpectedInflightExceptionEv, symObjAddr: 0x101C, symBinAddr: 0x100002620, symSize: 0x84 }
  - { offsetInCU: 0xDC34C, offset: 0xDC34C, size: 0x8, addend: 0x0, symName: __ZN5Catch16AssertionHandler31handleExceptionThrownAsExpectedEv, symObjAddr: 0x10E0, symBinAddr: 0x1000026E4, symSize: 0x3C }
  - { offsetInCU: 0xDC374, offset: 0xDC374, size: 0x8, addend: 0x0, symName: __ZN5Catch16AssertionHandler34handleExceptionNotThrownAsExpectedEv, symObjAddr: 0x111C, symBinAddr: 0x100002720, symSize: 0x3C }
  - { offsetInCU: 0xDC39C, offset: 0xDC39C, size: 0x8, addend: 0x0, symName: __ZN5Catch16AssertionHandler34handleUnexpectedExceptionNotThrownEv, symObjAddr: 0x1158, symBinAddr: 0x10000275C, symSize: 0x38 }
  - { offsetInCU: 0xDC3C4, offset: 0xDC3C4, size: 0x8, addend: 0x0, symName: __ZN5Catch16AssertionHandler25handleThrowingCallSkippedEv, symObjAddr: 0x1190, symBinAddr: 0x100002794, symSize: 0x3C }
  - { offsetInCU: 0xDC3EC, offset: 0xDC3EC, size: 0x8, addend: 0x0, symName: __ZN5Catch8Matchers9StdString13EqualsMatcherD1Ev, symObjAddr: 0x1360, symBinAddr: 0x100002964, symSize: 0x2C }
  - { offsetInCU: 0xDC419, offset: 0xDC419, size: 0x8, addend: 0x0, symName: __ZN5Catch19AssertionResultDataC2ENS_9ResultWas6OfTypeERKNS_14LazyExpressionE, symObjAddr: 0x138C, symBinAddr: 0x100002990, symSize: 0x58 }
  - { offsetInCU: 0xDC463, offset: 0xDC463, size: 0x8, addend: 0x0, symName: __ZNSt3__112basic_stringIcNS_11char_traitsIcEENS_9allocatorIcEEEC1B8ue170006Ev, symObjAddr: 0x13E4, symBinAddr: 0x1000029E8, symSize: 0x2C }
  - { offsetInCU: 0xDC48D, offset: 0xDC48D, size: 0x8, addend: 0x0, symName: __ZN5Catch19AssertionResultDataC1ENS_9ResultWas6OfTypeERKNS_14LazyExpressionE, symObjAddr: 0x1410, symBinAddr: 0x100002A14, symSize: 0x3C }
  - { offsetInCU: 0xDC4D7, offset: 0xDC4D7, size: 0x8, addend: 0x0, symName: __ZNK5Catch19AssertionResultData21reconstructExpressionEv, symObjAddr: 0x144C, symBinAddr: 0x100002A50, symSize: 0xDC }
  - { offsetInCU: 0xDC514, offset: 0xDC514, size: 0x8, addend: 0x0, symName: __ZNKSt3__112basic_stringIcNS_11char_traitsIcEENS_9allocatorIcEEE5emptyB8ue170006Ev, symObjAddr: 0x1528, symBinAddr: 0x100002B2C, symSize: 0x30 }
  - { offsetInCU: 0xDC53A, offset: 0xDC53A, size: 0x8, addend: 0x0, symName: __ZN5Catch20ReusableStringStreamlsINS_14LazyExpressionEEERS0_RKT_, symObjAddr: 0x1558, symBinAddr: 0x100002B5C, symSize: 0x38 }
  - { offsetInCU: 0xDC578, offset: 0xDC578, size: 0x8, addend: 0x0, symName: __ZNSt3__112basic_stringIcNS_11char_traitsIcEENS_9allocatorIcEEEaSB8ue170006EOS5_, symObjAddr: 0x1590, symBinAddr: 0x100002B94, symSize: 0x34 }
  - { offsetInCU: 0xDC5AD, offset: 0xDC5AD, size: 0x8, addend: 0x0, symName: __ZN5Catch15AssertionResultC2ERKNS_13AssertionInfoERKNS_19AssertionResultDataE, symObjAddr: 0x15C4, symBinAddr: 0x100002BC8, symSize: 0x4C }
  - { offsetInCU: 0xDC5F7, offset: 0xDC5F7, size: 0x8, addend: 0x0, symName: __ZN5Catch19AssertionResultDataC1ERKS0_, symObjAddr: 0x1610, symBinAddr: 0x100002C14, symSize: 0x34 }
  - { offsetInCU: 0xDC62D, offset: 0xDC62D, size: 0x8, addend: 0x0, symName: __ZN5Catch15AssertionResultC1ERKNS_13AssertionInfoERKNS_19AssertionResultDataE, symObjAddr: 0x1644, symBinAddr: 0x100002C48, symSize: 0x3C }
  - { offsetInCU: 0xDC677, offset: 0xDC677, size: 0x8, addend: 0x0, symName: __ZNK5Catch15AssertionResult9succeededEv, symObjAddr: 0x1680, symBinAddr: 0x100002C84, symSize: 0x2C }
  - { offsetInCU: 0xDC69F, offset: 0xDC69F, size: 0x8, addend: 0x0, symName: __ZNK5Catch15AssertionResult4isOkEv, symObjAddr: 0x16CC, symBinAddr: 0x100002CD0, symSize: 0x58 }
  - { offsetInCU: 0xDC6C7, offset: 0xDC6C7, size: 0x8, addend: 0x0, symName: __ZNK5Catch15AssertionResult13getResultTypeEv, symObjAddr: 0x1744, symBinAddr: 0x100002D48, symSize: 0x18 }
  - { offsetInCU: 0xDC6EF, offset: 0xDC6EF, size: 0x8, addend: 0x0, symName: __ZNK5Catch15AssertionResult13hasExpressionEv, symObjAddr: 0x175C, symBinAddr: 0x100002D60, symSize: 0x30 }
  - { offsetInCU: 0xDC717, offset: 0xDC717, size: 0x8, addend: 0x0, symName: __ZNK5Catch9StringRef5emptyEv, symObjAddr: 0x178C, symBinAddr: 0x100002D90, symSize: 0x24 }
  - { offsetInCU: 0xDC73D, offset: 0xDC73D, size: 0x8, addend: 0x0, symName: __ZNK5Catch15AssertionResult10hasMessageEv, symObjAddr: 0x17B0, symBinAddr: 0x100002DB4, symSize: 0x30 }
  - { offsetInCU: 0xDC765, offset: 0xDC765, size: 0x8, addend: 0x0, symName: __ZNK5Catch15AssertionResult13getExpressionEv, symObjAddr: 0x17E0, symBinAddr: 0x100002DE4, symSize: 0x138 }
  - { offsetInCU: 0xDC79D, offset: 0xDC79D, size: 0x8, addend: 0x0, symName: __ZNK5Catch9StringRef4sizeEv, symObjAddr: 0x1918, symBinAddr: 0x100002F1C, symSize: 0x18 }
  - { offsetInCU: 0xDC7C3, offset: 0xDC7C3, size: 0x8, addend: 0x0, symName: __ZNSt3__112basic_stringIcNS_11char_traitsIcEENS_9allocatorIcEEEpLB8ue170006EPKc, symObjAddr: 0x1950, symBinAddr: 0x100002F54, symSize: 0x2C }
  - { offsetInCU: 0xDC7F8, offset: 0xDC7F8, size: 0x8, addend: 0x0, symName: __ZNSt3__112basic_stringIcNS_11char_traitsIcEENS_9allocatorIcEEEpLB8ue170006Ec, symObjAddr: 0x19CC, symBinAddr: 0x100002FD0, symSize: 0x34 }
  - { offsetInCU: 0xDC82D, offset: 0xDC82D, size: 0x8, addend: 0x0, symName: __ZNK5Catch15AssertionResult20getExpressionInMacroEv, symObjAddr: 0x1A00, symBinAddr: 0x100003004, symSize: 0x15C }
  - { offsetInCU: 0xDC865, offset: 0xDC865, size: 0x8, addend: 0x0, symName: __ZNK5Catch9StringRefcvNSt3__112basic_stringIcNS1_11char_traitsIcEENS1_9allocatorIcEEEEEv, symObjAddr: 0x1B5C, symBinAddr: 0x100003160, symSize: 0x40 }
  - { offsetInCU: 0xDC88B, offset: 0xDC88B, size: 0x8, addend: 0x0, symName: __ZNK5Catch15AssertionResult21hasExpandedExpressionEv, symObjAddr: 0x1B9C, symBinAddr: 0x1000031A0, symSize: 0x120 }
  - { offsetInCU: 0xDC8B3, offset: 0xDC8B3, size: 0x8, addend: 0x0, symName: __ZNK5Catch15AssertionResult21getExpandedExpressionEv, symObjAddr: 0x1CF0, symBinAddr: 0x1000032F4, symSize: 0x9C }
  - { offsetInCU: 0xDC8EA, offset: 0xDC8EA, size: 0x8, addend: 0x0, symName: __ZNK5Catch15AssertionResult10getMessageEv, symObjAddr: 0x1D8C, symBinAddr: 0x100003390, symSize: 0x3C }
  - { offsetInCU: 0xDC912, offset: 0xDC912, size: 0x8, addend: 0x0, symName: __ZNK5Catch15AssertionResult13getSourceInfoEv, symObjAddr: 0x1DC8, symBinAddr: 0x1000033CC, symSize: 0x24 }
  - { offsetInCU: 0xDC93A, offset: 0xDC93A, size: 0x8, addend: 0x0, symName: __ZNK5Catch15AssertionResult16getTestMacroNameEv, symObjAddr: 0x1DEC, symBinAddr: 0x1000033F0, symSize: 0x24 }
  - { offsetInCU: 0xDC971, offset: 0xDC971, size: 0x8, addend: 0x0, symName: __ZN5Catch9MatchExprINSt3__112basic_stringIcNS1_11char_traitsIcEENS1_9allocatorIcEEEERKNS_8Matchers4Impl11MatcherBaseIS7_EEEC1ERKS7_SD_RKNS_9StringRefE, symObjAddr: 0x1E10, symBinAddr: 0x100003414, symSize: 0x44 }
  - { offsetInCU: 0xDC9C8, offset: 0xDC9C8, size: 0x8, addend: 0x0, symName: __ZN5Catch9MatchExprINSt3__112basic_stringIcNS1_11char_traitsIcEENS1_9allocatorIcEEEERKNS_8Matchers4Impl11MatcherBaseIS7_EEED1Ev, symObjAddr: 0x1E54, symBinAddr: 0x100003458, symSize: 0x2C }
  - { offsetInCU: 0xDC9F5, offset: 0xDC9F5, size: 0x8, addend: 0x0, symName: __ZN5Catch5clara6detail7ExeNameC1ERNSt3__112basic_stringIcNS3_11char_traitsIcEENS3_9allocatorIcEEEE, symObjAddr: 0x4E9C, symBinAddr: 0x1000064A0, symSize: 0x98 }
  - { offsetInCU: 0xDCA42, offset: 0xDCA42, size: 0x8, addend: 0x0, symName: __ZNK5Catch5clara6detail20ComposableParserImplINS1_7ExeNameEEorINS1_4HelpEEENS1_6ParserERKT_, symObjAddr: 0x4F34, symBinAddr: 0x100006538, symSize: 0xDC }
  - { offsetInCU: 0xDCA82, offset: 0xDCA82, size: 0x8, addend: 0x0, symName: __ZN5Catch5clara6detail4HelpC1ERb, symObjAddr: 0x5010, symBinAddr: 0x100006614, symSize: 0x34 }
  - { offsetInCU: 0xDCABB, offset: 0xDCABB, size: 0x8, addend: 0x0, symName: __ZNK5Catch5clara6detail6ParserorINS1_3OptEEES2_RKT_, symObjAddr: 0x5044, symBinAddr: 0x100006648, symSize: 0x8C }
  - { offsetInCU: 0xDCAF9, offset: 0xDCAF9, size: 0x8, addend: 0x0, symName: __ZN5Catch5clara6detail3OptC1ERb, symObjAddr: 0x50D0, symBinAddr: 0x1000066D4, symSize: 0x34 }
  - { offsetInCU: 0xDCB32, offset: 0xDCB32, size: 0x8, addend: 0x0, symName: __ZN5Catch5clara6detail3OptixERKNSt3__112basic_stringIcNS3_11char_traitsIcEENS3_9allocatorIcEEEE, symObjAddr: 0x5104, symBinAddr: 0x100006708, symSize: 0x38 }
  - { offsetInCU: 0xDCB6C, offset: 0xDCB6C, size: 0x8, addend: 0x0, symName: __ZNSt3__112basic_stringIcNS_11char_traitsIcEENS_9allocatorIcEEEC1B8ue170006ILi0EEEPKc, symObjAddr: 0x513C, symBinAddr: 0x100006740, symSize: 0x34 }
  - { offsetInCU: 0xDCBAC, offset: 0xDCBAC, size: 0x8, addend: 0x0, symName: __ZN5Catch5clara6detail13ParserRefImplINS1_3OptEEclERKNSt3__112basic_stringIcNS5_11char_traitsIcEENS5_9allocatorIcEEEE, symObjAddr: 0x5170, symBinAddr: 0x100006774, symSize: 0x38 }
  - { offsetInCU: 0xDCBE1, offset: 0xDCBE1, size: 0x8, addend: 0x0, symName: __ZN5Catch5clara6detail3OptC1INSt3__112basic_stringIcNS4_11char_traitsIcEENS4_9allocatorIcEEEEEERT_RKSA_, symObjAddr: 0x51A8, symBinAddr: 0x1000067AC, symSize: 0x3C }
  - { offsetInCU: 0xDCC32, offset: 0xDCC32, size: 0x8, addend: 0x0, symName: '__ZN5Catch5clara6detail3OptC1IZNS_21makeCommandLineParserERNS_10ConfigDataEE3$_1EERKT_RKNSt3__112basic_stringIcNSA_11char_traitsIcEENSA_9allocatorIcEEEE', symObjAddr: 0x51E4, symBinAddr: 0x1000067E8, symSize: 0x3C }
  - { offsetInCU: 0xDCC83, offset: 0xDCC83, size: 0x8, addend: 0x0, symName: '__ZN5Catch5clara6detail3OptC1IZNS_21makeCommandLineParserERNS_10ConfigDataEE3$_2EERKT_', symObjAddr: 0x5220, symBinAddr: 0x100006824, symSize: 0x34 }
  - { offsetInCU: 0xDCCC5, offset: 0xDCCC5, size: 0x8, addend: 0x0, symName: '__ZN5Catch5clara6detail3OptC1IZNS_21makeCommandLineParserERNS_10ConfigDataEE3$_3EERKT_RKNSt3__112basic_stringIcNSA_11char_traitsIcEENSA_9allocatorIcEEEE', symObjAddr: 0x5254, symBinAddr: 0x100006858, symSize: 0x3C }
  - { offsetInCU: 0xDCD16, offset: 0xDCD16, size: 0x8, addend: 0x0, symName: '__ZN5Catch5clara6detail3OptC1IZNS_21makeCommandLineParserERNS_10ConfigDataEE3$_4EERKT_RKNSt3__112basic_stringIcNSA_11char_traitsIcEENSA_9allocatorIcEEEE', symObjAddr: 0x5290, symBinAddr: 0x100006894, symSize: 0x3C }
  - { offsetInCU: 0xDCD67, offset: 0xDCD67, size: 0x8, addend: 0x0, symName: '__ZN5Catch5clara6detail3OptC1IZNS_21makeCommandLineParserERNS_10ConfigDataEE3$_5EERKT_RKNSt3__112basic_stringIcNSA_11char_traitsIcEENSA_9allocatorIcEEEE', symObjAddr: 0x52CC, symBinAddr: 0x1000068D0, symSize: 0x3C }
  - { offsetInCU: 0xDCDB8, offset: 0xDCDB8, size: 0x8, addend: 0x0, symName: __ZN5Catch5clara6detail3OptC1IdEERT_RKNSt3__112basic_stringIcNS6_11char_traitsIcEENS6_9allocatorIcEEEE, symObjAddr: 0x5308, symBinAddr: 0x10000690C, symSize: 0x3C }
  - { offsetInCU: 0xDCE09, offset: 0xDCE09, size: 0x8, addend: 0x0, symName: '__ZN5Catch5clara6detail3OptC1IZNS_21makeCommandLineParserERNS_10ConfigDataEE3$_6EERKT_RKNSt3__112basic_stringIcNSA_11char_traitsIcEENSA_9allocatorIcEEEE', symObjAddr: 0x5344, symBinAddr: 0x100006948, symSize: 0x3C }
  - { offsetInCU: 0xDCE5A, offset: 0xDCE5A, size: 0x8, addend: 0x0, symName: __ZN5Catch5clara6detail3OptC1INSt3__16vectorINS4_12basic_stringIcNS4_11char_traitsIcEENS4_9allocatorIcEEEENS9_ISB_EEEEEERT_RKSB_, symObjAddr: 0x5380, symBinAddr: 0x100006984, symSize: 0x3C }
  - { offsetInCU: 0xDCEAB, offset: 0xDCEAB, size: 0x8, addend: 0x0, symName: '__ZN5Catch5clara6detail3OptC1IZNS_21makeCommandLineParserERNS_10ConfigDataEE3$_7EERKT_RKNSt3__112basic_stringIcNSA_11char_traitsIcEENSA_9allocatorIcEEEE', symObjAddr: 0x53BC, symBinAddr: 0x1000069C0, symSize: 0x3C }
  - { offsetInCU: 0xDCEFC, offset: 0xDCEFC, size: 0x8, addend: 0x0, symName: '__ZN5Catch5clara6detail3OptC1IZNS_21makeCommandLineParserERNS_10ConfigDataEE3$_8EERKT_RKNSt3__112basic_stringIcNSA_11char_traitsIcEENSA_9allocatorIcEEEE', symObjAddr: 0x53F8, symBinAddr: 0x1000069FC, symSize: 0x3C }
  - { offsetInCU: 0xDCF4D, offset: 0xDCF4D, size: 0x8, addend: 0x0, symName: '__ZN5Catch5clara6detail3OptC1IZNS_21makeCommandLineParserERNS_10ConfigDataEE3$_9EERKT_RKNSt3__112basic_stringIcNSA_11char_traitsIcEENSA_9allocatorIcEEEE', symObjAddr: 0x5434, symBinAddr: 0x100006A38, symSize: 0x3C }
  - { offsetInCU: 0xDCF9E, offset: 0xDCF9E, size: 0x8, addend: 0x0, symName: '__ZN5Catch5clara6detail3OptC1IZNS_21makeCommandLineParserERNS_10ConfigDataEE4$_10EERKT_RKNSt3__112basic_stringIcNSA_11char_traitsIcEENSA_9allocatorIcEEEE', symObjAddr: 0x5470, symBinAddr: 0x100006A74, symSize: 0x3C }
  - { offsetInCU: 0xDCFEF, offset: 0xDCFEF, size: 0x8, addend: 0x0, symName: '__ZN5Catch5clara6detail3OptC1IZNS_21makeCommandLineParserERNS_10ConfigDataEE4$_11EERKT_RKNSt3__112basic_stringIcNSA_11char_traitsIcEENSA_9allocatorIcEEEE', symObjAddr: 0x54AC, symBinAddr: 0x100006AB0, symSize: 0x3C }
  - { offsetInCU: 0xDD040, offset: 0xDD040, size: 0x8, addend: 0x0, symName: __ZN5Catch5clara6detail3OptC1IjEERT_RKNSt3__112basic_stringIcNS6_11char_traitsIcEENS6_9allocatorIcEEEE, symObjAddr: 0x54E8, symBinAddr: 0x100006AEC, symSize: 0x3C }
  - { offsetInCU: 0xDD091, offset: 0xDD091, size: 0x8, addend: 0x0, symName: __ZN5Catch5clara6detail3OptC1IxEERT_RKNSt3__112basic_stringIcNS6_11char_traitsIcEENS6_9allocatorIcEEEE, symObjAddr: 0x5524, symBinAddr: 0x100006B28, symSize: 0x3C }
  - { offsetInCU: 0xDD0E2, offset: 0xDD0E2, size: 0x8, addend: 0x0, symName: __ZNK5Catch5clara6detail6ParserorINS1_3ArgEEES2_RKT_, symObjAddr: 0x5560, symBinAddr: 0x100006B64, symSize: 0x8C }
  - { offsetInCU: 0xDD125, offset: 0xDD125, size: 0x8, addend: 0x0, symName: __ZN5Catch5clara6detail3ArgCI1NS1_13ParserRefImplIS2_EEINSt3__16vectorINS4_12basic_stringIcNS4_11char_traitsIcEENS4_9allocatorIcEEEENS9_ISB_EEEEEERT_RKSB_, symObjAddr: 0x55EC, symBinAddr: 0x100006BF0, symSize: 0x3C }
  - { offsetInCU: 0xDD164, offset: 0xDD164, size: 0x8, addend: 0x0, symName: __ZN5Catch5clara6detail13ParserRefImplINS1_3ArgEEclERKNSt3__112basic_stringIcNS5_11char_traitsIcEENS5_9allocatorIcEEEE, symObjAddr: 0x5628, symBinAddr: 0x100006C2C, symSize: 0x38 }
  - { offsetInCU: 0xDD199, offset: 0xDD199, size: 0x8, addend: 0x0, symName: __ZN5Catch5clara6detail3ArgD1Ev, symObjAddr: 0x5660, symBinAddr: 0x100006C64, symSize: 0x2C }
  - { offsetInCU: 0xDD1C6, offset: 0xDD1C6, size: 0x8, addend: 0x0, symName: __ZN5Catch5clara6detail6ParserD1Ev, symObjAddr: 0x568C, symBinAddr: 0x100006C90, symSize: 0x2C }
  - { offsetInCU: 0xDD1F3, offset: 0xDD1F3, size: 0x8, addend: 0x0, symName: __ZN5Catch5clara6detail3OptD1Ev, symObjAddr: 0x56B8, symBinAddr: 0x100006CBC, symSize: 0x2C }
  - { offsetInCU: 0xDD220, offset: 0xDD220, size: 0x8, addend: 0x0, symName: __ZN5Catch5clara6detail4HelpD1Ev, symObjAddr: 0x56E4, symBinAddr: 0x100006CE8, symSize: 0x2C }
  - { offsetInCU: 0xDD24D, offset: 0xDD24D, size: 0x8, addend: 0x0, symName: __ZN5Catch5clara6detail7ExeNameD1Ev, symObjAddr: 0x5710, symBinAddr: 0x100006D14, symSize: 0x2C }
  - { offsetInCU: 0xDD27A, offset: 0xDD27A, size: 0x8, addend: 0x0, symName: __ZNK5Catch14SourceLineInfoeqERKS0_, symObjAddr: 0x573C, symBinAddr: 0x100006D40, symSize: 0xBC }
  - { offsetInCU: 0xDD2B1, offset: 0xDD2B1, size: 0x8, addend: 0x0, symName: __ZNK5Catch14SourceLineInfoltERKS0_, symObjAddr: 0x5804, symBinAddr: 0x100006E08, symSize: 0xE4 }
  - { offsetInCU: 0xDD2F2, offset: 0xDD2F2, size: 0x8, addend: 0x0, symName: __ZNK5Catch13StreamEndStoppsEv, symObjAddr: 0x5964, symBinAddr: 0x100006F68, symSize: 0x34 }
  - { offsetInCU: 0xDD31A, offset: 0xDD31A, size: 0x8, addend: 0x0, symName: __ZN5Catch11NonCopyableC2Ev, symObjAddr: 0x5998, symBinAddr: 0x100006F9C, symSize: 0x24 }
  - { offsetInCU: 0xDD346, offset: 0xDD346, size: 0x8, addend: 0x0, symName: __ZN5Catch11NonCopyableC1Ev, symObjAddr: 0x59BC, symBinAddr: 0x100006FC0, symSize: 0x2C }
  - { offsetInCU: 0xDD372, offset: 0xDD372, size: 0x8, addend: 0x0, symName: __ZN5Catch11NonCopyableD2Ev, symObjAddr: 0x59E8, symBinAddr: 0x100006FEC, symSize: 0x14 }
  - { offsetInCU: 0xDD39E, offset: 0xDD39E, size: 0x8, addend: 0x0, symName: __ZN5Catch11NonCopyableD1Ev, symObjAddr: 0x59FC, symBinAddr: 0x100007000, symSize: 0x2C }
  - { offsetInCU: 0xDD3CA, offset: 0xDD3CA, size: 0x8, addend: 0x0, symName: __ZN5Catch11NonCopyableD0Ev, symObjAddr: 0x5A28, symBinAddr: 0x10000702C, symSize: 0x30 }
  - { offsetInCU: 0xDD3F6, offset: 0xDD3F6, size: 0x8, addend: 0x0, symName: __ZN5Catch6ConfigC2ERKNS_10ConfigDataE, symObjAddr: 0x5A58, symBinAddr: 0x10000705C, symSize: 0x2FC }
  - { offsetInCU: 0xDD527, offset: 0xDD527, size: 0x8, addend: 0x0, symName: __ZN5Catch7IConfigC2Ev, symObjAddr: 0x5D54, symBinAddr: 0x100007358, symSize: 0x44 }
  - { offsetInCU: 0xDD559, offset: 0xDD559, size: 0x8, addend: 0x0, symName: __ZN5Catch10ConfigDataC1ERKS0_, symObjAddr: 0x5D98, symBinAddr: 0x10000739C, symSize: 0x34 }
  - { offsetInCU: 0xDD58F, offset: 0xDD58F, size: 0x8, addend: 0x0, symName: __ZN5Catch6Config10openStreamEv, symObjAddr: 0x5DCC, symBinAddr: 0x1000073D0, symSize: 0x38 }
  - { offsetInCU: 0xDD5B7, offset: 0xDD5B7, size: 0x8, addend: 0x0, symName: __ZNSt3__110unique_ptrIKN5Catch7IStreamENS_14default_deleteIS3_EEEC1B8ue170006ILb1EvEEPS3_, symObjAddr: 0x5E04, symBinAddr: 0x100007408, symSize: 0x34 }
  - { offsetInCU: 0xDD601, offset: 0xDD601, size: 0x8, addend: 0x0, symName: __ZN5Catch8TestSpecC1Ev, symObjAddr: 0x5E38, symBinAddr: 0x10000743C, symSize: 0x2C }
  - { offsetInCU: 0xDD62E, offset: 0xDD62E, size: 0x8, addend: 0x0, symName: __ZNSt3__16vectorINS_12basic_stringIcNS_11char_traitsIcEENS_9allocatorIcEEEENS4_IS6_EEE5beginB8ue170006Ev, symObjAddr: 0x5E64, symBinAddr: 0x100007468, symSize: 0x30 }
  - { offsetInCU: 0xDD656, offset: 0xDD656, size: 0x8, addend: 0x0, symName: __ZNSt3__16vectorINS_12basic_stringIcNS_11char_traitsIcEENS_9allocatorIcEEEENS4_IS6_EEE3endB8ue170006Ev, symObjAddr: 0x5E94, symBinAddr: 0x100007498, symSize: 0x30 }
  - { offsetInCU: 0xDD67E, offset: 0xDD67E, size: 0x8, addend: 0x0, symName: __ZNKSt3__111__wrap_iterIPNS_12basic_stringIcNS_11char_traitsIcEENS_9allocatorIcEEEEEdeB8ue170006Ev, symObjAddr: 0x5EF8, symBinAddr: 0x1000074FC, symSize: 0x18 }
  - { offsetInCU: 0xDD6A4, offset: 0xDD6A4, size: 0x8, addend: 0x0, symName: __ZNSt3__111__wrap_iterIPNS_12basic_stringIcNS_11char_traitsIcEENS_9allocatorIcEEEEEppB8ue170006Ev, symObjAddr: 0x5FAC, symBinAddr: 0x1000075B0, symSize: 0x20 }
  - { offsetInCU: 0xDD6CA, offset: 0xDD6CA, size: 0x8, addend: 0x0, symName: __ZN5Catch17ITagAliasRegistry3getEv, symObjAddr: 0x5FCC, symBinAddr: 0x1000075D0, symSize: 0x20 }
  - { offsetInCU: 0xDD6E0, offset: 0xDD6E0, size: 0x8, addend: 0x0, symName: __ZN5Catch14TestSpecParserC1ERKNS_17ITagAliasRegistryE, symObjAddr: 0x5FEC, symBinAddr: 0x1000075F0, symSize: 0x34 }
  - { offsetInCU: 0xDD71B, offset: 0xDD71B, size: 0x8, addend: 0x0, symName: __ZNKSt3__16vectorINS_12basic_stringIcNS_11char_traitsIcEENS_9allocatorIcEEEENS4_IS6_EEE5emptyB8ue170006Ev, symObjAddr: 0x6020, symBinAddr: 0x100007624, symSize: 0x28 }
  - { offsetInCU: 0xDD741, offset: 0xDD741, size: 0x8, addend: 0x0, symName: __ZN5Catch14TestSpecParser5parseERKNSt3__112basic_stringIcNS1_11char_traitsIcEENS1_9allocatorIcEEEE, symObjAddr: 0x6048, symBinAddr: 0x10000764C, symSize: 0x140 }
  - { offsetInCU: 0xDD778, offset: 0xDD778, size: 0x8, addend: 0x0, symName: __ZN5Catch14TestSpecParser8testSpecEv, symObjAddr: 0x6188, symBinAddr: 0x10000778C, symSize: 0x40 }
  - { offsetInCU: 0xDD7AA, offset: 0xDD7AA, size: 0x8, addend: 0x0, symName: __ZN5Catch8TestSpecaSEOS0_, symObjAddr: 0x61C8, symBinAddr: 0x1000077CC, symSize: 0x48 }
  - { offsetInCU: 0xDD7DC, offset: 0xDD7DC, size: 0x8, addend: 0x0, symName: __ZN5Catch8TestSpecD1Ev, symObjAddr: 0x6210, symBinAddr: 0x100007814, symSize: 0x2C }
  - { offsetInCU: 0xDD809, offset: 0xDD809, size: 0x8, addend: 0x0, symName: __ZN5Catch14TestSpecParserD1Ev, symObjAddr: 0x623C, symBinAddr: 0x100007840, symSize: 0x2C }
  - { offsetInCU: 0xDD836, offset: 0xDD836, size: 0x8, addend: 0x0, symName: __ZNSt3__110unique_ptrIKN5Catch7IStreamENS_14default_deleteIS3_EEED1B8ue170006Ev, symObjAddr: 0x6268, symBinAddr: 0x10000786C, symSize: 0x2C }
  - { offsetInCU: 0xDD860, offset: 0xDD860, size: 0x8, addend: 0x0, symName: __ZN5Catch10ConfigDataD1Ev, symObjAddr: 0x6294, symBinAddr: 0x100007898, symSize: 0x2C }
  - { offsetInCU: 0xDD88D, offset: 0xDD88D, size: 0x8, addend: 0x0, symName: __ZN5Catch7IConfigD2Ev, symObjAddr: 0x62C0, symBinAddr: 0x1000078C4, symSize: 0x2C }
  - { offsetInCU: 0xDD8B9, offset: 0xDD8B9, size: 0x8, addend: 0x0, symName: __ZN5Catch6ConfigC1ERKNS_10ConfigDataE, symObjAddr: 0x62EC, symBinAddr: 0x1000078F0, symSize: 0x34 }
  - { offsetInCU: 0xDD8F4, offset: 0xDD8F4, size: 0x8, addend: 0x0, symName: __ZNK5Catch6Config11getFilenameEv, symObjAddr: 0x6320, symBinAddr: 0x100007924, symSize: 0x18 }
  - { offsetInCU: 0xDD91C, offset: 0xDD91C, size: 0x8, addend: 0x0, symName: __ZNK5Catch6Config9listTestsEv, symObjAddr: 0x6338, symBinAddr: 0x10000793C, symSize: 0x1C }
  - { offsetInCU: 0xDD944, offset: 0xDD944, size: 0x8, addend: 0x0, symName: __ZNK5Catch6Config17listTestNamesOnlyEv, symObjAddr: 0x6354, symBinAddr: 0x100007958, symSize: 0x1C }
  - { offsetInCU: 0xDD96C, offset: 0xDD96C, size: 0x8, addend: 0x0, symName: __ZNK5Catch6Config8listTagsEv, symObjAddr: 0x6370, symBinAddr: 0x100007974, symSize: 0x1C }
  - { offsetInCU: 0xDD994, offset: 0xDD994, size: 0x8, addend: 0x0, symName: __ZNK5Catch6Config13listReportersEv, symObjAddr: 0x638C, symBinAddr: 0x100007990, symSize: 0x1C }
  - { offsetInCU: 0xDD9BC, offset: 0xDD9BC, size: 0x8, addend: 0x0, symName: __ZNK5Catch6Config14getProcessNameEv, symObjAddr: 0x63A8, symBinAddr: 0x1000079AC, symSize: 0x3C }
  - { offsetInCU: 0xDD9E4, offset: 0xDD9E4, size: 0x8, addend: 0x0, symName: __ZNK5Catch6Config15getReporterNameEv, symObjAddr: 0x63E4, symBinAddr: 0x1000079E8, symSize: 0x18 }
  - { offsetInCU: 0xDDA0C, offset: 0xDDA0C, size: 0x8, addend: 0x0, symName: __ZNK5Catch6Config14getTestsOrTagsEv, symObjAddr: 0x63FC, symBinAddr: 0x100007A00, symSize: 0x18 }
  - { offsetInCU: 0xDDA34, offset: 0xDDA34, size: 0x8, addend: 0x0, symName: __ZNK5Catch6Config16getSectionsToRunEv, symObjAddr: 0x6414, symBinAddr: 0x100007A18, symSize: 0x18 }
  - { offsetInCU: 0xDDA5C, offset: 0xDDA5C, size: 0x8, addend: 0x0, symName: __ZNK5Catch6Config8testSpecEv, symObjAddr: 0x642C, symBinAddr: 0x100007A30, symSize: 0x18 }
  - { offsetInCU: 0xDDA84, offset: 0xDDA84, size: 0x8, addend: 0x0, symName: __ZNK5Catch6Config14hasTestFiltersEv, symObjAddr: 0x6444, symBinAddr: 0x100007A48, symSize: 0x1C }
  - { offsetInCU: 0xDDAAC, offset: 0xDDAAC, size: 0x8, addend: 0x0, symName: __ZNK5Catch6Config8showHelpEv, symObjAddr: 0x6460, symBinAddr: 0x100007A64, symSize: 0x1C }
  - { offsetInCU: 0xDDAD4, offset: 0xDDAD4, size: 0x8, addend: 0x0, symName: __ZNK5Catch6Config11allowThrowsEv, symObjAddr: 0x647C, symBinAddr: 0x100007A80, symSize: 0x20 }
  - { offsetInCU: 0xDDAFC, offset: 0xDDAFC, size: 0x8, addend: 0x0, symName: __ZNK5Catch6Config6streamEv, symObjAddr: 0x649C, symBinAddr: 0x100007AA0, symSize: 0x34 }
  - { offsetInCU: 0xDDB24, offset: 0xDDB24, size: 0x8, addend: 0x0, symName: __ZNKSt3__110unique_ptrIKN5Catch7IStreamENS_14default_deleteIS3_EEEptB8ue170006Ev, symObjAddr: 0x64D0, symBinAddr: 0x100007AD4, symSize: 0x28 }
  - { offsetInCU: 0xDDB4A, offset: 0xDDB4A, size: 0x8, addend: 0x0, symName: __ZNK5Catch6Config4nameEv, symObjAddr: 0x64F8, symBinAddr: 0x100007AFC, symSize: 0x68 }
  - { offsetInCU: 0xDDB72, offset: 0xDDB72, size: 0x8, addend: 0x0, symName: __ZNK5Catch6Config24includeSuccessfulResultsEv, symObjAddr: 0x6560, symBinAddr: 0x100007B64, symSize: 0x1C }
  - { offsetInCU: 0xDDB9A, offset: 0xDDB9A, size: 0x8, addend: 0x0, symName: __ZNK5Catch6Config26warnAboutMissingAssertionsEv, symObjAddr: 0x657C, symBinAddr: 0x100007B80, symSize: 0x24 }
  - { offsetInCU: 0xDDBC2, offset: 0xDDBC2, size: 0x8, addend: 0x0, symName: __ZNK5Catch6Config16warnAboutNoTestsEv, symObjAddr: 0x65A0, symBinAddr: 0x100007BA4, symSize: 0x24 }
  - { offsetInCU: 0xDDBEA, offset: 0xDDBEA, size: 0x8, addend: 0x0, symName: __ZNK5Catch6Config13showDurationsEv, symObjAddr: 0x65C4, symBinAddr: 0x100007BC8, symSize: 0x18 }
  - { offsetInCU: 0xDDC12, offset: 0xDDC12, size: 0x8, addend: 0x0, symName: __ZNK5Catch6Config11minDurationEv, symObjAddr: 0x65DC, symBinAddr: 0x100007BE0, symSize: 0x18 }
  - { offsetInCU: 0xDDC3A, offset: 0xDDC3A, size: 0x8, addend: 0x0, symName: __ZNK5Catch6Config8runOrderEv, symObjAddr: 0x65F4, symBinAddr: 0x100007BF8, symSize: 0x18 }
  - { offsetInCU: 0xDDC62, offset: 0xDDC62, size: 0x8, addend: 0x0, symName: __ZNK5Catch6Config7rngSeedEv, symObjAddr: 0x660C, symBinAddr: 0x100007C10, symSize: 0x18 }
  - { offsetInCU: 0xDDC8A, offset: 0xDDC8A, size: 0x8, addend: 0x0, symName: __ZNK5Catch6Config9useColourEv, symObjAddr: 0x6624, symBinAddr: 0x100007C28, symSize: 0x18 }
  - { offsetInCU: 0xDDCB2, offset: 0xDDCB2, size: 0x8, addend: 0x0, symName: __ZNK5Catch6Config16shouldDebugBreakEv, symObjAddr: 0x663C, symBinAddr: 0x100007C40, symSize: 0x1C }
  - { offsetInCU: 0xDDCDA, offset: 0xDDCDA, size: 0x8, addend: 0x0, symName: __ZNK5Catch6Config10abortAfterEv, symObjAddr: 0x6658, symBinAddr: 0x100007C5C, symSize: 0x18 }
  - { offsetInCU: 0xDDD02, offset: 0xDDD02, size: 0x8, addend: 0x0, symName: __ZNK5Catch6Config14showInvisiblesEv, symObjAddr: 0x6670, symBinAddr: 0x100007C74, symSize: 0x1C }
  - { offsetInCU: 0xDDD2A, offset: 0xDDD2A, size: 0x8, addend: 0x0, symName: __ZNK5Catch6Config9verbosityEv, symObjAddr: 0x668C, symBinAddr: 0x100007C90, symSize: 0x18 }
  - { offsetInCU: 0xDDD52, offset: 0xDDD52, size: 0x8, addend: 0x0, symName: __ZNK5Catch6Config19benchmarkNoAnalysisEv, symObjAddr: 0x66A4, symBinAddr: 0x100007CA8, symSize: 0x1C }
  - { offsetInCU: 0xDDD7A, offset: 0xDDD7A, size: 0x8, addend: 0x0, symName: __ZNK5Catch6Config16benchmarkSamplesEv, symObjAddr: 0x66C0, symBinAddr: 0x100007CC4, symSize: 0x18 }
  - { offsetInCU: 0xDDDA2, offset: 0xDDDA2, size: 0x8, addend: 0x0, symName: __ZNK5Catch6Config27benchmarkConfidenceIntervalEv, symObjAddr: 0x66D8, symBinAddr: 0x100007CDC, symSize: 0x18 }
  - { offsetInCU: 0xDDDCA, offset: 0xDDDCA, size: 0x8, addend: 0x0, symName: __ZNK5Catch6Config18benchmarkResamplesEv, symObjAddr: 0x66F0, symBinAddr: 0x100007CF4, symSize: 0x18 }
  - { offsetInCU: 0xDDDF2, offset: 0xDDDF2, size: 0x8, addend: 0x0, symName: __ZNK5Catch6Config19benchmarkWarmupTimeEv, symObjAddr: 0x6708, symBinAddr: 0x100007D0C, symSize: 0x34 }
  - { offsetInCU: 0xDDE29, offset: 0xDDE29, size: 0x8, addend: 0x0, symName: __ZNSt3__16chrono8durationIxNS_5ratioILl1ELl1000EEEEC1B8ue170006IxEERKT_PNS_9enable_ifIXaasr14is_convertibleIS8_xEE5valueooL_ZNS_17integral_constantIbLb0EE5valueEEntsr23treat_as_floating_pointIS6_EE5valueEvE4typeE, symObjAddr: 0x673C, symBinAddr: 0x100007D40, symSize: 0x3C }
  - { offsetInCU: 0xDDE76, offset: 0xDDE76, size: 0x8, addend: 0x0, symName: __ZN5Catch9StringRefC1ERKNSt3__112basic_stringIcNS1_11char_traitsIcEENS1_9allocatorIcEEEE, symObjAddr: 0x696C, symBinAddr: 0x100007F70, symSize: 0x34 }
  - { offsetInCU: 0xDDEAF, offset: 0xDDEAF, size: 0x8, addend: 0x0, symName: __ZN5Catch6ColourC2ENS0_4CodeE, symObjAddr: 0x69A0, symBinAddr: 0x100007FA4, symSize: 0x38 }
  - { offsetInCU: 0xDDEEA, offset: 0xDDEEA, size: 0x8, addend: 0x0, symName: __ZN5Catch6ColourC1ENS0_4CodeE, symObjAddr: 0x6AB0, symBinAddr: 0x1000080B4, symSize: 0x34 }
  - { offsetInCU: 0xDDF25, offset: 0xDDF25, size: 0x8, addend: 0x0, symName: __ZN5Catch6ColourC2EOS0_, symObjAddr: 0x6AE4, symBinAddr: 0x1000080E8, symSize: 0x38 }
  - { offsetInCU: 0xDDF60, offset: 0xDDF60, size: 0x8, addend: 0x0, symName: __ZN5Catch6ColourC1EOS0_, symObjAddr: 0x6B1C, symBinAddr: 0x100008120, symSize: 0x34 }
  - { offsetInCU: 0xDDF9B, offset: 0xDDF9B, size: 0x8, addend: 0x0, symName: __ZN5Catch6ColouraSEOS0_, symObjAddr: 0x6B50, symBinAddr: 0x100008154, symSize: 0x34 }
  - { offsetInCU: 0xDDFD2, offset: 0xDDFD2, size: 0x8, addend: 0x0, symName: __ZN5Catch6ColourD2Ev, symObjAddr: 0x6B84, symBinAddr: 0x100008188, symSize: 0x4C }
  - { offsetInCU: 0xDDFFE, offset: 0xDDFFE, size: 0x8, addend: 0x0, symName: __ZN5Catch6ColourD1Ev, symObjAddr: 0x6BD0, symBinAddr: 0x1000081D4, symSize: 0x2C }
  - { offsetInCU: 0xDE02A, offset: 0xDE02A, size: 0x8, addend: 0x0, symName: __ZN5Catch15IMutableContext13createContextEv, symObjAddr: 0x6D8C, symBinAddr: 0x100008390, symSize: 0x70 }
  - { offsetInCU: 0xDE04F, offset: 0xDE04F, size: 0x8, addend: 0x0, symName: __ZN5Catch7ContextC1Ev, symObjAddr: 0x6DFC, symBinAddr: 0x100008400, symSize: 0x2C }
  - { offsetInCU: 0xDE07C, offset: 0xDE07C, size: 0x8, addend: 0x0, symName: __ZN5Catch8IContextD2Ev, symObjAddr: 0x6E78, symBinAddr: 0x10000847C, symSize: 0x14 }
  - { offsetInCU: 0xDE0A8, offset: 0xDE0A8, size: 0x8, addend: 0x0, symName: __ZN5Catch8IContextD1Ev, symObjAddr: 0x6E8C, symBinAddr: 0x100008490, symSize: 0x14 }
  - { offsetInCU: 0xDE0D4, offset: 0xDE0D4, size: 0x8, addend: 0x0, symName: __ZN5Catch8IContextD0Ev, symObjAddr: 0x6EA0, symBinAddr: 0x1000084A4, symSize: 0xC }
  - { offsetInCU: 0xDE100, offset: 0xDE100, size: 0x8, addend: 0x0, symName: __ZN5Catch15IMutableContextD2Ev, symObjAddr: 0x6EAC, symBinAddr: 0x1000084B0, symSize: 0x2C }
  - { offsetInCU: 0xDE12C, offset: 0xDE12C, size: 0x8, addend: 0x0, symName: __ZN5Catch15IMutableContextD1Ev, symObjAddr: 0x6ED8, symBinAddr: 0x1000084DC, symSize: 0x14 }
  - { offsetInCU: 0xDE158, offset: 0xDE158, size: 0x8, addend: 0x0, symName: __ZN5Catch15IMutableContextD0Ev, symObjAddr: 0x6EEC, symBinAddr: 0x1000084F0, symSize: 0xC }
  - { offsetInCU: 0xDE184, offset: 0xDE184, size: 0x8, addend: 0x0, symName: __ZN5Catch7ContextD2Ev, symObjAddr: 0x6EF8, symBinAddr: 0x1000084FC, symSize: 0x5C }
  - { offsetInCU: 0xDE1B0, offset: 0xDE1B0, size: 0x8, addend: 0x0, symName: __ZNSt3__110shared_ptrIKN5Catch7IConfigEED1B8ue170006Ev, symObjAddr: 0x6F54, symBinAddr: 0x100008558, symSize: 0x2C }
  - { offsetInCU: 0xDE1DA, offset: 0xDE1DA, size: 0x8, addend: 0x0, symName: __ZN5Catch7ContextD1Ev, symObjAddr: 0x6F80, symBinAddr: 0x100008584, symSize: 0x2C }
  - { offsetInCU: 0xDE206, offset: 0xDE206, size: 0x8, addend: 0x0, symName: __ZThn8_N5Catch7ContextD1Ev, symObjAddr: 0x6FAC, symBinAddr: 0x1000085B0, symSize: 0x1C }
  - { offsetInCU: 0xDE21D, offset: 0xDE21D, size: 0x8, addend: 0x0, symName: __ZN5Catch7ContextD0Ev, symObjAddr: 0x6FC8, symBinAddr: 0x1000085CC, symSize: 0x30 }
  - { offsetInCU: 0xDE249, offset: 0xDE249, size: 0x8, addend: 0x0, symName: __ZThn8_N5Catch7ContextD0Ev, symObjAddr: 0x6FF8, symBinAddr: 0x1000085FC, symSize: 0x18 }
  - { offsetInCU: 0xDE260, offset: 0xDE260, size: 0x8, addend: 0x0, symName: __ZN5Catch11SimplePcg32C1Ev, symObjAddr: 0x70B0, symBinAddr: 0x1000086B4, symSize: 0x34 }
  - { offsetInCU: 0xDE28A, offset: 0xDE28A, size: 0x8, addend: 0x0, symName: __ZNSt3__113basic_ostreamIcNS_11char_traitsIcEEElsB8ue170006EPFRS3_S4_E, symObjAddr: 0x7288, symBinAddr: 0x10000888C, symSize: 0x2C }
  - { offsetInCU: 0xDE2BF, offset: 0xDE2BF, size: 0x8, addend: 0x0, symName: __ZN5Catch20ITransientExpressionD2Ev, symObjAddr: 0x730C, symBinAddr: 0x100008910, symSize: 0x14 }
  - { offsetInCU: 0xDE2EB, offset: 0xDE2EB, size: 0x8, addend: 0x0, symName: __ZN5Catch20ITransientExpressionD1Ev, symObjAddr: 0x7320, symBinAddr: 0x100008924, symSize: 0x14 }
  - { offsetInCU: 0xDE317, offset: 0xDE317, size: 0x8, addend: 0x0, symName: __ZN5Catch20ITransientExpressionD0Ev, symObjAddr: 0x7334, symBinAddr: 0x100008938, symSize: 0xC }
  - { offsetInCU: 0xDE343, offset: 0xDE343, size: 0x8, addend: 0x0, symName: __ZNKSt3__112basic_stringIcNS_11char_traitsIcEENS_9allocatorIcEEE4sizeB8ue170006Ev, symObjAddr: 0x744C, symBinAddr: 0x100008A50, symSize: 0x54 }
  - { offsetInCU: 0xDE369, offset: 0xDE369, size: 0x8, addend: 0x0, symName: __ZNSt12domain_errorC1B8ue170006ERKNSt3__112basic_stringIcNS0_11char_traitsIcEENS0_9allocatorIcEEEE, symObjAddr: 0x75B4, symBinAddr: 0x100008BB8, symSize: 0x34 }
  - { offsetInCU: 0xDE3A2, offset: 0xDE3A2, size: 0x8, addend: 0x0, symName: __ZN5Catch26IMutableEnumValuesRegistryD2Ev, symObjAddr: 0x7674, symBinAddr: 0x100008C78, symSize: 0x14 }
  - { offsetInCU: 0xDE3CE, offset: 0xDE3CE, size: 0x8, addend: 0x0, symName: __ZN5Catch26IMutableEnumValuesRegistryD1Ev, symObjAddr: 0x7688, symBinAddr: 0x100008C8C, symSize: 0x14 }
  - { offsetInCU: 0xDE3FA, offset: 0xDE3FA, size: 0x8, addend: 0x0, symName: __ZN5Catch26IMutableEnumValuesRegistryD0Ev, symObjAddr: 0x769C, symBinAddr: 0x100008CA0, symSize: 0xC }
  - { offsetInCU: 0xDE426, offset: 0xDE426, size: 0x8, addend: 0x0, symName: __ZNSt3__16vectorIN5Catch9StringRefENS_9allocatorIS2_EEEC1B8ue170006Ev, symObjAddr: 0x7A14, symBinAddr: 0x100009018, symSize: 0x2C }
  - { offsetInCU: 0xDE450, offset: 0xDE450, size: 0x8, addend: 0x0, symName: __ZNSt3__16vectorIN5Catch9StringRefENS_9allocatorIS2_EEE7reserveEm, symObjAddr: 0x7A40, symBinAddr: 0x100009044, symSize: 0xE8 }
  - { offsetInCU: 0xDE4AC, offset: 0xDE4AC, size: 0x8, addend: 0x0, symName: __ZNKSt3__16vectorIN5Catch9StringRefENS_9allocatorIS2_EEE4sizeB8ue170006Ev, symObjAddr: 0x7B28, symBinAddr: 0x10000912C, symSize: 0x28 }
  - { offsetInCU: 0xDE4D2, offset: 0xDE4D2, size: 0x8, addend: 0x0, symName: __ZNSt3__16vectorIN5Catch9StringRefENS_9allocatorIS2_EEE5beginB8ue170006Ev, symObjAddr: 0x7B50, symBinAddr: 0x100009154, symSize: 0x30 }
  - { offsetInCU: 0xDE4FA, offset: 0xDE4FA, size: 0x8, addend: 0x0, symName: __ZNSt3__16vectorIN5Catch9StringRefENS_9allocatorIS2_EEE3endB8ue170006Ev, symObjAddr: 0x7B80, symBinAddr: 0x100009184, symSize: 0x30 }
  - { offsetInCU: 0xDE522, offset: 0xDE522, size: 0x8, addend: 0x0, symName: __ZNKSt3__111__wrap_iterIPN5Catch9StringRefEEdeB8ue170006Ev, symObjAddr: 0x7BE4, symBinAddr: 0x1000091E8, symSize: 0x18 }
  - { offsetInCU: 0xDE548, offset: 0xDE548, size: 0x8, addend: 0x0, symName: __ZNSt3__16vectorIN5Catch9StringRefENS_9allocatorIS2_EEE9push_backB8ue170006EOS2_, symObjAddr: 0x7BFC, symBinAddr: 0x100009200, symSize: 0x6C }
  - { offsetInCU: 0xDE57F, offset: 0xDE57F, size: 0x8, addend: 0x0, symName: __ZNSt3__111__wrap_iterIPN5Catch9StringRefEEppB8ue170006Ev, symObjAddr: 0x7E64, symBinAddr: 0x100009468, symSize: 0x20 }
  - { offsetInCU: 0xDE5A5, offset: 0xDE5A5, size: 0x8, addend: 0x0, symName: __ZNSt3__16vectorIN5Catch9StringRefENS_9allocatorIS2_EEED1B8ue170006Ev, symObjAddr: 0x7E84, symBinAddr: 0x100009488, symSize: 0x2C }
  - { offsetInCU: 0xDE5CF, offset: 0xDE5CF, size: 0x8, addend: 0x0, symName: __ZN5Catch6Detail8EnumInfoD2Ev, symObjAddr: 0x7EB0, symBinAddr: 0x1000094B4, symSize: 0x30 }
  - { offsetInCU: 0xDE5FB, offset: 0xDE5FB, size: 0x8, addend: 0x0, symName: __ZNSt3__16vectorINS_4pairIiN5Catch9StringRefEEENS_9allocatorIS4_EEED1B8ue170006Ev, symObjAddr: 0x7EE0, symBinAddr: 0x1000094E4, symSize: 0x2C }
  - { offsetInCU: 0xDE625, offset: 0xDE625, size: 0x8, addend: 0x0, symName: __ZN5Catch6Detail8EnumInfoD1Ev, symObjAddr: 0x7F0C, symBinAddr: 0x100009510, symSize: 0x2C }
  - { offsetInCU: 0xDE651, offset: 0xDE651, size: 0x8, addend: 0x0, symName: __ZNK5Catch6Detail8EnumInfo6lookupEi, symObjAddr: 0x7F38, symBinAddr: 0x10000953C, symSize: 0xC8 }
  - { offsetInCU: 0xDE6D7, offset: 0xDE6D7, size: 0x8, addend: 0x0, symName: __ZNKSt3__16vectorINS_4pairIiN5Catch9StringRefEEENS_9allocatorIS4_EEE5beginB8ue170006Ev, symObjAddr: 0x8000, symBinAddr: 0x100009604, symSize: 0x30 }
  - { offsetInCU: 0xDE6FF, offset: 0xDE6FF, size: 0x8, addend: 0x0, symName: __ZNKSt3__16vectorINS_4pairIiN5Catch9StringRefEEENS_9allocatorIS4_EEE3endB8ue170006Ev, symObjAddr: 0x8030, symBinAddr: 0x100009634, symSize: 0x30 }
  - { offsetInCU: 0xDE727, offset: 0xDE727, size: 0x8, addend: 0x0, symName: __ZNKSt3__111__wrap_iterIPKNS_4pairIiN5Catch9StringRefEEEEdeB8ue170006Ev, symObjAddr: 0x8094, symBinAddr: 0x100009698, symSize: 0x18 }
  - { offsetInCU: 0xDE74D, offset: 0xDE74D, size: 0x8, addend: 0x0, symName: __ZNSt3__111__wrap_iterIPKNS_4pairIiN5Catch9StringRefEEEEppB8ue170006Ev, symObjAddr: 0x80AC, symBinAddr: 0x1000096B0, symSize: 0x20 }
  - { offsetInCU: 0xDE773, offset: 0xDE773, size: 0x8, addend: 0x0, symName: __ZN5Catch6Detail8EnumInfoC1Ev, symObjAddr: 0x8330, symBinAddr: 0x100009934, symSize: 0x2C }
  - { offsetInCU: 0xDE7A0, offset: 0xDE7A0, size: 0x8, addend: 0x0, symName: __ZNSt3__110unique_ptrIN5Catch6Detail8EnumInfoENS_14default_deleteIS3_EEEC1B8ue170006ILb1EvEEPS3_, symObjAddr: 0x835C, symBinAddr: 0x100009960, symSize: 0x34 }
  - { offsetInCU: 0xDE7E5, offset: 0xDE7E5, size: 0x8, addend: 0x0, symName: __ZNKSt3__110unique_ptrIN5Catch6Detail8EnumInfoENS_14default_deleteIS3_EEEptB8ue170006Ev, symObjAddr: 0x8390, symBinAddr: 0x100009994, symSize: 0x28 }
  - { offsetInCU: 0xDE80B, offset: 0xDE80B, size: 0x8, addend: 0x0, symName: __ZNSt3__16vectorINS_4pairIiN5Catch9StringRefEEENS_9allocatorIS4_EEE7reserveEm, symObjAddr: 0x83B8, symBinAddr: 0x1000099BC, symSize: 0xE8 }
  - { offsetInCU: 0xDE867, offset: 0xDE867, size: 0x8, addend: 0x0, symName: __ZNKSt3__16vectorIiNS_9allocatorIiEEE4sizeB8ue170006Ev, symObjAddr: 0x84A0, symBinAddr: 0x100009AA4, symSize: 0x28 }
  - { offsetInCU: 0xDE88D, offset: 0xDE88D, size: 0x8, addend: 0x0, symName: __ZNKSt3__16vectorIiNS_9allocatorIiEEE5beginB8ue170006Ev, symObjAddr: 0x84C8, symBinAddr: 0x100009ACC, symSize: 0x30 }
  - { offsetInCU: 0xDE8B5, offset: 0xDE8B5, size: 0x8, addend: 0x0, symName: __ZNKSt3__16vectorIiNS_9allocatorIiEEE3endB8ue170006Ev, symObjAddr: 0x84F8, symBinAddr: 0x100009AFC, symSize: 0x30 }
  - { offsetInCU: 0xDE8DD, offset: 0xDE8DD, size: 0x8, addend: 0x0, symName: __ZNKSt3__111__wrap_iterIPKiEdeB8ue170006Ev, symObjAddr: 0x855C, symBinAddr: 0x100009B60, symSize: 0x18 }
  - { offsetInCU: 0xDE903, offset: 0xDE903, size: 0x8, addend: 0x0, symName: __ZNSt3__16vectorINS_4pairIiN5Catch9StringRefEEENS_9allocatorIS4_EEE12emplace_backIJRiRKS3_EEERS4_DpOT_, symObjAddr: 0x8574, symBinAddr: 0x100009B78, symSize: 0x80 }
  - { offsetInCU: 0xDE95C, offset: 0xDE95C, size: 0x8, addend: 0x0, symName: __ZNKSt3__16vectorIN5Catch9StringRefENS_9allocatorIS2_EEEixB8ue170006Em, symObjAddr: 0x85F4, symBinAddr: 0x100009BF8, symSize: 0x24 }
  - { offsetInCU: 0xDE993, offset: 0xDE993, size: 0x8, addend: 0x0, symName: __ZNSt3__111__wrap_iterIPKiEppB8ue170006Ev, symObjAddr: 0x8618, symBinAddr: 0x100009C1C, symSize: 0x20 }
  - { offsetInCU: 0xDE9B9, offset: 0xDE9B9, size: 0x8, addend: 0x0, symName: __ZNSt3__110unique_ptrIN5Catch6Detail8EnumInfoENS_14default_deleteIS3_EEED1B8ue170006Ev, symObjAddr: 0x8638, symBinAddr: 0x100009C3C, symSize: 0x2C }
  - { offsetInCU: 0xDE9E3, offset: 0xDE9E3, size: 0x8, addend: 0x0, symName: __ZN5Catch6Detail18EnumValuesRegistry12registerEnumENS_9StringRefES2_RKNSt3__16vectorIiNS3_9allocatorIiEEEE, symObjAddr: 0x8664, symBinAddr: 0x100009C68, symSize: 0xB4 }
  - { offsetInCU: 0xDEA38, offset: 0xDEA38, size: 0x8, addend: 0x0, symName: __ZNSt3__16vectorINS_10unique_ptrIN5Catch6Detail8EnumInfoENS_14default_deleteIS4_EEEENS_9allocatorIS7_EEE9push_backB8ue170006EOS7_, symObjAddr: 0x8718, symBinAddr: 0x100009D1C, symSize: 0x6C }
  - { offsetInCU: 0xDEA6F, offset: 0xDEA6F, size: 0x8, addend: 0x0, symName: __ZNSt3__16vectorINS_10unique_ptrIN5Catch6Detail8EnumInfoENS_14default_deleteIS4_EEEENS_9allocatorIS7_EEE4backB8ue170006Ev, symObjAddr: 0x8784, symBinAddr: 0x100009D88, symSize: 0x1C }
  - { offsetInCU: 0xDEA95, offset: 0xDEA95, size: 0x8, addend: 0x0, symName: __ZNKSt3__110unique_ptrIN5Catch6Detail8EnumInfoENS_14default_deleteIS3_EEEdeB8ue170006Ev, symObjAddr: 0x87A0, symBinAddr: 0x100009DA4, symSize: 0x28 }
  - { offsetInCU: 0xDEAC0, offset: 0xDEAC0, size: 0x8, addend: 0x0, symName: __ZN5Catch10ErrnoGuardC2Ev, symObjAddr: 0x87C8, symBinAddr: 0x100009DCC, symSize: 0x38 }
  - { offsetInCU: 0xDEAEC, offset: 0xDEAEC, size: 0x8, addend: 0x0, symName: __ZN5Catch10ErrnoGuardC1Ev, symObjAddr: 0x8800, symBinAddr: 0x100009E04, symSize: 0x2C }
  - { offsetInCU: 0xDEB18, offset: 0xDEB18, size: 0x8, addend: 0x0, symName: __ZN5Catch10ErrnoGuardD2Ev, symObjAddr: 0x882C, symBinAddr: 0x100009E30, symSize: 0x4C }
  - { offsetInCU: 0xDEB44, offset: 0xDEB44, size: 0x8, addend: 0x0, symName: __ZN5Catch10ErrnoGuardD1Ev, symObjAddr: 0x8878, symBinAddr: 0x100009E7C, symSize: 0x2C }
  - { offsetInCU: 0xDEB70, offset: 0xDEB70, size: 0x8, addend: 0x0, symName: __ZN5Catch27ExceptionTranslatorRegistryD2Ev, symObjAddr: 0x88A4, symBinAddr: 0x100009EA8, symSize: 0x48 }
  - { offsetInCU: 0xDEB9C, offset: 0xDEB9C, size: 0x8, addend: 0x0, symName: __ZNSt3__16vectorINS_10unique_ptrIKN5Catch20IExceptionTranslatorENS_14default_deleteIS4_EEEENS_9allocatorIS7_EEED1B8ue170006Ev, symObjAddr: 0x88EC, symBinAddr: 0x100009EF0, symSize: 0x2C }
  - { offsetInCU: 0xDEBC6, offset: 0xDEBC6, size: 0x8, addend: 0x0, symName: __ZN5Catch28IExceptionTranslatorRegistryD2Ev, symObjAddr: 0x8918, symBinAddr: 0x100009F1C, symSize: 0x14 }
  - { offsetInCU: 0xDEBF2, offset: 0xDEBF2, size: 0x8, addend: 0x0, symName: __ZN5Catch27ExceptionTranslatorRegistryD1Ev, symObjAddr: 0x892C, symBinAddr: 0x100009F30, symSize: 0x2C }
  - { offsetInCU: 0xDEC1E, offset: 0xDEC1E, size: 0x8, addend: 0x0, symName: __ZN5Catch27ExceptionTranslatorRegistryD0Ev, symObjAddr: 0x8958, symBinAddr: 0x100009F5C, symSize: 0x30 }
  - { offsetInCU: 0xDEC4A, offset: 0xDEC4A, size: 0x8, addend: 0x0, symName: __ZN5Catch27ExceptionTranslatorRegistry18registerTranslatorEPKNS_20IExceptionTranslatorE, symObjAddr: 0x8988, symBinAddr: 0x100009F8C, symSize: 0x74 }
  - { offsetInCU: 0xDEC81, offset: 0xDEC81, size: 0x8, addend: 0x0, symName: __ZNSt3__16vectorINS_10unique_ptrIKN5Catch20IExceptionTranslatorENS_14default_deleteIS4_EEEENS_9allocatorIS7_EEE9push_backB8ue170006EOS7_, symObjAddr: 0x89FC, symBinAddr: 0x10000A000, symSize: 0x6C }
  - { offsetInCU: 0xDECB8, offset: 0xDECB8, size: 0x8, addend: 0x0, symName: __ZNSt3__110unique_ptrIKN5Catch20IExceptionTranslatorENS_14default_deleteIS3_EEEC1B8ue170006ILb1EvEEPS3_, symObjAddr: 0x8A68, symBinAddr: 0x10000A06C, symSize: 0x34 }
  - { offsetInCU: 0xDECFD, offset: 0xDECFD, size: 0x8, addend: 0x0, symName: __ZNSt3__110unique_ptrIKN5Catch20IExceptionTranslatorENS_14default_deleteIS3_EEED1B8ue170006Ev, symObjAddr: 0x8A9C, symBinAddr: 0x10000A0A0, symSize: 0x2C }
  - { offsetInCU: 0xDED27, offset: 0xDED27, size: 0x8, addend: 0x0, symName: __ZNK5Catch27ExceptionTranslatorRegistry24translateActiveExceptionEv, symObjAddr: 0x8AC8, symBinAddr: 0x10000A0CC, symSize: 0x260 }
  - { offsetInCU: 0xDED8A, offset: 0xDED8A, size: 0x8, addend: 0x0, symName: __ZNSt13exception_ptrC1B8ue170006EDn, symObjAddr: 0x8D58, symBinAddr: 0x10000A35C, symSize: 0x34 }
  - { offsetInCU: 0xDEDBF, offset: 0xDEDBF, size: 0x8, addend: 0x0, symName: __ZNK5Catch27ExceptionTranslatorRegistry14tryTranslatorsEv, symObjAddr: 0x8D8C, symBinAddr: 0x10000A390, symSize: 0xE4 }
  - { offsetInCU: 0xDEDE7, offset: 0xDEDE7, size: 0x8, addend: 0x0, symName: __ZNKSt3__16vectorINS_10unique_ptrIKN5Catch20IExceptionTranslatorENS_14default_deleteIS4_EEEENS_9allocatorIS7_EEE5emptyB8ue170006Ev, symObjAddr: 0x8E70, symBinAddr: 0x10000A474, symSize: 0x28 }
  - { offsetInCU: 0xDEE0D, offset: 0xDEE0D, size: 0x8, addend: 0x0, symName: __ZNKSt3__16vectorINS_10unique_ptrIKN5Catch20IExceptionTranslatorENS_14default_deleteIS4_EEEENS_9allocatorIS7_EEEixB8ue170006Em, symObjAddr: 0x8E98, symBinAddr: 0x10000A49C, symSize: 0x24 }
  - { offsetInCU: 0xDEE44, offset: 0xDEE44, size: 0x8, addend: 0x0, symName: __ZNKSt3__110unique_ptrIKN5Catch20IExceptionTranslatorENS_14default_deleteIS3_EEEptB8ue170006Ev, symObjAddr: 0x8EBC, symBinAddr: 0x10000A4C0, symSize: 0x28 }
  - { offsetInCU: 0xDEE6A, offset: 0xDEE6A, size: 0x8, addend: 0x0, symName: __ZNKSt3__16vectorINS_10unique_ptrIKN5Catch20IExceptionTranslatorENS_14default_deleteIS4_EEEENS_9allocatorIS7_EEE5beginB8ue170006Ev, symObjAddr: 0x8EE4, symBinAddr: 0x10000A4E8, symSize: 0x30 }
  - { offsetInCU: 0xDEE92, offset: 0xDEE92, size: 0x8, addend: 0x0, symName: __ZNKSt3__111__wrap_iterIPKNS_10unique_ptrIKN5Catch20IExceptionTranslatorENS_14default_deleteIS4_EEEEEplB8ue170006El, symObjAddr: 0x8F14, symBinAddr: 0x10000A518, symSize: 0x3C }
  - { offsetInCU: 0xDEED6, offset: 0xDEED6, size: 0x8, addend: 0x0, symName: __ZNKSt3__16vectorINS_10unique_ptrIKN5Catch20IExceptionTranslatorENS_14default_deleteIS4_EEEENS_9allocatorIS7_EEE3endB8ue170006Ev, symObjAddr: 0x8F50, symBinAddr: 0x10000A554, symSize: 0x30 }
  - { offsetInCU: 0xDEF03, offset: 0xDEF03, size: 0x8, addend: 0x0, symName: __ZN5Catch21FatalConditionHandlerC2Ev, symObjAddr: 0x8F80, symBinAddr: 0x10000A584, symSize: 0xF4 }
  - { offsetInCU: 0xDEF2F, offset: 0xDEF2F, size: 0x8, addend: 0x0, symName: __ZN5Catch21FatalConditionHandlerC1Ev, symObjAddr: 0x90A0, symBinAddr: 0x10000A6A4, symSize: 0x2C }
  - { offsetInCU: 0xDEF5B, offset: 0xDEF5B, size: 0x8, addend: 0x0, symName: __ZN5Catch21FatalConditionHandlerD2Ev, symObjAddr: 0x90CC, symBinAddr: 0x10000A6D0, symSize: 0x58 }
  - { offsetInCU: 0xDEF87, offset: 0xDEF87, size: 0x8, addend: 0x0, symName: __ZN5Catch21FatalConditionHandlerD1Ev, symObjAddr: 0x9124, symBinAddr: 0x10000A728, symSize: 0x2C }
  - { offsetInCU: 0xDEFB3, offset: 0xDEFB3, size: 0x8, addend: 0x0, symName: __ZN5Catch21FatalConditionHandler15engage_platformEv, symObjAddr: 0x9150, symBinAddr: 0x10000A754, symSize: 0xC0 }
  - { offsetInCU: 0xDF016, offset: 0xDF016, size: 0x8, addend: 0x0, symName: __ZN5Catch21FatalConditionHandler18disengage_platformEv, symObjAddr: 0x92CC, symBinAddr: 0x10000A8D0, symSize: 0x20 }
  - { offsetInCU: 0xDF03E, offset: 0xDF03E, size: 0x8, addend: 0x0, symName: __ZN5Catch17IGeneratorTrackerD2Ev, symObjAddr: 0x9370, symBinAddr: 0x10000A974, symSize: 0x14 }
  - { offsetInCU: 0xDF06A, offset: 0xDF06A, size: 0x8, addend: 0x0, symName: __ZN5Catch17IGeneratorTrackerD1Ev, symObjAddr: 0x9384, symBinAddr: 0x10000A988, symSize: 0x14 }
  - { offsetInCU: 0xDF096, offset: 0xDF096, size: 0x8, addend: 0x0, symName: __ZN5Catch17IGeneratorTrackerD0Ev, symObjAddr: 0x9398, symBinAddr: 0x10000A99C, symSize: 0xC }
  - { offsetInCU: 0xDF0D1, offset: 0xDF0D1, size: 0x8, addend: 0x0, symName: __ZNK5Catch18GeneratorException4whatEv, symObjAddr: 0x93A4, symBinAddr: 0x10000A9A8, symSize: 0x18 }
  - { offsetInCU: 0xDF0F9, offset: 0xDF0F9, size: 0x8, addend: 0x0, symName: __ZN5Catch10Generators20GeneratorUntypedBaseD2Ev, symObjAddr: 0x93BC, symBinAddr: 0x10000A9C0, symSize: 0x14 }
  - { offsetInCU: 0xDF125, offset: 0xDF125, size: 0x8, addend: 0x0, symName: __ZN5Catch10Generators20GeneratorUntypedBaseD1Ev, symObjAddr: 0x93D0, symBinAddr: 0x10000A9D4, symSize: 0x14 }
  - { offsetInCU: 0xDF151, offset: 0xDF151, size: 0x8, addend: 0x0, symName: __ZN5Catch10Generators20GeneratorUntypedBaseD0Ev, symObjAddr: 0x93E4, symBinAddr: 0x10000A9E8, symSize: 0xC }
  - { offsetInCU: 0xDF17D, offset: 0xDF17D, size: 0x8, addend: 0x0, symName: __ZN5Catch14IResultCaptureD2Ev, symObjAddr: 0x9438, symBinAddr: 0x10000AA3C, symSize: 0x14 }
  - { offsetInCU: 0xDF1A9, offset: 0xDF1A9, size: 0x8, addend: 0x0, symName: __ZN5Catch14IResultCaptureD1Ev, symObjAddr: 0x944C, symBinAddr: 0x10000AA50, symSize: 0x14 }
  - { offsetInCU: 0xDF1D5, offset: 0xDF1D5, size: 0x8, addend: 0x0, symName: __ZN5Catch14IResultCaptureD0Ev, symObjAddr: 0x9460, symBinAddr: 0x10000AA64, symSize: 0xC }
  - { offsetInCU: 0xDF201, offset: 0xDF201, size: 0x8, addend: 0x0, symName: __ZN5Catch7IConfigD1Ev, symObjAddr: 0x946C, symBinAddr: 0x10000AA70, symSize: 0x14 }
  - { offsetInCU: 0xDF22D, offset: 0xDF22D, size: 0x8, addend: 0x0, symName: __ZN5Catch7IConfigD0Ev, symObjAddr: 0x9480, symBinAddr: 0x10000AA84, symSize: 0xC }
  - { offsetInCU: 0xDF259, offset: 0xDF259, size: 0x8, addend: 0x0, symName: __ZN5Catch20IExceptionTranslatorD2Ev, symObjAddr: 0x948C, symBinAddr: 0x10000AA90, symSize: 0x14 }
  - { offsetInCU: 0xDF285, offset: 0xDF285, size: 0x8, addend: 0x0, symName: __ZN5Catch20IExceptionTranslatorD1Ev, symObjAddr: 0x94A0, symBinAddr: 0x10000AAA4, symSize: 0x14 }
  - { offsetInCU: 0xDF2B1, offset: 0xDF2B1, size: 0x8, addend: 0x0, symName: __ZN5Catch20IExceptionTranslatorD0Ev, symObjAddr: 0x94B4, symBinAddr: 0x10000AAB8, symSize: 0xC }
  - { offsetInCU: 0xDF2DD, offset: 0xDF2DD, size: 0x8, addend: 0x0, symName: __ZN5Catch28IExceptionTranslatorRegistryD1Ev, symObjAddr: 0x94C0, symBinAddr: 0x10000AAC4, symSize: 0x14 }
  - { offsetInCU: 0xDF309, offset: 0xDF309, size: 0x8, addend: 0x0, symName: __ZN5Catch28IExceptionTranslatorRegistryD0Ev, symObjAddr: 0x94D4, symBinAddr: 0x10000AAD8, symSize: 0xC }
  - { offsetInCU: 0xDF335, offset: 0xDF335, size: 0x8, addend: 0x0, symName: __ZN5Catch12IRegistryHubD2Ev, symObjAddr: 0x94E0, symBinAddr: 0x10000AAE4, symSize: 0x14 }
  - { offsetInCU: 0xDF361, offset: 0xDF361, size: 0x8, addend: 0x0, symName: __ZN5Catch12IRegistryHubD1Ev, symObjAddr: 0x94F4, symBinAddr: 0x10000AAF8, symSize: 0x14 }
  - { offsetInCU: 0xDF38D, offset: 0xDF38D, size: 0x8, addend: 0x0, symName: __ZN5Catch12IRegistryHubD0Ev, symObjAddr: 0x9508, symBinAddr: 0x10000AB0C, symSize: 0xC }
  - { offsetInCU: 0xDF3B9, offset: 0xDF3B9, size: 0x8, addend: 0x0, symName: __ZN5Catch19IMutableRegistryHubD2Ev, symObjAddr: 0x9514, symBinAddr: 0x10000AB18, symSize: 0x14 }
  - { offsetInCU: 0xDF3E5, offset: 0xDF3E5, size: 0x8, addend: 0x0, symName: __ZN5Catch19IMutableRegistryHubD1Ev, symObjAddr: 0x9528, symBinAddr: 0x10000AB2C, symSize: 0x14 }
  - { offsetInCU: 0xDF411, offset: 0xDF411, size: 0x8, addend: 0x0, symName: __ZN5Catch19IMutableRegistryHubD0Ev, symObjAddr: 0x953C, symBinAddr: 0x10000AB40, symSize: 0xC }
  - { offsetInCU: 0xDF43D, offset: 0xDF43D, size: 0x8, addend: 0x0, symName: __ZN5Catch14ReporterConfigC2ERKNSt3__110shared_ptrIKNS_7IConfigEEE, symObjAddr: 0x9548, symBinAddr: 0x10000AB4C, symSize: 0x54 }
  - { offsetInCU: 0xDF478, offset: 0xDF478, size: 0x8, addend: 0x0, symName: __ZNSt3__110shared_ptrIKN5Catch7IConfigEEC1B8ue170006ERKS4_, symObjAddr: 0x959C, symBinAddr: 0x10000ABA0, symSize: 0x34 }
  - { offsetInCU: 0xDF4B1, offset: 0xDF4B1, size: 0x8, addend: 0x0, symName: __ZN5Catch14ReporterConfigC1ERKNSt3__110shared_ptrIKNS_7IConfigEEE, symObjAddr: 0x95D0, symBinAddr: 0x10000ABD4, symSize: 0x34 }
  - { offsetInCU: 0xDF4EC, offset: 0xDF4EC, size: 0x8, addend: 0x0, symName: __ZN5Catch14ReporterConfigC2ERKNSt3__110shared_ptrIKNS_7IConfigEEERNS1_13basic_ostreamIcNS1_11char_traitsIcEEEE, symObjAddr: 0x9604, symBinAddr: 0x10000AC08, symSize: 0x44 }
  - { offsetInCU: 0xDF536, offset: 0xDF536, size: 0x8, addend: 0x0, symName: __ZN5Catch14ReporterConfigC1ERKNSt3__110shared_ptrIKNS_7IConfigEEERNS1_13basic_ostreamIcNS1_11char_traitsIcEEEE, symObjAddr: 0x9648, symBinAddr: 0x10000AC4C, symSize: 0x3C }
  - { offsetInCU: 0xDF580, offset: 0xDF580, size: 0x8, addend: 0x0, symName: __ZNK5Catch14ReporterConfig6streamEv, symObjAddr: 0x9684, symBinAddr: 0x10000AC88, symSize: 0x18 }
  - { offsetInCU: 0xDF5A8, offset: 0xDF5A8, size: 0x8, addend: 0x0, symName: __ZNK5Catch14ReporterConfig10fullConfigEv, symObjAddr: 0x969C, symBinAddr: 0x10000ACA0, symSize: 0x3C }
  - { offsetInCU: 0xDF5D0, offset: 0xDF5D0, size: 0x8, addend: 0x0, symName: __ZN5Catch11TestRunInfoC2ERKNSt3__112basic_stringIcNS1_11char_traitsIcEENS1_9allocatorIcEEEE, symObjAddr: 0x96D8, symBinAddr: 0x10000ACDC, symSize: 0x34 }
  - { offsetInCU: 0xDF60B, offset: 0xDF60B, size: 0x8, addend: 0x0, symName: __ZN5Catch11TestRunInfoC1ERKNSt3__112basic_stringIcNS1_11char_traitsIcEENS1_9allocatorIcEEEE, symObjAddr: 0x970C, symBinAddr: 0x10000AD10, symSize: 0x34 }
  - { offsetInCU: 0xDF646, offset: 0xDF646, size: 0x8, addend: 0x0, symName: __ZN5Catch9GroupInfoC2ERKNSt3__112basic_stringIcNS1_11char_traitsIcEENS1_9allocatorIcEEEEmm, symObjAddr: 0x9740, symBinAddr: 0x10000AD44, symSize: 0x4C }
  - { offsetInCU: 0xDF69F, offset: 0xDF69F, size: 0x8, addend: 0x0, symName: __ZN5Catch9GroupInfoC1ERKNSt3__112basic_stringIcNS1_11char_traitsIcEENS1_9allocatorIcEEEEmm, symObjAddr: 0x978C, symBinAddr: 0x10000AD90, symSize: 0x44 }
  - { offsetInCU: 0xDF6F8, offset: 0xDF6F8, size: 0x8, addend: 0x0, symName: __ZN5Catch14AssertionStatsC2ERKNS_15AssertionResultERKNSt3__16vectorINS_11MessageInfoENS4_9allocatorIS6_EEEERKNS_6TotalsE, symObjAddr: 0x97D0, symBinAddr: 0x10000ADD4, symSize: 0x200 }
  - { offsetInCU: 0xDF767, offset: 0xDF767, size: 0x8, addend: 0x0, symName: __ZN5Catch15AssertionResultC1ERKS0_, symObjAddr: 0x99D0, symBinAddr: 0x10000AFD4, symSize: 0x34 }
  - { offsetInCU: 0xDF79D, offset: 0xDF79D, size: 0x8, addend: 0x0, symName: __ZNSt3__16vectorIN5Catch11MessageInfoENS_9allocatorIS2_EEEC1ERKS5_, symObjAddr: 0x9A04, symBinAddr: 0x10000B008, symSize: 0x34 }
  - { offsetInCU: 0xDF7D8, offset: 0xDF7D8, size: 0x8, addend: 0x0, symName: __ZN5Catch14MessageBuilderC1ERKNS_9StringRefERKNS_14SourceLineInfoENS_9ResultWas6OfTypeE, symObjAddr: 0x9A38, symBinAddr: 0x10000B03C, symSize: 0x44 }
  - { offsetInCU: 0xDF836, offset: 0xDF836, size: 0x8, addend: 0x0, symName: __ZN5Catch14MessageBuilderlsINSt3__112basic_stringIcNS2_11char_traitsIcEENS2_9allocatorIcEEEEEERS0_RKT_, symObjAddr: 0x9A7C, symBinAddr: 0x10000B080, symSize: 0x34 }
  - { offsetInCU: 0xDF874, offset: 0xDF874, size: 0x8, addend: 0x0, symName: __ZNSt3__16vectorIN5Catch11MessageInfoENS_9allocatorIS2_EEE9push_backB8ue170006ERKS2_, symObjAddr: 0x9AB0, symBinAddr: 0x10000B0B4, symSize: 0x6C }
  - { offsetInCU: 0xDF8AB, offset: 0xDF8AB, size: 0x8, addend: 0x0, symName: __ZN5Catch14MessageBuilderD1Ev, symObjAddr: 0x9B1C, symBinAddr: 0x10000B120, symSize: 0x2C }
  - { offsetInCU: 0xDF8D8, offset: 0xDF8D8, size: 0x8, addend: 0x0, symName: __ZNSt3__16vectorIN5Catch11MessageInfoENS_9allocatorIS2_EEED1B8ue170006Ev, symObjAddr: 0x9B48, symBinAddr: 0x10000B14C, symSize: 0x2C }
  - { offsetInCU: 0xDF902, offset: 0xDF902, size: 0x8, addend: 0x0, symName: __ZN5Catch15AssertionResultD1Ev, symObjAddr: 0x9B74, symBinAddr: 0x10000B178, symSize: 0x2C }
  - { offsetInCU: 0xDF92F, offset: 0xDF92F, size: 0x8, addend: 0x0, symName: __ZN5Catch14AssertionStatsC1ERKNS_15AssertionResultERKNSt3__16vectorINS_11MessageInfoENS4_9allocatorIS6_EEEERKNS_6TotalsE, symObjAddr: 0x9BA0, symBinAddr: 0x10000B1A4, symSize: 0x44 }
  - { offsetInCU: 0xDF988, offset: 0xDF988, size: 0x8, addend: 0x0, symName: __ZN5Catch14AssertionStatsD2Ev, symObjAddr: 0x9BE4, symBinAddr: 0x10000B1E8, symSize: 0x4C }
  - { offsetInCU: 0xDF9B4, offset: 0xDF9B4, size: 0x8, addend: 0x0, symName: __ZN5Catch14AssertionStatsD1Ev, symObjAddr: 0x9C30, symBinAddr: 0x10000B234, symSize: 0x2C }
  - { offsetInCU: 0xDF9E0, offset: 0xDF9E0, size: 0x8, addend: 0x0, symName: __ZN5Catch14AssertionStatsD0Ev, symObjAddr: 0x9C5C, symBinAddr: 0x10000B260, symSize: 0x30 }
  - { offsetInCU: 0xDFA0C, offset: 0xDFA0C, size: 0x8, addend: 0x0, symName: __ZN5Catch12SectionStatsC2ERKNS_11SectionInfoERKNS_6CountsEdb, symObjAddr: 0x9C8C, symBinAddr: 0x10000B290, symSize: 0x84 }
  - { offsetInCU: 0xDFA74, offset: 0xDFA74, size: 0x8, addend: 0x0, symName: __ZN5Catch11SectionInfoC1ERKS0_, symObjAddr: 0x9D10, symBinAddr: 0x10000B314, symSize: 0x34 }
  - { offsetInCU: 0xDFAAA, offset: 0xDFAAA, size: 0x8, addend: 0x0, symName: __ZN5Catch12SectionStatsC1ERKNS_11SectionInfoERKNS_6CountsEdb, symObjAddr: 0x9D44, symBinAddr: 0x10000B348, symSize: 0x58 }
  - { offsetInCU: 0xDFB12, offset: 0xDFB12, size: 0x8, addend: 0x0, symName: __ZN5Catch12SectionStatsD2Ev, symObjAddr: 0x9D9C, symBinAddr: 0x10000B3A0, symSize: 0x40 }
  - { offsetInCU: 0xDFB3E, offset: 0xDFB3E, size: 0x8, addend: 0x0, symName: __ZN5Catch11SectionInfoD1Ev, symObjAddr: 0x9DDC, symBinAddr: 0x10000B3E0, symSize: 0x2C }
  - { offsetInCU: 0xDFB6B, offset: 0xDFB6B, size: 0x8, addend: 0x0, symName: __ZN5Catch12SectionStatsD1Ev, symObjAddr: 0x9E08, symBinAddr: 0x10000B40C, symSize: 0x2C }
  - { offsetInCU: 0xDFB97, offset: 0xDFB97, size: 0x8, addend: 0x0, symName: __ZN5Catch12SectionStatsD0Ev, symObjAddr: 0x9E34, symBinAddr: 0x10000B438, symSize: 0x30 }
  - { offsetInCU: 0xDFBC3, offset: 0xDFBC3, size: 0x8, addend: 0x0, symName: __ZN5Catch13TestCaseStatsC2ERKNS_12TestCaseInfoERKNS_6TotalsERKNSt3__112basic_stringIcNS7_11char_traitsIcEENS7_9allocatorIcEEEESF_b, symObjAddr: 0x9E64, symBinAddr: 0x10000B468, symSize: 0xEC }
  - { offsetInCU: 0xDFC3A, offset: 0xDFC3A, size: 0x8, addend: 0x0, symName: __ZN5Catch12TestCaseInfoC1ERKS0_, symObjAddr: 0x9F50, symBinAddr: 0x10000B554, symSize: 0x34 }
  - { offsetInCU: 0xDFC70, offset: 0xDFC70, size: 0x8, addend: 0x0, symName: __ZN5Catch12TestCaseInfoD1Ev, symObjAddr: 0x9F84, symBinAddr: 0x10000B588, symSize: 0x2C }
  - { offsetInCU: 0xDFC9D, offset: 0xDFC9D, size: 0x8, addend: 0x0, symName: __ZN5Catch13TestCaseStatsC1ERKNS_12TestCaseInfoERKNS_6TotalsERKNSt3__112basic_stringIcNS7_11char_traitsIcEENS7_9allocatorIcEEEESF_b, symObjAddr: 0x9FB0, symBinAddr: 0x10000B5B4, symSize: 0x60 }
  - { offsetInCU: 0xDFD14, offset: 0xDFD14, size: 0x8, addend: 0x0, symName: __ZN5Catch13TestCaseStatsD2Ev, symObjAddr: 0xA010, symBinAddr: 0x10000B614, symSize: 0x58 }
  - { offsetInCU: 0xDFD40, offset: 0xDFD40, size: 0x8, addend: 0x0, symName: __ZN5Catch13TestCaseStatsD1Ev, symObjAddr: 0xA068, symBinAddr: 0x10000B66C, symSize: 0x2C }
  - { offsetInCU: 0xDFD6C, offset: 0xDFD6C, size: 0x8, addend: 0x0, symName: __ZN5Catch13TestCaseStatsD0Ev, symObjAddr: 0xA094, symBinAddr: 0x10000B698, symSize: 0x30 }
  - { offsetInCU: 0xDFD98, offset: 0xDFD98, size: 0x8, addend: 0x0, symName: __ZN5Catch14TestGroupStatsC2ERKNS_9GroupInfoERKNS_6TotalsEb, symObjAddr: 0xA0C4, symBinAddr: 0x10000B6C8, symSize: 0x78 }
  - { offsetInCU: 0xDFDF1, offset: 0xDFDF1, size: 0x8, addend: 0x0, symName: __ZN5Catch9GroupInfoC1ERKS0_, symObjAddr: 0xA13C, symBinAddr: 0x10000B740, symSize: 0x34 }
  - { offsetInCU: 0xDFE27, offset: 0xDFE27, size: 0x8, addend: 0x0, symName: __ZN5Catch14TestGroupStatsC1ERKNS_9GroupInfoERKNS_6TotalsEb, symObjAddr: 0xA170, symBinAddr: 0x10000B774, symSize: 0x50 }
  - { offsetInCU: 0xDFE80, offset: 0xDFE80, size: 0x8, addend: 0x0, symName: __ZN5Catch14TestGroupStatsC2ERKNS_9GroupInfoE, symObjAddr: 0xA1C0, symBinAddr: 0x10000B7C4, symSize: 0x58 }
  - { offsetInCU: 0xDFEBB, offset: 0xDFEBB, size: 0x8, addend: 0x0, symName: __ZN5Catch6TotalsC1Ev, symObjAddr: 0xA218, symBinAddr: 0x10000B81C, symSize: 0x2C }
  - { offsetInCU: 0xDFEE8, offset: 0xDFEE8, size: 0x8, addend: 0x0, symName: __ZN5Catch14TestGroupStatsC1ERKNS_9GroupInfoE, symObjAddr: 0xA244, symBinAddr: 0x10000B848, symSize: 0x34 }
  - { offsetInCU: 0xDFF23, offset: 0xDFF23, size: 0x8, addend: 0x0, symName: __ZN5Catch14TestGroupStatsD2Ev, symObjAddr: 0xA278, symBinAddr: 0x10000B87C, symSize: 0x40 }
  - { offsetInCU: 0xDFF4F, offset: 0xDFF4F, size: 0x8, addend: 0x0, symName: __ZN5Catch9GroupInfoD1Ev, symObjAddr: 0xA2B8, symBinAddr: 0x10000B8BC, symSize: 0x2C }
  - { offsetInCU: 0xDFF7C, offset: 0xDFF7C, size: 0x8, addend: 0x0, symName: __ZN5Catch14TestGroupStatsD1Ev, symObjAddr: 0xA2E4, symBinAddr: 0x10000B8E8, symSize: 0x2C }
  - { offsetInCU: 0xDFFA8, offset: 0xDFFA8, size: 0x8, addend: 0x0, symName: __ZN5Catch14TestGroupStatsD0Ev, symObjAddr: 0xA310, symBinAddr: 0x10000B914, symSize: 0x30 }
  - { offsetInCU: 0xDFFD4, offset: 0xDFFD4, size: 0x8, addend: 0x0, symName: __ZN5Catch12TestRunStatsC2ERKNS_11TestRunInfoERKNS_6TotalsEb, symObjAddr: 0xA340, symBinAddr: 0x10000B944, symSize: 0x78 }
  - { offsetInCU: 0xE002D, offset: 0xE002D, size: 0x8, addend: 0x0, symName: __ZN5Catch11TestRunInfoC1ERKS0_, symObjAddr: 0xA3B8, symBinAddr: 0x10000B9BC, symSize: 0x34 }
  - { offsetInCU: 0xE0063, offset: 0xE0063, size: 0x8, addend: 0x0, symName: __ZN5Catch12TestRunStatsC1ERKNS_11TestRunInfoERKNS_6TotalsEb, symObjAddr: 0xA3EC, symBinAddr: 0x10000B9F0, symSize: 0x50 }
  - { offsetInCU: 0xE00BC, offset: 0xE00BC, size: 0x8, addend: 0x0, symName: __ZN5Catch12TestRunStatsD2Ev, symObjAddr: 0xA43C, symBinAddr: 0x10000BA40, symSize: 0x40 }
  - { offsetInCU: 0xE00E8, offset: 0xE00E8, size: 0x8, addend: 0x0, symName: __ZN5Catch11TestRunInfoD1Ev, symObjAddr: 0xA47C, symBinAddr: 0x10000BA80, symSize: 0x2C }
  - { offsetInCU: 0xE0115, offset: 0xE0115, size: 0x8, addend: 0x0, symName: __ZN5Catch12TestRunStatsD1Ev, symObjAddr: 0xA4A8, symBinAddr: 0x10000BAAC, symSize: 0x2C }
  - { offsetInCU: 0xE0141, offset: 0xE0141, size: 0x8, addend: 0x0, symName: __ZN5Catch12TestRunStatsD0Ev, symObjAddr: 0xA4D4, symBinAddr: 0x10000BAD8, symSize: 0x30 }
  - { offsetInCU: 0xE016D, offset: 0xE016D, size: 0x8, addend: 0x0, symName: __ZN5Catch18IStreamingReporter21fatalErrorEncounteredENS_9StringRefE, symObjAddr: 0xA504, symBinAddr: 0x10000BB08, symSize: 0x18 }
  - { offsetInCU: 0xE01A0, offset: 0xE01A0, size: 0x8, addend: 0x0, symName: __ZNK5Catch18IStreamingReporter7isMultiEv, symObjAddr: 0xA51C, symBinAddr: 0x10000BB20, symSize: 0x18 }
  - { offsetInCU: 0xE01C8, offset: 0xE01C8, size: 0x8, addend: 0x0, symName: __ZN5Catch16IReporterFactoryD2Ev, symObjAddr: 0xA534, symBinAddr: 0x10000BB38, symSize: 0x14 }
  - { offsetInCU: 0xE01F4, offset: 0xE01F4, size: 0x8, addend: 0x0, symName: __ZN5Catch16IReporterFactoryD1Ev, symObjAddr: 0xA548, symBinAddr: 0x10000BB4C, symSize: 0x14 }
  - { offsetInCU: 0xE0220, offset: 0xE0220, size: 0x8, addend: 0x0, symName: __ZN5Catch16IReporterFactoryD0Ev, symObjAddr: 0xA55C, symBinAddr: 0x10000BB60, symSize: 0xC }
  - { offsetInCU: 0xE024C, offset: 0xE024C, size: 0x8, addend: 0x0, symName: __ZN5Catch17IReporterRegistryD2Ev, symObjAddr: 0xA568, symBinAddr: 0x10000BB6C, symSize: 0x14 }
  - { offsetInCU: 0xE0278, offset: 0xE0278, size: 0x8, addend: 0x0, symName: __ZN5Catch17IReporterRegistryD1Ev, symObjAddr: 0xA57C, symBinAddr: 0x10000BB80, symSize: 0x14 }
  - { offsetInCU: 0xE02A4, offset: 0xE02A4, size: 0x8, addend: 0x0, symName: __ZN5Catch17IReporterRegistryD0Ev, symObjAddr: 0xA590, symBinAddr: 0x10000BB94, symSize: 0xC }
  - { offsetInCU: 0xE02D0, offset: 0xE02D0, size: 0x8, addend: 0x0, symName: __ZN5Catch7IRunnerD2Ev, symObjAddr: 0xA59C, symBinAddr: 0x10000BBA0, symSize: 0x14 }
  - { offsetInCU: 0xE02FC, offset: 0xE02FC, size: 0x8, addend: 0x0, symName: __ZN5Catch7IRunnerD1Ev, symObjAddr: 0xA5B0, symBinAddr: 0x10000BBB4, symSize: 0x14 }
  - { offsetInCU: 0xE0328, offset: 0xE0328, size: 0x8, addend: 0x0, symName: __ZN5Catch7IRunnerD0Ev, symObjAddr: 0xA5C4, symBinAddr: 0x10000BBC8, symSize: 0xC }
  - { offsetInCU: 0xE0354, offset: 0xE0354, size: 0x8, addend: 0x0, symName: __ZN5Catch12ITestInvokerD2Ev, symObjAddr: 0xA5D0, symBinAddr: 0x10000BBD4, symSize: 0x14 }
  - { offsetInCU: 0xE0380, offset: 0xE0380, size: 0x8, addend: 0x0, symName: __ZN5Catch12ITestInvokerD1Ev, symObjAddr: 0xA5E4, symBinAddr: 0x10000BBE8, symSize: 0x14 }
  - { offsetInCU: 0xE03AC, offset: 0xE03AC, size: 0x8, addend: 0x0, symName: __ZN5Catch12ITestInvokerD0Ev, symObjAddr: 0xA5F8, symBinAddr: 0x10000BBFC, symSize: 0xC }
  - { offsetInCU: 0xE03D8, offset: 0xE03D8, size: 0x8, addend: 0x0, symName: __ZN5Catch17ITestCaseRegistryD2Ev, symObjAddr: 0xA604, symBinAddr: 0x10000BC08, symSize: 0x14 }
  - { offsetInCU: 0xE0404, offset: 0xE0404, size: 0x8, addend: 0x0, symName: __ZN5Catch17ITestCaseRegistryD1Ev, symObjAddr: 0xA618, symBinAddr: 0x10000BC1C, symSize: 0x14 }
  - { offsetInCU: 0xE0430, offset: 0xE0430, size: 0x8, addend: 0x0, symName: __ZN5Catch17ITestCaseRegistryD0Ev, symObjAddr: 0xA62C, symBinAddr: 0x10000BC30, symSize: 0xC }
  - { offsetInCU: 0xE045C, offset: 0xE045C, size: 0x8, addend: 0x0, symName: __ZN5Catch12LeakDetectorC2Ev, symObjAddr: 0xA638, symBinAddr: 0x10000BC3C, symSize: 0x14 }
  - { offsetInCU: 0xE0488, offset: 0xE0488, size: 0x8, addend: 0x0, symName: __ZN5Catch12LeakDetectorC1Ev, symObjAddr: 0xA64C, symBinAddr: 0x10000BC50, symSize: 0x2C }
  - { offsetInCU: 0xE04B4, offset: 0xE04B4, size: 0x8, addend: 0x0, symName: __ZN5Catch12LeakDetectorD2Ev, symObjAddr: 0xA678, symBinAddr: 0x10000BC7C, symSize: 0x34 }
  - { offsetInCU: 0xE04E0, offset: 0xE04E0, size: 0x8, addend: 0x0, symName: __ZN5Catch12LeakDetectorD1Ev, symObjAddr: 0xA6C4, symBinAddr: 0x10000BCC8, symSize: 0x2C }
  - { offsetInCU: 0xE050C, offset: 0xE050C, size: 0x8, addend: 0x0, symName: __ZNSt3__16vectorIN5Catch8TestCaseENS_9allocatorIS2_EEE5beginB8ue170006Ev, symObjAddr: 0xAEF0, symBinAddr: 0x10000C4F4, symSize: 0x30 }
  - { offsetInCU: 0xE0534, offset: 0xE0534, size: 0x8, addend: 0x0, symName: __ZNSt3__16vectorIN5Catch8TestCaseENS_9allocatorIS2_EEE3endB8ue170006Ev, symObjAddr: 0xAF20, symBinAddr: 0x10000C524, symSize: 0x30 }
  - { offsetInCU: 0xE055C, offset: 0xE055C, size: 0x8, addend: 0x0, symName: __ZNKSt3__111__wrap_iterIPN5Catch8TestCaseEEdeB8ue170006Ev, symObjAddr: 0xAF84, symBinAddr: 0x10000C588, symSize: 0x18 }
  - { offsetInCU: 0xE0582, offset: 0xE0582, size: 0x8, addend: 0x0, symName: __ZNK5Catch12TestCaseInfo8isHiddenEv, symObjAddr: 0xAF9C, symBinAddr: 0x10000C5A0, symSize: 0x24 }
  - { offsetInCU: 0xE05AA, offset: 0xE05AA, size: 0x8, addend: 0x0, symName: __ZN5Catch5clara8TextFlow6ColumnC1ERKNSt3__112basic_stringIcNS3_11char_traitsIcEENS3_9allocatorIcEEEE, symObjAddr: 0xB0BC, symBinAddr: 0x10000C6C0, symSize: 0x34 }
  - { offsetInCU: 0xE05E3, offset: 0xE05E3, size: 0x8, addend: 0x0, symName: __ZN5Catch5clara8TextFlow6Column13initialIndentEm, symObjAddr: 0xB0F0, symBinAddr: 0x10000C6F4, symSize: 0x20 }
  - { offsetInCU: 0xE0618, offset: 0xE0618, size: 0x8, addend: 0x0, symName: __ZN5Catch5clara8TextFlow6Column6indentEm, symObjAddr: 0xB110, symBinAddr: 0x10000C714, symSize: 0x20 }
  - { offsetInCU: 0xE064D, offset: 0xE064D, size: 0x8, addend: 0x0, symName: __ZN5Catch5clara8TextFlow6ColumnD1Ev, symObjAddr: 0xB130, symBinAddr: 0x10000C734, symSize: 0x2C }
  - { offsetInCU: 0xE067A, offset: 0xE067A, size: 0x8, addend: 0x0, symName: __ZNSt3__112basic_stringIcNS_11char_traitsIcEENS_9allocatorIcEEEaSB8ue170006EPKc, symObjAddr: 0xB188, symBinAddr: 0x10000C78C, symSize: 0x2C }
  - { offsetInCU: 0xE06AF, offset: 0xE06AF, size: 0x8, addend: 0x0, symName: __ZNK5Catch12TestCaseInfo12tagsAsStringEv, symObjAddr: 0xB1B4, symBinAddr: 0x10000C7B8, symSize: 0x1B8 }
  - { offsetInCU: 0xE0795, offset: 0xE0795, size: 0x8, addend: 0x0, symName: __ZNSt3__111__wrap_iterIPN5Catch8TestCaseEEppB8ue170006Ev, symObjAddr: 0xB36C, symBinAddr: 0x10000C970, symSize: 0x20 }
  - { offsetInCU: 0xE07BB, offset: 0xE07BB, size: 0x8, addend: 0x0, symName: __ZNKSt3__16vectorIN5Catch8TestCaseENS_9allocatorIS2_EEE4sizeB8ue170006Ev, symObjAddr: 0xB3FC, symBinAddr: 0x10000CA00, symSize: 0x28 }
